	.cpu cortex-a5
	.eabi_attribute 28, 1	@ Tag_ABI_VFP_args
	.eabi_attribute 20, 1	@ Tag_ABI_FP_denormal
	.eabi_attribute 21, 1	@ Tag_ABI_FP_exceptions
	.eabi_attribute 23, 3	@ Tag_ABI_FP_number_model
	.eabi_attribute 24, 1	@ Tag_ABI_align8_needed
	.eabi_attribute 25, 1	@ Tag_ABI_align8_preserved
	.eabi_attribute 26, 1	@ Tag_ABI_enum_size
	.eabi_attribute 30, 2	@ Tag_ABI_optimization_goals
	.eabi_attribute 34, 1	@ Tag_CPU_unaligned_access
	.eabi_attribute 18, 4	@ Tag_ABI_PCS_wchar_t
	.file	"fault_handlers.c"
@ GNU C17 (Microchip XC32 Compiler v4.60) version 8.3.1 (pic32c)
@	compiled by GNU C version 9.3-win32 20200320, GMP version 6.1.0, MPFR version 3.1.4, MPC version 1.0.3, isl version none
@ GGC heuristics: --param ggc-min-expand=100 --param ggc-min-heapsize=131072
@ options passed:  -fpreprocessed fault_handlers.i -D__SAMA5D29__
@ -mfpu=neon-vfpv4 -fverbose-asm
@ -mconfig-data-file=C:/Program Files/Microchip/MPLABX/v6.25/packs/Microchip/SAMA5D2_DFP/1.12.233/xc32/ATSAMA5D29/configuration.data
@ -isystem c:/program files/microchip/xc32/v4.60/bin/bin/../../pic32c/include/CMSIS/Core_A/Include
@ -D__XC32_INCLUDE_MCC
@ -isystem c:/program files/microchip/xc32/v4.60/bin/bin/../../pic32c/include_mcc
@ -marm -mprocessor=ATSAMA5D29
@ -mdfp=C:/Program Files/Microchip/MPLABX/v6.25/packs/Microchip/SAMA5D2_DFP/1.12.233
@ -mcpu=cortex-a5 -mfloat-abi=hard -mfpu=neon-vfpv4
@ -march=armv7-a+mp+sec+neon-vfpv4
@ -auxbase-strip build/sama5d29_curiosity/production/_ext/285016979/fault_handlers.o
@ -g -O3 -Werror -Wall -ffunction-sections -fdata-sections
@ -ftoplevel-reorder -fno-common -fno-lto
@ options enabled:  -faggressive-loop-optimizations -falign-jumps
@ -falign-labels -falign-loops -fauto-inc-dec -fbranch-count-reg
@ -fcaller-saves -fchkp-check-incomplete-type -fchkp-check-read
@ -fchkp-check-write -fchkp-instrument-calls -fchkp-narrow-bounds
@ -fchkp-optimize -fchkp-store-bounds -fchkp-use-static-bounds
@ -fchkp-use-static-const-bounds -fchkp-use-wrappers -fcode-hoisting
@ -fcombine-stack-adjustments -fcompare-elim -fcprop-registers
@ -fcrossjumping -fcse-follow-jumps -fdata-sections -fdebug-types-section
@ -fdefer-pop -fdelete-null-pointer-checks -fdevirtualize
@ -fdevirtualize-speculatively -fdwarf2-cfi-asm -fearly-inlining
@ -feliminate-unused-debug-symbols -feliminate-unused-debug-types
@ -fexpensive-optimizations -fforward-propagate -ffp-int-builtin-inexact
@ -ffunction-cse -ffunction-sections -fgcse -fgcse-after-reload -fgcse-lm
@ -fgnu-runtime -fgnu-unique -fguess-branch-probability
@ -fhoist-adjacent-loads -fident -fif-conversion -fif-conversion2
@ -findirect-inlining -finline -finline-atomics -finline-functions
@ -finline-functions-called-once -finline-small-functions -fipa-bit-cp
@ -fipa-cp -fipa-cp-clone -fipa-icf -fipa-icf-functions -fipa-icf-variables
@ -fipa-profile -fipa-pure-const -fipa-ra -fipa-reference -fipa-sra
@ -fipa-vrp -fira-hoist-pressure -fira-share-save-slots
@ -fira-share-spill-slots -fisolate-erroneous-paths-dereference -fivopts
@ -fkeep-static-consts -fleading-underscore -flifetime-dse
@ -floop-unroll-and-jam -flra-remat -flto-odr-type-merging -fmath-errno
@ -fmerge-constants -fmerge-debug-strings -fmove-loop-invariants
@ -fomit-frame-pointer -foptimize-sibling-calls -foptimize-strlen
@ -fpartial-inlining -fpeel-loops -fpeephole -fpeephole2 -fplt
@ -fpredictive-commoning -fprefetch-loop-arrays -freg-struct-return
@ -freorder-blocks -freorder-functions -frerun-cse-after-loop
@ -fsched-critical-path-heuristic -fsched-dep-count-heuristic
@ -fsched-group-heuristic -fsched-interblock -fsched-last-insn-heuristic
@ -fsched-pressure -fsched-rank-heuristic -fsched-spec
@ -fsched-spec-insn-heuristic -fsched-stalled-insns-dep -fschedule-insns
@ -fschedule-insns2 -fsection-anchors -fsemantic-interposition
@ -fshow-column -fshrink-wrap -fshrink-wrap-separate -fsigned-zeros
@ -fsplit-ivs-in-unroller -fsplit-loops -fsplit-paths -fsplit-wide-types
@ -fssa-backprop -fssa-phiopt -fstdarg-opt -fstore-merging
@ -fstrict-aliasing -fstrict-volatile-bitfields -fsync-libcalls
@ -fthread-jumps -ftoplevel-reorder -ftrapping-math -ftree-bit-ccp
@ -ftree-builtin-call-dce -ftree-ccp -ftree-ch -ftree-coalesce-vars
@ -ftree-copy-prop -ftree-cselim -ftree-dce -ftree-dominator-opts
@ -ftree-dse -ftree-forwprop -ftree-fre -ftree-loop-distribute-patterns
@ -ftree-loop-if-convert -ftree-loop-im -ftree-loop-ivcanon
@ -ftree-loop-optimize -ftree-loop-vectorize -ftree-parallelize-loops=
@ -ftree-partial-pre -ftree-phiprop -ftree-pre -ftree-pta -ftree-reassoc
@ -ftree-scev-cprop -ftree-sink -ftree-slp-vectorize -ftree-slsr -ftree-sra
@ -ftree-switch-conversion -ftree-tail-merge -ftree-ter -ftree-vrp
@ -funit-at-a-time -funswitch-loops -fvar-tracking
@ -fvar-tracking-assignments -fverbose-asm -fzero-initialized-in-bss
@ -madj-exiting-edge-prob -marm -mauto-indexing -mbe32 -mlittle-endian
@ -mloop-rename-registers -mpic-data-is-text-relative -msched-prolog
@ -munaligned-access -mvectorize-with-neon-quad -mvectors-in-tcm

	.section	.text,code
.Ltext0:
	.cfi_sections	.debug_frame
	.section	.text.undefined_instruction_irq_handler,code
	.align	2
	.weak	undefined_instruction_irq_handler
	.arch armv7-a
	.arch_extension mp
	.arch_extension sec
	.syntax unified
	.arm
	.fpu neon-vfpv4
	.type	undefined_instruction_irq_handler, %function
undefined_instruction_irq_handler:
.LFB0:
	.file 1 "../src/config/sama5d29_curiosity/fault_handlers.c"
	.loc 1 32 1 view -0
	.cfi_startproc
	@ Volatile: function does not return.
	@ args = 0, pretend = 0, frame = 0
	@ frame_needed = 0, uses_anonymous_args = 0
	@ link register save eliminated.
.L2:
	.loc 1 33 5 discriminator 1 view .LVU1
	.loc 1 36 5 discriminator 1 view .LVU2
	b	.L2		@
	.cfi_endproc
.LFE0:
	.size	undefined_instruction_irq_handler, .-undefined_instruction_irq_handler
	.section	.text.software_interrupt_irq_handler,code
	.align	2
	.weak	software_interrupt_irq_handler
	.syntax unified
	.arm
	.fpu neon-vfpv4
	.type	software_interrupt_irq_handler, %function
software_interrupt_irq_handler:
.LFB1:
	.loc 1 40 1 view -0
	.cfi_startproc
	@ Volatile: function does not return.
	@ args = 0, pretend = 0, frame = 0
	@ frame_needed = 0, uses_anonymous_args = 0
	@ link register save eliminated.
.L5:
	.loc 1 41 5 discriminator 1 view .LVU4
	.loc 1 44 5 discriminator 1 view .LVU5
	b	.L5		@
	.cfi_endproc
.LFE1:
	.size	software_interrupt_irq_handler, .-software_interrupt_irq_handler
	.section	.text.data_abort_irq_handler,code
	.align	2
	.weak	data_abort_irq_handler
	.syntax unified
	.arm
	.fpu neon-vfpv4
	.type	data_abort_irq_handler, %function
data_abort_irq_handler:
.LFB2:
	.loc 1 48 1 view -0
	.cfi_startproc
	@ Volatile: function does not return.
	@ args = 0, pretend = 0, frame = 0
	@ frame_needed = 0, uses_anonymous_args = 0
	@ link register save eliminated.
.L7:
	.loc 1 49 5 discriminator 1 view .LVU7
	.loc 1 52 5 discriminator 1 view .LVU8
	b	.L7		@
	.cfi_endproc
.LFE2:
	.size	data_abort_irq_handler, .-data_abort_irq_handler
	.section	.text.prefetch_abort_irq_handler,code
	.align	2
	.weak	prefetch_abort_irq_handler
	.syntax unified
	.arm
	.fpu neon-vfpv4
	.type	prefetch_abort_irq_handler, %function
prefetch_abort_irq_handler:
.LFB3:
	.loc 1 56 1 view -0
	.cfi_startproc
	@ Volatile: function does not return.
	@ args = 0, pretend = 0, frame = 0
	@ frame_needed = 0, uses_anonymous_args = 0
	@ link register save eliminated.
.L9:
	.loc 1 57 5 discriminator 1 view .LVU10
	.loc 1 60 5 discriminator 1 view .LVU11
	b	.L9		@
	.cfi_endproc
.LFE3:
	.size	prefetch_abort_irq_handler, .-prefetch_abort_irq_handler
	.section	.text,code
.Letext0: