	.cpu cortex-a5
	.eabi_attribute 28, 1	@ Tag_ABI_VFP_args
	.eabi_attribute 20, 1	@ Tag_ABI_FP_denormal
	.eabi_attribute 21, 1	@ Tag_ABI_FP_exceptions
	.eabi_attribute 23, 3	@ Tag_ABI_FP_number_model
	.eabi_attribute 24, 1	@ Tag_ABI_align8_needed
	.eabi_attribute 25, 1	@ Tag_ABI_align8_preserved
	.eabi_attribute 26, 1	@ Tag_ABI_enum_size
	.eabi_attribute 30, 2	@ Tag_ABI_optimization_goals
	.eabi_attribute 34, 1	@ Tag_CPU_unaligned_access
	.eabi_attribute 18, 4	@ Tag_ABI_PCS_wchar_t
	.file	"plib_mmu.c"
@ GNU C17 (Microchip XC32 Compiler v4.60) version 8.3.1 (pic32c)
@	compiled by GNU C version 9.3-win32 20200320, GMP version 6.1.0, MPFR version 3.1.4, MPC version 1.0.3, isl version none
@ GGC heuristics: --param ggc-min-expand=100 --param ggc-min-heapsize=131072
@ options passed:  -fpreprocessed plib_mmu.i -D__SAMA5D29__
@ -mfpu=neon-vfpv4 -fverbose-asm
@ -mconfig-data-file=C:/Program Files/Microchip/MPLABX/v6.25/packs/Microchip/SAMA5D2_DFP/1.12.233/xc32/ATSAMA5D29/configuration.data
@ -isystem c:/program files/microchip/xc32/v4.60/bin/bin/../../pic32c/include/CMSIS/Core_A/Include
@ -D__XC32_INCLUDE_MCC
@ -isystem c:/program files/microchip/xc32/v4.60/bin/bin/../../pic32c/include_mcc
@ -marm -mprocessor=ATSAMA5D29
@ -mdfp=C:/Program Files/Microchip/MPLABX/v6.25/packs/Microchip/SAMA5D2_DFP/1.12.233
@ -mcpu=cortex-a5 -mfloat-abi=hard -mfpu=neon-vfpv4
@ -march=armv7-a+mp+sec+neon-vfpv4
@ -auxbase-strip build/sama5d29_curiosity/production/_ext/922293852/plib_mmu.o
@ -g -O3 -Werror -Wall -ffunction-sections -fdata-sections
@ -ftoplevel-reorder -fno-common -fno-lto
@ options enabled:  -faggressive-loop-optimizations -falign-jumps
@ -falign-labels -falign-loops -fauto-inc-dec -fbranch-count-reg
@ -fcaller-saves -fchkp-check-incomplete-type -fchkp-check-read
@ -fchkp-check-write -fchkp-instrument-calls -fchkp-narrow-bounds
@ -fchkp-optimize -fchkp-store-bounds -fchkp-use-static-bounds
@ -fchkp-use-static-const-bounds -fchkp-use-wrappers -fcode-hoisting
@ -fcombine-stack-adjustments -fcompare-elim -fcprop-registers
@ -fcrossjumping -fcse-follow-jumps -fdata-sections -fdebug-types-section
@ -fdefer-pop -fdelete-null-pointer-checks -fdevirtualize
@ -fdevirtualize-speculatively -fdwarf2-cfi-asm -fearly-inlining
@ -feliminate-unused-debug-symbols -feliminate-unused-debug-types
@ -fexpensive-optimizations -fforward-propagate -ffp-int-builtin-inexact
@ -ffunction-cse -ffunction-sections -fgcse -fgcse-after-reload -fgcse-lm
@ -fgnu-runtime -fgnu-unique -fguess-branch-probability
@ -fhoist-adjacent-loads -fident -fif-conversion -fif-conversion2
@ -findirect-inlining -finline -finline-atomics -finline-functions
@ -finline-functions-called-once -finline-small-functions -fipa-bit-cp
@ -fipa-cp -fipa-cp-clone -fipa-icf -fipa-icf-functions -fipa-icf-variables
@ -fipa-profile -fipa-pure-const -fipa-ra -fipa-reference -fipa-sra
@ -fipa-vrp -fira-hoist-pressure -fira-share-save-slots
@ -fira-share-spill-slots -fisolate-erroneous-paths-dereference -fivopts
@ -fkeep-static-consts -fleading-underscore -flifetime-dse
@ -floop-unroll-and-jam -flra-remat -flto-odr-type-merging -fmath-errno
@ -fmerge-constants -fmerge-debug-strings -fmove-loop-invariants
@ -fomit-frame-pointer -foptimize-sibling-calls -foptimize-strlen
@ -fpartial-inlining -fpeel-loops -fpeephole -fpeephole2 -fplt
@ -fpredictive-commoning -fprefetch-loop-arrays -freg-struct-return
@ -freorder-blocks -freorder-functions -frerun-cse-after-loop
@ -fsched-critical-path-heuristic -fsched-dep-count-heuristic
@ -fsched-group-heuristic -fsched-interblock -fsched-last-insn-heuristic
@ -fsched-pressure -fsched-rank-heuristic -fsched-spec
@ -fsched-spec-insn-heuristic -fsched-stalled-insns-dep -fschedule-insns
@ -fschedule-insns2 -fsection-anchors -fsemantic-interposition
@ -fshow-column -fshrink-wrap -fshrink-wrap-separate -fsigned-zeros
@ -fsplit-ivs-in-unroller -fsplit-loops -fsplit-paths -fsplit-wide-types
@ -fssa-backprop -fssa-phiopt -fstdarg-opt -fstore-merging
@ -fstrict-aliasing -fstrict-volatile-bitfields -fsync-libcalls
@ -fthread-jumps -ftoplevel-reorder -ftrapping-math -ftree-bit-ccp
@ -ftree-builtin-call-dce -ftree-ccp -ftree-ch -ftree-coalesce-vars
@ -ftree-copy-prop -ftree-cselim -ftree-dce -ftree-dominator-opts
@ -ftree-dse -ftree-forwprop -ftree-fre -ftree-loop-distribute-patterns
@ -ftree-loop-if-convert -ftree-loop-im -ftree-loop-ivcanon
@ -ftree-loop-optimize -ftree-loop-vectorize -ftree-parallelize-loops=
@ -ftree-partial-pre -ftree-phiprop -ftree-pre -ftree-pta -ftree-reassoc
@ -ftree-scev-cprop -ftree-sink -ftree-slp-vectorize -ftree-slsr -ftree-sra
@ -ftree-switch-conversion -ftree-tail-merge -ftree-ter -ftree-vrp
@ -funit-at-a-time -funswitch-loops -fvar-tracking
@ -fvar-tracking-assignments -fverbose-asm -fzero-initialized-in-bss
@ -madj-exiting-edge-prob -marm -mauto-indexing -mbe32 -mlittle-endian
@ -mloop-rename-registers -mpic-data-is-text-relative -msched-prolog
@ -munaligned-access -mvectorize-with-neon-quad -mvectors-in-tcm

	.section	.text,code
.Ltext0:
	.cfi_sections	.debug_frame
	.section	.text.icache_InvalidateAll,code
	.align	2
	.global	icache_InvalidateAll
	.arch armv7-a
	.arch_extension mp
	.arch_extension sec
	.syntax unified
	.arm
	.fpu neon-vfpv4
	.type	icache_InvalidateAll, %function
icache_InvalidateAll:
.LFB137:
	.file 1 "../src/config/sama5d29_curiosity/peripheral/mmu/plib_mmu.c"
	.loc 1 108 1 view -0
	.cfi_startproc
	@ args = 0, pretend = 0, frame = 0
	@ frame_needed = 0, uses_anonymous_args = 0
	@ link register save eliminated.
	.loc 1 109 5 view .LVU1
.LBB343:
.LBI343:
	.file 2 "C:/Users/M69710/.mchp_packs/ARM/CMSIS/5.9.0/CMSIS/Core_A/Include/core_ca.h"
	.loc 2 886 51 view .LVU2
.LBE343:
	.loc 2 887 3 view .LVU3
.LVL0:
.LBB350:
.LBB344:
.LBI344:
	.file 3 "C:/Users/M69710/.mchp_packs/ARM/CMSIS/5.9.0/CMSIS/Core_A/Include/cmsis_cp15.h"
	.loc 3 408 51 view .LVU4
.LBB345:
	.loc 3 410 3 view .LVU5
	mov	r3, #0	@ tmp110,
	.syntax divided
@ 410 "C:/Users/M69710/.mchp_packs/ARM/CMSIS/5.9.0/CMSIS/Core_A/Include/cmsis_cp15.h" 1
	MCR p15, 0, r3, c7, c5, 0	@ tmp110
@ 0 "" 2
.LVL1:
	.loc 3 410 3 is_stmt 0 view .LVU6
	.arm
	.syntax unified
.LBE345:
.LBE344:
.LBE350:
	.loc 2 888 3 is_stmt 1 view .LVU7
.LBB351:
.LBB346:
.LBI346:
	.file 4 "C:/Users/M69710/.mchp_packs/ARM/CMSIS/5.9.0/CMSIS/Core_A/Include/cmsis_gcc.h"
	.loc 4 364 51 view .LVU8
.LBB347:
	.loc 4 366 3 view .LVU9
	.syntax divided
@ 366 "C:/Users/M69710/.mchp_packs/ARM/CMSIS/5.9.0/CMSIS/Core_A/Include/cmsis_gcc.h" 1
	dsb 0xF	
@ 0 "" 2
	.arm
	.syntax unified
.LBE347:
.LBE346:
.LBE351:
	.loc 2 889 3 view .LVU10
.LBB352:
.LBB348:
.LBI348:
	.loc 4 353 51 view .LVU11
.LBB349:
	.loc 4 355 3 view .LVU12
	.syntax divided
@ 355 "C:/Users/M69710/.mchp_packs/ARM/CMSIS/5.9.0/CMSIS/Core_A/Include/cmsis_gcc.h" 1
	isb 0xF	
@ 0 "" 2
	.arm
	.syntax unified
.LBE349:
.LBE348:
.LBE352:
@ ../src/config/sama5d29_curiosity/peripheral/mmu/plib_mmu.c:110: }
	.loc 1 110 1 is_stmt 0 view .LVU13
	bx	lr	@
	.cfi_endproc
.LFE137:
	.size	icache_InvalidateAll, .-icache_InvalidateAll
	.section	.text.icache_Enable,code
	.align	2
	.global	icache_Enable
	.syntax unified
	.arm
	.fpu neon-vfpv4
	.type	icache_Enable, %function
icache_Enable:
.LFB138:
	.loc 1 113 1 is_stmt 1 view -0
	.cfi_startproc
	@ args = 0, pretend = 0, frame = 0
	@ frame_needed = 0, uses_anonymous_args = 0
	@ link register save eliminated.
	.loc 1 114 5 view .LVU15
.LBB353:
.LBI353:
	.loc 3 188 55 view .LVU16
.LBB354:
	.loc 3 190 3 view .LVU17
	.loc 3 191 3 view .LVU18
	.syntax divided
@ 191 "C:/Users/M69710/.mchp_packs/ARM/CMSIS/5.9.0/CMSIS/Core_A/Include/cmsis_cp15.h" 1
	MRC p15, 0, r3, c1, c0, 0	@ result
@ 0 "" 2
.LVL2:
	.loc 3 192 3 view .LVU19
	.loc 3 192 3 is_stmt 0 view .LVU20
	.arm
	.syntax unified
.LBE354:
.LBE353:
	.loc 1 115 5 is_stmt 1 view .LVU21
@ ../src/config/sama5d29_curiosity/peripheral/mmu/plib_mmu.c:115:     if ((sctlr & SCTLR_I_Msk) == 0U)
	.loc 1 115 8 is_stmt 0 view .LVU22
	ands	r2, r3, #4096	@ tmp114, result,
	bxne	lr	@
	.loc 1 117 9 is_stmt 1 view .LVU23
.LBB355:
.LBI355:
	.loc 2 886 51 view .LVU24
.LBE355:
	.loc 2 887 3 view .LVU25
.LVL3:
.LBB362:
.LBB356:
.LBI356:
	.loc 3 408 51 view .LVU26
.LBB357:
	.loc 3 410 3 view .LVU27
	.syntax divided
@ 410 "C:/Users/M69710/.mchp_packs/ARM/CMSIS/5.9.0/CMSIS/Core_A/Include/cmsis_cp15.h" 1
	MCR p15, 0, r2, c7, c5, 0	@ tmp114
@ 0 "" 2
.LVL4:
	.loc 3 410 3 is_stmt 0 view .LVU28
	.arm
	.syntax unified
.LBE357:
.LBE356:
.LBE362:
	.loc 2 888 3 is_stmt 1 view .LVU29
.LBB363:
.LBB358:
.LBI358:
	.loc 4 364 51 view .LVU30
.LBB359:
	.loc 4 366 3 view .LVU31
	.syntax divided
@ 366 "C:/Users/M69710/.mchp_packs/ARM/CMSIS/5.9.0/CMSIS/Core_A/Include/cmsis_gcc.h" 1
	dsb 0xF	
@ 0 "" 2
	.arm
	.syntax unified
.LBE359:
.LBE358:
.LBE363:
	.loc 2 889 3 view .LVU32
.LBB364:
.LBB360:
.LBI360:
	.loc 4 353 51 view .LVU33
.LBB361:
	.loc 4 355 3 view .LVU34
	.syntax divided
@ 355 "C:/Users/M69710/.mchp_packs/ARM/CMSIS/5.9.0/CMSIS/Core_A/Include/cmsis_gcc.h" 1
	isb 0xF	
@ 0 "" 2
	.arm
	.syntax unified
.LBE361:
.LBE360:
.LBE364:
	.loc 1 118 9 view .LVU35
.LVL5:
.LBB365:
.LBI365:
	.loc 3 180 51 view .LVU36
.LBB366:
	.loc 3 182 3 view .LVU37
.LBE366:
.LBE365:
@ ../src/config/sama5d29_curiosity/peripheral/mmu/plib_mmu.c:118:         __set_SCTLR(sctlr | SCTLR_I_Msk);
	.loc 1 118 9 is_stmt 0 view .LVU38
	orr	r3, r3, #4096	@ tmp116, result,
.LVL6:
.LBB368:
.LBB367:
@ C:/Users/M69710/.mchp_packs/ARM/CMSIS/5.9.0/CMSIS/Core_A/Include/cmsis_cp15.h:182:   __set_CP(15, 0, sctlr, 1, 0, 0);
	.loc 3 182 3 view .LVU39
	.syntax divided
@ 182 "C:/Users/M69710/.mchp_packs/ARM/CMSIS/5.9.0/CMSIS/Core_A/Include/cmsis_cp15.h" 1
	MCR p15, 0, r3, c1, c0, 0	@ tmp116
@ 0 "" 2
	.arm
	.syntax unified
.LBE367:
.LBE368:
@ ../src/config/sama5d29_curiosity/peripheral/mmu/plib_mmu.c:120: }
	.loc 1 120 1 view .LVU40
	bx	lr	@
	.cfi_endproc
.LFE138:
	.size	icache_Enable, .-icache_Enable
	.section	.text.icache_Disable,code
	.align	2
	.global	icache_Disable
	.syntax unified
	.arm
	.fpu neon-vfpv4
	.type	icache_Disable, %function
icache_Disable:
.LFB139:
	.loc 1 123 1 is_stmt 1 view -0
	.cfi_startproc
	@ args = 0, pretend = 0, frame = 0
	@ frame_needed = 0, uses_anonymous_args = 0
	@ link register save eliminated.
	.loc 1 124 5 view .LVU42
.LBB369:
.LBI369:
	.loc 3 188 55 view .LVU43
.LBB370:
	.loc 3 190 3 view .LVU44
	.loc 3 191 3 view .LVU45
	.syntax divided
@ 191 "C:/Users/M69710/.mchp_packs/ARM/CMSIS/5.9.0/CMSIS/Core_A/Include/cmsis_cp15.h" 1
	MRC p15, 0, r3, c1, c0, 0	@ result
@ 0 "" 2
.LVL7:
	.loc 3 192 3 view .LVU46
	.loc 3 192 3 is_stmt 0 view .LVU47
	.arm
	.syntax unified
.LBE370:
.LBE369:
	.loc 1 125 5 is_stmt 1 view .LVU48
@ ../src/config/sama5d29_curiosity/peripheral/mmu/plib_mmu.c:125:     if ((sctlr & SCTLR_I_Msk) != 0U)
	.loc 1 125 8 is_stmt 0 view .LVU49
	tst	r3, #4096	@ result,
	bxeq	lr	@
	.loc 1 127 9 is_stmt 1 view .LVU50
.LVL8:
.LBB371:
.LBI371:
	.loc 3 180 51 view .LVU51
.LBB372:
	.loc 3 182 3 view .LVU52
.LBE372:
.LBE371:
@ ../src/config/sama5d29_curiosity/peripheral/mmu/plib_mmu.c:127:         __set_SCTLR(sctlr & ~SCTLR_I_Msk);
	.loc 1 127 9 is_stmt 0 view .LVU53
	bic	r3, r3, #4096	@ tmp115, result,
.LVL9:
.LBB374:
.LBB373:
@ C:/Users/M69710/.mchp_packs/ARM/CMSIS/5.9.0/CMSIS/Core_A/Include/cmsis_cp15.h:182:   __set_CP(15, 0, sctlr, 1, 0, 0);
	.loc 3 182 3 view .LVU54
	.syntax divided
@ 182 "C:/Users/M69710/.mchp_packs/ARM/CMSIS/5.9.0/CMSIS/Core_A/Include/cmsis_cp15.h" 1
	MCR p15, 0, r3, c1, c0, 0	@ tmp115
@ 0 "" 2
.LVL10:
	.loc 3 182 3 view .LVU55
	.arm
	.syntax unified
.LBE373:
.LBE374:
	.loc 1 128 9 is_stmt 1 view .LVU56
.LBB375:
.LBI375:
	.loc 2 886 51 view .LVU57
.LBE375:
	.loc 2 887 3 view .LVU58
.LBB382:
.LBB376:
.LBI376:
	.loc 3 408 51 view .LVU59
.LBB377:
	.loc 3 410 3 view .LVU60
	mov	r3, #0	@ tmp116,
	.syntax divided
@ 410 "C:/Users/M69710/.mchp_packs/ARM/CMSIS/5.9.0/CMSIS/Core_A/Include/cmsis_cp15.h" 1
	MCR p15, 0, r3, c7, c5, 0	@ tmp116
@ 0 "" 2
.LVL11:
	.loc 3 410 3 is_stmt 0 view .LVU61
	.arm
	.syntax unified
.LBE377:
.LBE376:
.LBE382:
	.loc 2 888 3 is_stmt 1 view .LVU62
.LBB383:
.LBB378:
.LBI378:
	.loc 4 364 51 view .LVU63
.LBB379:
	.loc 4 366 3 view .LVU64
	.syntax divided
@ 366 "C:/Users/M69710/.mchp_packs/ARM/CMSIS/5.9.0/CMSIS/Core_A/Include/cmsis_gcc.h" 1
	dsb 0xF	
@ 0 "" 2
	.arm
	.syntax unified
.LBE379:
.LBE378:
.LBE383:
	.loc 2 889 3 view .LVU65
.LBB384:
.LBB380:
.LBI380:
	.loc 4 353 51 view .LVU66
.LBB381:
	.loc 4 355 3 view .LVU67
	.syntax divided
@ 355 "C:/Users/M69710/.mchp_packs/ARM/CMSIS/5.9.0/CMSIS/Core_A/Include/cmsis_gcc.h" 1
	isb 0xF	
@ 0 "" 2
	.arm
	.syntax unified
.LBE381:
.LBE380:
.LBE384:
@ ../src/config/sama5d29_curiosity/peripheral/mmu/plib_mmu.c:130: }
	.loc 1 130 1 is_stmt 0 view .LVU68
	bx	lr	@
	.cfi_endproc
.LFE139:
	.size	icache_Disable, .-icache_Disable
	.section	.text.dcache_InvalidateAll,code
	.align	2
	.global	dcache_InvalidateAll
	.syntax unified
	.arm
	.fpu neon-vfpv4
	.type	dcache_InvalidateAll, %function
dcache_InvalidateAll:
.LFB140:
	.loc 1 133 1 is_stmt 1 view -0
	.cfi_startproc
	@ args = 0, pretend = 0, frame = 0
	@ frame_needed = 0, uses_anonymous_args = 0
	.loc 1 134 5 view .LVU70
.LBB385:
.LBI385:
	.loc 2 1019 51 view .LVU71
.LBE385:
	.loc 2 1020 3 view .LVU72
.LVL12:
.LBB416:
.LBB386:
.LBI386:
	.loc 2 993 51 view .LVU73
.LBB387:
	.loc 2 994 3 view .LVU74
	.loc 2 995 3 view .LVU75
	.loc 2 996 3 view .LVU76
.LBB388:
.LBI388:
	.loc 3 482 55 view .LVU77
.LBB389:
	.loc 3 484 3 view .LVU78
	.loc 3 486 3 view .LVU79
.LBE389:
.LBE388:
.LBE387:
.LBE386:
.LBE416:
@ ../src/config/sama5d29_curiosity/peripheral/mmu/plib_mmu.c:133: {
	.loc 1 133 1 is_stmt 0 view .LVU80
	push	{r4, r5, r6, r7, r8, lr}	@
.LCFI0:
	.cfi_def_cfa_offset 24
	.cfi_offset 4, -24
	.cfi_offset 5, -20
	.cfi_offset 6, -16
	.cfi_offset 7, -12
	.cfi_offset 8, -8
	.cfi_offset 14, -4
.LBB417:
.LBB415:
.LBB414:
.LBB391:
.LBB390:
@ C:/Users/M69710/.mchp_packs/ARM/CMSIS/5.9.0/CMSIS/Core_A/Include/cmsis_cp15.h:486:   __get_CP(15, 1, result, 0, 0, 1);
	.loc 3 486 3 view .LVU81
	.syntax divided
@ 486 "C:/Users/M69710/.mchp_packs/ARM/CMSIS/5.9.0/CMSIS/Core_A/Include/cmsis_cp15.h" 1
	MRC p15, 1, r7, c0, c0, 1	@ result
@ 0 "" 2
.LVL13:
	.loc 3 487 3 is_stmt 1 view .LVU82
	.loc 3 487 3 is_stmt 0 view .LVU83
	.arm
	.syntax unified
.LBE390:
.LBE391:
	.loc 2 997 3 is_stmt 1 view .LVU84
.LBB392:
	.loc 2 997 7 view .LVU85
@ C:/Users/M69710/.mchp_packs/ARM/CMSIS/5.9.0/CMSIS/Core_A/Include/core_ca.h:997:   for(uint32_t i = 0U; i<7U; i++)
	.loc 2 997 16 is_stmt 0 view .LVU86
	mov	r4, #0	@ i,
@ C:/Users/M69710/.mchp_packs/ARM/CMSIS/5.9.0/CMSIS/Core_A/Include/core_ca.h:999:     cache_type = (clidr >> i*3U) & 0x7UL;
	.loc 2 999 25 view .LVU87
	mov	r6, #3	@ tmp142,
.LVL14:
.L19:
	.loc 2 999 5 is_stmt 1 view .LVU88
	.loc 2 1000 5 view .LVU89
@ C:/Users/M69710/.mchp_packs/ARM/CMSIS/5.9.0/CMSIS/Core_A/Include/core_ca.h:999:     cache_type = (clidr >> i*3U) & 0x7UL;
	.loc 2 999 25 is_stmt 0 view .LVU90
	mul	r3, r6, r4	@ tmp141, tmp142, i
	lsr	r3, r7, r3	@ tmp143, result, tmp141
@ C:/Users/M69710/.mchp_packs/ARM/CMSIS/5.9.0/CMSIS/Core_A/Include/core_ca.h:999:     cache_type = (clidr >> i*3U) & 0x7UL;
	.loc 2 999 16 view .LVU91
	and	r3, r3, #7	@ cache_type, tmp143,
@ C:/Users/M69710/.mchp_packs/ARM/CMSIS/5.9.0/CMSIS/Core_A/Include/core_ca.h:1000:     if ((cache_type >= 2U) && (cache_type <= 4U))
	.loc 2 1000 28 view .LVU92
	sub	r3, r3, #2	@ tmp145, cache_type,
@ C:/Users/M69710/.mchp_packs/ARM/CMSIS/5.9.0/CMSIS/Core_A/Include/core_ca.h:1000:     if ((cache_type >= 2U) && (cache_type <= 4U))
	.loc 2 1000 8 view .LVU93
	cmp	r3, #2	@ tmp145,
	bhi	.L12		@,
	.loc 2 1002 7 is_stmt 1 view .LVU94
.LVL15:
.LBB393:
.LBI393:
	.loc 2 950 51 view .LVU95
.LBB394:
	.loc 2 952 3 view .LVU96
	.loc 2 953 3 view .LVU97
	.loc 2 954 3 view .LVU98
	.loc 2 955 3 view .LVU99
	.loc 2 956 3 view .LVU100
	.loc 2 957 3 view .LVU101
	.loc 2 958 4 view .LVU102
	.loc 2 960 3 view .LVU103
	lsl	r5, r4, #1	@ Dummy, i,
.LVL16:
	.loc 2 962 3 view .LVU104
.LBB395:
.LBI395:
	.loc 3 442 51 view .LVU105
.LBB396:
	.loc 3 445 3 view .LVU106
	.syntax divided
@ 445 "C:/Users/M69710/.mchp_packs/ARM/CMSIS/5.9.0/CMSIS/Core_A/Include/cmsis_cp15.h" 1
	MCR p15, 2, r5, c0, c0, 0	@ Dummy
@ 0 "" 2
.LVL17:
	.loc 3 445 3 is_stmt 0 view .LVU107
	.arm
	.syntax unified
.LBE396:
.LBE395:
	.loc 2 964 3 is_stmt 1 view .LVU108
.LBB397:
.LBI397:
	.loc 3 471 55 view .LVU109
.LBB398:
	.loc 3 473 3 view .LVU110
	.loc 3 475 3 view .LVU111
	.syntax divided
@ 475 "C:/Users/M69710/.mchp_packs/ARM/CMSIS/5.9.0/CMSIS/Core_A/Include/cmsis_cp15.h" 1
	MRC p15, 1, r8, c0, c0, 0	@ result
@ 0 "" 2
.LVL18:
	.loc 3 476 3 view .LVU112
	.loc 3 476 3 is_stmt 0 view .LVU113
	.arm
	.syntax unified
.LBE398:
.LBE397:
	.loc 2 965 3 is_stmt 1 view .LVU114
	.loc 2 966 3 view .LVU115
@ C:/Users/M69710/.mchp_packs/ARM/CMSIS/5.9.0/CMSIS/Core_A/Include/core_ca.h:966:   num_ways = ((ccsidr & 0x00001FF8U) >> 3U) + 1U;
	.loc 2 966 38 is_stmt 0 view .LVU116
	ubfx	lr, r8, #3, #10	@ _13, result,,
@ C:/Users/M69710/.mchp_packs/ARM/CMSIS/5.9.0/CMSIS/Core_A/Include/core_ca.h:966:   num_ways = ((ccsidr & 0x00001FF8U) >> 3U) + 1U;
	.loc 2 966 12 view .LVU117
	add	r0, lr, #1	@ num_ways, _13,
.LVL19:
	.loc 2 967 3 is_stmt 1 view .LVU118
	.loc 2 968 3 view .LVU119
.LBB399:
.LBI399:
	.loc 2 930 54 view .LVU120
.LBB400:
	.loc 2 932 3 view .LVU121
@ C:/Users/M69710/.mchp_packs/ARM/CMSIS/5.9.0/CMSIS/Core_A/Include/core_ca.h:932:   if (n < 2U) {
	.loc 2 932 6 is_stmt 0 view .LVU122
	cmp	r0, #1	@ num_ways,
	beq	.L20		@,
	mov	r2, r0	@ t, num_ways
@ C:/Users/M69710/.mchp_packs/ARM/CMSIS/5.9.0/CMSIS/Core_A/Include/core_ca.h:935:   uint8_t log = 0U;
	.loc 2 935 11 view .LVU123
	mov	r1, #0	@ log,
	b	.L14		@
.LVL20:
.L21:
@ C:/Users/M69710/.mchp_packs/ARM/CMSIS/5.9.0/CMSIS/Core_A/Include/core_ca.h:939:     log++;
	.loc 2 939 8 view .LVU124
	mov	r1, r3	@ log, log
.LVL21:
.L14:
	.loc 2 939 5 is_stmt 1 view .LVU125
@ C:/Users/M69710/.mchp_packs/ARM/CMSIS/5.9.0/CMSIS/Core_A/Include/core_ca.h:940:     t >>= 1U;
	.loc 2 940 7 is_stmt 0 view .LVU126
	lsr	r2, r2, #1	@ t, t,
.LVL22:
@ C:/Users/M69710/.mchp_packs/ARM/CMSIS/5.9.0/CMSIS/Core_A/Include/core_ca.h:939:     log++;
	.loc 2 939 8 view .LVU127
	add	r3, r1, #1	@ tmp149, log,
@ C:/Users/M69710/.mchp_packs/ARM/CMSIS/5.9.0/CMSIS/Core_A/Include/core_ca.h:937:   while(t > 1U)
	.loc 2 937 8 view .LVU128
	cmp	r2, #1	@ t,
@ C:/Users/M69710/.mchp_packs/ARM/CMSIS/5.9.0/CMSIS/Core_A/Include/core_ca.h:939:     log++;
	.loc 2 939 8 view .LVU129
	uxtb	r3, r3	@ log, tmp149
.LVL23:
	.loc 2 940 5 is_stmt 1 view .LVU130
@ C:/Users/M69710/.mchp_packs/ARM/CMSIS/5.9.0/CMSIS/Core_A/Include/core_ca.h:937:   while(t > 1U)
	.loc 2 937 8 is_stmt 0 view .LVU131
	bne	.L21		@,
	.loc 2 942 3 is_stmt 1 view .LVU132
@ C:/Users/M69710/.mchp_packs/ARM/CMSIS/5.9.0/CMSIS/Core_A/Include/core_ca.h:942:   if (n & 1U) { log++; }
	.loc 2 942 6 is_stmt 0 view .LVU133
	tst	r0, #1	@ num_ways,
	beq	.L15		@,
	.loc 2 942 17 is_stmt 1 view .LVU134
@ C:/Users/M69710/.mchp_packs/ARM/CMSIS/5.9.0/CMSIS/Core_A/Include/core_ca.h:942:   if (n & 1U) { log++; }
	.loc 2 942 20 is_stmt 0 view .LVU135
	add	r3, r1, #2	@ tmp151, log,
.LVL24:
	.loc 2 942 20 view .LVU136
	uxtb	r3, r3	@ log, tmp151
.LVL25:
.L15:
	.loc 2 942 20 view .LVU137
.LBE400:
.LBE399:
	.loc 2 969 3 is_stmt 1 view .LVU138
@ C:/Users/M69710/.mchp_packs/ARM/CMSIS/5.9.0/CMSIS/Core_A/Include/core_ca.h:969:   if ((log2_num_ways < 0) || (log2_num_ways > 32)) {
	.loc 2 969 6 is_stmt 0 view .LVU139
	cmp	r3, #32	@ log,
	bhi	.L12		@,
	.loc 2 969 6 view .LVU140
	rsb	ip, r3, #32	@ _78, log,
.LVL26:
.L13:
	.loc 2 972 3 is_stmt 1 view .LVU141
	.loc 2 973 3 view .LVU142
.LBB402:
	.loc 2 973 7 view .LVU143
	and	r0, r8, #7	@ tmp159, result,
.LVL27:
	.loc 2 973 7 is_stmt 0 view .LVU144
.LBE402:
@ C:/Users/M69710/.mchp_packs/ARM/CMSIS/5.9.0/CMSIS/Core_A/Include/core_ca.h:967:   log2_linesize = (ccsidr & 0x00000007U) + 2U + 2U;
	.loc 2 967 17 view .LVU145
	add	r0, r0, #4	@ log2_linesize, tmp159,
@ C:/Users/M69710/.mchp_packs/ARM/CMSIS/5.9.0/CMSIS/Core_A/Include/core_ca.h:965:   num_sets = ((ccsidr & 0x0FFFE000U) >> 13U) + 1U;
	.loc 2 965 38 view .LVU146
	ubfx	r8, r8, #13, #15	@ _80, result,,
.LVL28:
.L18:
.LBB408:
	.loc 2 975 5 is_stmt 1 view .LVU147
.LBB403:
	.loc 2 975 9 view .LVU148
	.loc 2 975 9 is_stmt 0 view .LVU149
	orr	r1, r5, lr, lsl ip	@ _62, Dummy, way,
@ C:/Users/M69710/.mchp_packs/ARM/CMSIS/5.9.0/CMSIS/Core_A/Include/core_ca.h:975:     for(int32_t set = num_sets-1; set >= 0; set--)
	.loc 2 975 17 view .LVU150
	mov	r3, r8	@ set, _80
.L17:
.LVL29:
	.loc 2 977 7 is_stmt 1 view .LVU151
	.loc 2 978 7 view .LVU152
	.loc 2 980 18 view .LVU153
.LBB404:
.LBI404:
	.loc 3 492 51 view .LVU154
.LBB405:
	.loc 3 495 3 view .LVU155
.LBE405:
.LBE404:
@ C:/Users/M69710/.mchp_packs/ARM/CMSIS/5.9.0/CMSIS/Core_A/Include/core_ca.h:977:       Dummy = (level << 1U) | (((uint32_t)set) << log2_linesize) | (((uint32_t)way) << shift_way);
	.loc 2 977 13 is_stmt 0 view .LVU156
	orr	r2, r1, r3, lsl r0	@ Dummy, _62, set,
.LBB407:
.LBB406:
@ C:/Users/M69710/.mchp_packs/ARM/CMSIS/5.9.0/CMSIS/Core_A/Include/cmsis_cp15.h:495:   __set_CP(15, 0, value, 7, 6, 2);
	.loc 3 495 3 view .LVU157
	.syntax divided
@ 495 "C:/Users/M69710/.mchp_packs/ARM/CMSIS/5.9.0/CMSIS/Core_A/Include/cmsis_cp15.h" 1
	MCR p15, 0, r2, c7, c6, 2	@ Dummy
@ 0 "" 2
	.arm
	.syntax unified
.LBE406:
.LBE407:
@ C:/Users/M69710/.mchp_packs/ARM/CMSIS/5.9.0/CMSIS/Core_A/Include/core_ca.h:975:     for(int32_t set = num_sets-1; set >= 0; set--)
	.loc 2 975 5 view .LVU158
	subs	r3, r3, #1	@ set, set,
.LVL30:
	.loc 2 975 5 view .LVU159
	bcs	.L17		@,
.LBE403:
@ C:/Users/M69710/.mchp_packs/ARM/CMSIS/5.9.0/CMSIS/Core_A/Include/core_ca.h:973:   for(int32_t way = num_ways-1; way >= 0; way--)
	.loc 2 973 3 view .LVU160
	subs	lr, lr, #1	@ way, way,
.LVL31:
	.loc 2 973 3 view .LVU161
	bcs	.L18		@,
.LBE408:
	.loc 2 986 3 is_stmt 1 view .LVU162
.LBB409:
.LBI409:
	.loc 4 374 51 view .LVU163
.LBB410:
	.loc 4 376 3 view .LVU164
	.syntax divided
@ 376 "C:/Users/M69710/.mchp_packs/ARM/CMSIS/5.9.0/CMSIS/Core_A/Include/cmsis_gcc.h" 1
	dmb 0xF	
@ 0 "" 2
.LVL32:
	.arm
	.syntax unified
.L12:
	.loc 4 376 3 is_stmt 0 view .LVU165
.LBE410:
.LBE409:
.LBE394:
.LBE393:
@ C:/Users/M69710/.mchp_packs/ARM/CMSIS/5.9.0/CMSIS/Core_A/Include/core_ca.h:997:   for(uint32_t i = 0U; i<7U; i++)
	.loc 2 997 31 view .LVU166
	add	r4, r4, #1	@ i, i,
.LVL33:
@ C:/Users/M69710/.mchp_packs/ARM/CMSIS/5.9.0/CMSIS/Core_A/Include/core_ca.h:997:   for(uint32_t i = 0U; i<7U; i++)
	.loc 2 997 3 view .LVU167
	cmp	r4, #7	@ i,
	bne	.L19		@,
	pop	{r4, r5, r6, r7, r8, pc}	@
.LVL34:
.L20:
.LBB413:
.LBB412:
.LBB411:
.LBB401:
@ C:/Users/M69710/.mchp_packs/ARM/CMSIS/5.9.0/CMSIS/Core_A/Include/core_ca.h:932:   if (n < 2U) {
	.loc 2 932 6 view .LVU168
	mov	ip, #32	@ _78,
	b	.L13		@
.LBE401:
.LBE411:
.LBE412:
.LBE413:
.LBE392:
.LBE414:
.LBE415:
.LBE417:
	.cfi_endproc
.LFE140:
	.size	dcache_InvalidateAll, .-dcache_InvalidateAll
	.section	.text.dcache_CleanAll,code
	.align	2
	.global	dcache_CleanAll
	.syntax unified
	.arm
	.fpu neon-vfpv4
	.type	dcache_CleanAll, %function
dcache_CleanAll:
.LFB141:
	.loc 1 138 1 is_stmt 1 view -0
	.cfi_startproc
	@ args = 0, pretend = 0, frame = 0
	@ frame_needed = 0, uses_anonymous_args = 0
	.loc 1 139 5 view .LVU170
.LBB418:
.LBI418:
	.loc 2 1025 51 view .LVU171
.LBE418:
	.loc 2 1026 3 view .LVU172
.LVL35:
.LBB449:
.LBB419:
.LBI419:
	.loc 2 993 51 view .LVU173
.LBB420:
	.loc 2 994 3 view .LVU174
	.loc 2 995 3 view .LVU175
	.loc 2 996 3 view .LVU176
.LBB421:
.LBI421:
	.loc 3 482 55 view .LVU177
.LBB422:
	.loc 3 484 3 view .LVU178
	.loc 3 486 3 view .LVU179
.LBE422:
.LBE421:
.LBE420:
.LBE419:
.LBE449:
@ ../src/config/sama5d29_curiosity/peripheral/mmu/plib_mmu.c:138: {
	.loc 1 138 1 is_stmt 0 view .LVU180
	push	{r4, r5, r6, r7, r8, lr}	@
.LCFI1:
	.cfi_def_cfa_offset 24
	.cfi_offset 4, -24
	.cfi_offset 5, -20
	.cfi_offset 6, -16
	.cfi_offset 7, -12
	.cfi_offset 8, -8
	.cfi_offset 14, -4
.LBB450:
.LBB448:
.LBB447:
.LBB424:
.LBB423:
@ C:/Users/M69710/.mchp_packs/ARM/CMSIS/5.9.0/CMSIS/Core_A/Include/cmsis_cp15.h:486:   __get_CP(15, 1, result, 0, 0, 1);
	.loc 3 486 3 view .LVU181
	.syntax divided
@ 486 "C:/Users/M69710/.mchp_packs/ARM/CMSIS/5.9.0/CMSIS/Core_A/Include/cmsis_cp15.h" 1
	MRC p15, 1, r7, c0, c0, 1	@ result
@ 0 "" 2
.LVL36:
	.loc 3 487 3 is_stmt 1 view .LVU182
	.loc 3 487 3 is_stmt 0 view .LVU183
	.arm
	.syntax unified
.LBE423:
.LBE424:
	.loc 2 997 3 is_stmt 1 view .LVU184
.LBB425:
	.loc 2 997 7 view .LVU185
@ C:/Users/M69710/.mchp_packs/ARM/CMSIS/5.9.0/CMSIS/Core_A/Include/core_ca.h:997:   for(uint32_t i = 0U; i<7U; i++)
	.loc 2 997 16 is_stmt 0 view .LVU186
	mov	r4, #0	@ i,
@ C:/Users/M69710/.mchp_packs/ARM/CMSIS/5.9.0/CMSIS/Core_A/Include/core_ca.h:999:     cache_type = (clidr >> i*3U) & 0x7UL;
	.loc 2 999 25 view .LVU187
	mov	r6, #3	@ tmp142,
.LVL37:
.L39:
	.loc 2 999 5 is_stmt 1 view .LVU188
	.loc 2 1000 5 view .LVU189
@ C:/Users/M69710/.mchp_packs/ARM/CMSIS/5.9.0/CMSIS/Core_A/Include/core_ca.h:999:     cache_type = (clidr >> i*3U) & 0x7UL;
	.loc 2 999 25 is_stmt 0 view .LVU190
	mul	r3, r6, r4	@ tmp141, tmp142, i
	lsr	r3, r7, r3	@ tmp143, result, tmp141
@ C:/Users/M69710/.mchp_packs/ARM/CMSIS/5.9.0/CMSIS/Core_A/Include/core_ca.h:999:     cache_type = (clidr >> i*3U) & 0x7UL;
	.loc 2 999 16 view .LVU191
	and	r3, r3, #7	@ cache_type, tmp143,
@ C:/Users/M69710/.mchp_packs/ARM/CMSIS/5.9.0/CMSIS/Core_A/Include/core_ca.h:1000:     if ((cache_type >= 2U) && (cache_type <= 4U))
	.loc 2 1000 28 view .LVU192
	sub	r3, r3, #2	@ tmp145, cache_type,
@ C:/Users/M69710/.mchp_packs/ARM/CMSIS/5.9.0/CMSIS/Core_A/Include/core_ca.h:1000:     if ((cache_type >= 2U) && (cache_type <= 4U))
	.loc 2 1000 8 view .LVU193
	cmp	r3, #2	@ tmp145,
	bhi	.L32		@,
	.loc 2 1002 7 is_stmt 1 view .LVU194
.LVL38:
.LBB426:
.LBI426:
	.loc 2 950 51 view .LVU195
.LBB427:
	.loc 2 952 3 view .LVU196
	.loc 2 953 3 view .LVU197
	.loc 2 954 3 view .LVU198
	.loc 2 955 3 view .LVU199
	.loc 2 956 3 view .LVU200
	.loc 2 957 3 view .LVU201
	.loc 2 958 4 view .LVU202
	.loc 2 960 3 view .LVU203
	lsl	r5, r4, #1	@ Dummy, i,
.LVL39:
	.loc 2 962 3 view .LVU204
.LBB428:
.LBI428:
	.loc 3 442 51 view .LVU205
.LBB429:
	.loc 3 445 3 view .LVU206
	.syntax divided
@ 445 "C:/Users/M69710/.mchp_packs/ARM/CMSIS/5.9.0/CMSIS/Core_A/Include/cmsis_cp15.h" 1
	MCR p15, 2, r5, c0, c0, 0	@ Dummy
@ 0 "" 2
.LVL40:
	.loc 3 445 3 is_stmt 0 view .LVU207
	.arm
	.syntax unified
.LBE429:
.LBE428:
	.loc 2 964 3 is_stmt 1 view .LVU208
.LBB430:
.LBI430:
	.loc 3 471 55 view .LVU209
.LBB431:
	.loc 3 473 3 view .LVU210
	.loc 3 475 3 view .LVU211
	.syntax divided
@ 475 "C:/Users/M69710/.mchp_packs/ARM/CMSIS/5.9.0/CMSIS/Core_A/Include/cmsis_cp15.h" 1
	MRC p15, 1, r8, c0, c0, 0	@ result
@ 0 "" 2
.LVL41:
	.loc 3 476 3 view .LVU212
	.loc 3 476 3 is_stmt 0 view .LVU213
	.arm
	.syntax unified
.LBE431:
.LBE430:
	.loc 2 965 3 is_stmt 1 view .LVU214
	.loc 2 966 3 view .LVU215
@ C:/Users/M69710/.mchp_packs/ARM/CMSIS/5.9.0/CMSIS/Core_A/Include/core_ca.h:966:   num_ways = ((ccsidr & 0x00001FF8U) >> 3U) + 1U;
	.loc 2 966 38 is_stmt 0 view .LVU216
	ubfx	lr, r8, #3, #10	@ _13, result,,
@ C:/Users/M69710/.mchp_packs/ARM/CMSIS/5.9.0/CMSIS/Core_A/Include/core_ca.h:966:   num_ways = ((ccsidr & 0x00001FF8U) >> 3U) + 1U;
	.loc 2 966 12 view .LVU217
	add	r0, lr, #1	@ num_ways, _13,
.LVL42:
	.loc 2 967 3 is_stmt 1 view .LVU218
	.loc 2 968 3 view .LVU219
.LBB432:
.LBI432:
	.loc 2 930 54 view .LVU220
.LBB433:
	.loc 2 932 3 view .LVU221
@ C:/Users/M69710/.mchp_packs/ARM/CMSIS/5.9.0/CMSIS/Core_A/Include/core_ca.h:932:   if (n < 2U) {
	.loc 2 932 6 is_stmt 0 view .LVU222
	cmp	r0, #1	@ num_ways,
	beq	.L40		@,
	mov	r2, r0	@ t, num_ways
@ C:/Users/M69710/.mchp_packs/ARM/CMSIS/5.9.0/CMSIS/Core_A/Include/core_ca.h:935:   uint8_t log = 0U;
	.loc 2 935 11 view .LVU223
	mov	r1, #0	@ log,
	b	.L34		@
.LVL43:
.L41:
@ C:/Users/M69710/.mchp_packs/ARM/CMSIS/5.9.0/CMSIS/Core_A/Include/core_ca.h:939:     log++;
	.loc 2 939 8 view .LVU224
	mov	r1, r3	@ log, log
.LVL44:
.L34:
	.loc 2 939 5 is_stmt 1 view .LVU225
@ C:/Users/M69710/.mchp_packs/ARM/CMSIS/5.9.0/CMSIS/Core_A/Include/core_ca.h:940:     t >>= 1U;
	.loc 2 940 7 is_stmt 0 view .LVU226
	lsr	r2, r2, #1	@ t, t,
.LVL45:
@ C:/Users/M69710/.mchp_packs/ARM/CMSIS/5.9.0/CMSIS/Core_A/Include/core_ca.h:939:     log++;
	.loc 2 939 8 view .LVU227
	add	r3, r1, #1	@ tmp149, log,
@ C:/Users/M69710/.mchp_packs/ARM/CMSIS/5.9.0/CMSIS/Core_A/Include/core_ca.h:937:   while(t > 1U)
	.loc 2 937 8 view .LVU228
	cmp	r2, #1	@ t,
@ C:/Users/M69710/.mchp_packs/ARM/CMSIS/5.9.0/CMSIS/Core_A/Include/core_ca.h:939:     log++;
	.loc 2 939 8 view .LVU229
	uxtb	r3, r3	@ log, tmp149
.LVL46:
	.loc 2 940 5 is_stmt 1 view .LVU230
@ C:/Users/M69710/.mchp_packs/ARM/CMSIS/5.9.0/CMSIS/Core_A/Include/core_ca.h:937:   while(t > 1U)
	.loc 2 937 8 is_stmt 0 view .LVU231
	bne	.L41		@,
	.loc 2 942 3 is_stmt 1 view .LVU232
@ C:/Users/M69710/.mchp_packs/ARM/CMSIS/5.9.0/CMSIS/Core_A/Include/core_ca.h:942:   if (n & 1U) { log++; }
	.loc 2 942 6 is_stmt 0 view .LVU233
	tst	r0, #1	@ num_ways,
	beq	.L35		@,
	.loc 2 942 17 is_stmt 1 view .LVU234
@ C:/Users/M69710/.mchp_packs/ARM/CMSIS/5.9.0/CMSIS/Core_A/Include/core_ca.h:942:   if (n & 1U) { log++; }
	.loc 2 942 20 is_stmt 0 view .LVU235
	add	r3, r1, #2	@ tmp151, log,
.LVL47:
	.loc 2 942 20 view .LVU236
	uxtb	r3, r3	@ log, tmp151
.LVL48:
.L35:
	.loc 2 942 20 view .LVU237
.LBE433:
.LBE432:
	.loc 2 969 3 is_stmt 1 view .LVU238
@ C:/Users/M69710/.mchp_packs/ARM/CMSIS/5.9.0/CMSIS/Core_A/Include/core_ca.h:969:   if ((log2_num_ways < 0) || (log2_num_ways > 32)) {
	.loc 2 969 6 is_stmt 0 view .LVU239
	cmp	r3, #32	@ log,
	bhi	.L32		@,
	.loc 2 969 6 view .LVU240
	rsb	ip, r3, #32	@ _78, log,
.LVL49:
.L33:
	.loc 2 972 3 is_stmt 1 view .LVU241
	.loc 2 973 3 view .LVU242
.LBB435:
	.loc 2 973 7 view .LVU243
	and	r0, r8, #7	@ tmp159, result,
.LVL50:
	.loc 2 973 7 is_stmt 0 view .LVU244
.LBE435:
@ C:/Users/M69710/.mchp_packs/ARM/CMSIS/5.9.0/CMSIS/Core_A/Include/core_ca.h:967:   log2_linesize = (ccsidr & 0x00000007U) + 2U + 2U;
	.loc 2 967 17 view .LVU245
	add	r0, r0, #4	@ log2_linesize, tmp159,
@ C:/Users/M69710/.mchp_packs/ARM/CMSIS/5.9.0/CMSIS/Core_A/Include/core_ca.h:965:   num_sets = ((ccsidr & 0x0FFFE000U) >> 13U) + 1U;
	.loc 2 965 38 view .LVU246
	ubfx	r8, r8, #13, #15	@ _80, result,,
.LVL51:
.L38:
.LBB441:
	.loc 2 975 5 is_stmt 1 view .LVU247
.LBB436:
	.loc 2 975 9 view .LVU248
	.loc 2 975 9 is_stmt 0 view .LVU249
	orr	r1, r5, lr, lsl ip	@ _62, Dummy, way,
@ C:/Users/M69710/.mchp_packs/ARM/CMSIS/5.9.0/CMSIS/Core_A/Include/core_ca.h:975:     for(int32_t set = num_sets-1; set >= 0; set--)
	.loc 2 975 17 view .LVU250
	mov	r3, r8	@ set, _80
.L37:
.LVL52:
	.loc 2 977 7 is_stmt 1 view .LVU251
	.loc 2 978 7 view .LVU252
	.loc 2 981 18 view .LVU253
.LBB437:
.LBI437:
	.loc 3 500 51 view .LVU254
.LBB438:
	.loc 3 503 3 view .LVU255
.LBE438:
.LBE437:
@ C:/Users/M69710/.mchp_packs/ARM/CMSIS/5.9.0/CMSIS/Core_A/Include/core_ca.h:977:       Dummy = (level << 1U) | (((uint32_t)set) << log2_linesize) | (((uint32_t)way) << shift_way);
	.loc 2 977 13 is_stmt 0 view .LVU256
	orr	r2, r1, r3, lsl r0	@ Dummy, _62, set,
.LBB440:
.LBB439:
@ C:/Users/M69710/.mchp_packs/ARM/CMSIS/5.9.0/CMSIS/Core_A/Include/cmsis_cp15.h:503:   __set_CP(15, 0, value, 7, 10, 2);
	.loc 3 503 3 view .LVU257
	.syntax divided
@ 503 "C:/Users/M69710/.mchp_packs/ARM/CMSIS/5.9.0/CMSIS/Core_A/Include/cmsis_cp15.h" 1
	MCR p15, 0, r2, c7, c10, 2	@ Dummy
@ 0 "" 2
	.arm
	.syntax unified
.LBE439:
.LBE440:
@ C:/Users/M69710/.mchp_packs/ARM/CMSIS/5.9.0/CMSIS/Core_A/Include/core_ca.h:975:     for(int32_t set = num_sets-1; set >= 0; set--)
	.loc 2 975 5 view .LVU258
	subs	r3, r3, #1	@ set, set,
.LVL53:
	.loc 2 975 5 view .LVU259
	bcs	.L37		@,
.LBE436:
@ C:/Users/M69710/.mchp_packs/ARM/CMSIS/5.9.0/CMSIS/Core_A/Include/core_ca.h:973:   for(int32_t way = num_ways-1; way >= 0; way--)
	.loc 2 973 3 view .LVU260
	subs	lr, lr, #1	@ way, way,
.LVL54:
	.loc 2 973 3 view .LVU261
	bcs	.L38		@,
.LBE441:
	.loc 2 986 3 is_stmt 1 view .LVU262
.LBB442:
.LBI442:
	.loc 4 374 51 view .LVU263
.LBB443:
	.loc 4 376 3 view .LVU264
	.syntax divided
@ 376 "C:/Users/M69710/.mchp_packs/ARM/CMSIS/5.9.0/CMSIS/Core_A/Include/cmsis_gcc.h" 1
	dmb 0xF	
@ 0 "" 2
.LVL55:
	.arm
	.syntax unified
.L32:
	.loc 4 376 3 is_stmt 0 view .LVU265
.LBE443:
.LBE442:
.LBE427:
.LBE426:
@ C:/Users/M69710/.mchp_packs/ARM/CMSIS/5.9.0/CMSIS/Core_A/Include/core_ca.h:997:   for(uint32_t i = 0U; i<7U; i++)
	.loc 2 997 31 view .LVU266
	add	r4, r4, #1	@ i, i,
.LVL56:
@ C:/Users/M69710/.mchp_packs/ARM/CMSIS/5.9.0/CMSIS/Core_A/Include/core_ca.h:997:   for(uint32_t i = 0U; i<7U; i++)
	.loc 2 997 3 view .LVU267
	cmp	r4, #7	@ i,
	bne	.L39		@,
	pop	{r4, r5, r6, r7, r8, pc}	@
.LVL57:
.L40:
.LBB446:
.LBB445:
.LBB444:
.LBB434:
@ C:/Users/M69710/.mchp_packs/ARM/CMSIS/5.9.0/CMSIS/Core_A/Include/core_ca.h:932:   if (n < 2U) {
	.loc 2 932 6 view .LVU268
	mov	ip, #32	@ _78,
	b	.L33		@
.LBE434:
.LBE444:
.LBE445:
.LBE446:
.LBE425:
.LBE447:
.LBE448:
.LBE450:
	.cfi_endproc
.LFE141:
	.size	dcache_CleanAll, .-dcache_CleanAll
	.section	.text.dcache_CleanInvalidateAll,code
	.align	2
	.global	dcache_CleanInvalidateAll
	.syntax unified
	.arm
	.fpu neon-vfpv4
	.type	dcache_CleanInvalidateAll, %function
dcache_CleanInvalidateAll:
.LFB142:
	.loc 1 143 1 is_stmt 1 view -0
	.cfi_startproc
	@ args = 0, pretend = 0, frame = 0
	@ frame_needed = 0, uses_anonymous_args = 0
	.loc 1 144 5 view .LVU270
.LBB451:
.LBI451:
	.loc 2 1031 51 view .LVU271
.LBE451:
	.loc 2 1032 3 view .LVU272
.LVL58:
.LBB482:
.LBB452:
.LBI452:
	.loc 2 993 51 view .LVU273
.LBB453:
	.loc 2 994 3 view .LVU274
	.loc 2 995 3 view .LVU275
	.loc 2 996 3 view .LVU276
.LBB454:
.LBI454:
	.loc 3 482 55 view .LVU277
.LBB455:
	.loc 3 484 3 view .LVU278
	.loc 3 486 3 view .LVU279
.LBE455:
.LBE454:
.LBE453:
.LBE452:
.LBE482:
@ ../src/config/sama5d29_curiosity/peripheral/mmu/plib_mmu.c:143: {
	.loc 1 143 1 is_stmt 0 view .LVU280
	push	{r4, r5, r6, r7, r8, lr}	@
.LCFI2:
	.cfi_def_cfa_offset 24
	.cfi_offset 4, -24
	.cfi_offset 5, -20
	.cfi_offset 6, -16
	.cfi_offset 7, -12
	.cfi_offset 8, -8
	.cfi_offset 14, -4
.LBB483:
.LBB481:
.LBB480:
.LBB457:
.LBB456:
@ C:/Users/M69710/.mchp_packs/ARM/CMSIS/5.9.0/CMSIS/Core_A/Include/cmsis_cp15.h:486:   __get_CP(15, 1, result, 0, 0, 1);
	.loc 3 486 3 view .LVU281
	.syntax divided
@ 486 "C:/Users/M69710/.mchp_packs/ARM/CMSIS/5.9.0/CMSIS/Core_A/Include/cmsis_cp15.h" 1
	MRC p15, 1, r7, c0, c0, 1	@ result
@ 0 "" 2
.LVL59:
	.loc 3 487 3 is_stmt 1 view .LVU282
	.loc 3 487 3 is_stmt 0 view .LVU283
	.arm
	.syntax unified
.LBE456:
.LBE457:
	.loc 2 997 3 is_stmt 1 view .LVU284
.LBB458:
	.loc 2 997 7 view .LVU285
@ C:/Users/M69710/.mchp_packs/ARM/CMSIS/5.9.0/CMSIS/Core_A/Include/core_ca.h:997:   for(uint32_t i = 0U; i<7U; i++)
	.loc 2 997 16 is_stmt 0 view .LVU286
	mov	r4, #0	@ i,
@ C:/Users/M69710/.mchp_packs/ARM/CMSIS/5.9.0/CMSIS/Core_A/Include/core_ca.h:999:     cache_type = (clidr >> i*3U) & 0x7UL;
	.loc 2 999 25 view .LVU287
	mov	r6, #3	@ tmp142,
.LVL60:
.L59:
	.loc 2 999 5 is_stmt 1 view .LVU288
	.loc 2 1000 5 view .LVU289
@ C:/Users/M69710/.mchp_packs/ARM/CMSIS/5.9.0/CMSIS/Core_A/Include/core_ca.h:999:     cache_type = (clidr >> i*3U) & 0x7UL;
	.loc 2 999 25 is_stmt 0 view .LVU290
	mul	r3, r6, r4	@ tmp141, tmp142, i
	lsr	r3, r7, r3	@ tmp143, result, tmp141
@ C:/Users/M69710/.mchp_packs/ARM/CMSIS/5.9.0/CMSIS/Core_A/Include/core_ca.h:999:     cache_type = (clidr >> i*3U) & 0x7UL;
	.loc 2 999 16 view .LVU291
	and	r3, r3, #7	@ cache_type, tmp143,
@ C:/Users/M69710/.mchp_packs/ARM/CMSIS/5.9.0/CMSIS/Core_A/Include/core_ca.h:1000:     if ((cache_type >= 2U) && (cache_type <= 4U))
	.loc 2 1000 28 view .LVU292
	sub	r3, r3, #2	@ tmp145, cache_type,
@ C:/Users/M69710/.mchp_packs/ARM/CMSIS/5.9.0/CMSIS/Core_A/Include/core_ca.h:1000:     if ((cache_type >= 2U) && (cache_type <= 4U))
	.loc 2 1000 8 view .LVU293
	cmp	r3, #2	@ tmp145,
	bhi	.L52		@,
	.loc 2 1002 7 is_stmt 1 view .LVU294
.LVL61:
.LBB459:
.LBI459:
	.loc 2 950 51 view .LVU295
.LBB460:
	.loc 2 952 3 view .LVU296
	.loc 2 953 3 view .LVU297
	.loc 2 954 3 view .LVU298
	.loc 2 955 3 view .LVU299
	.loc 2 956 3 view .LVU300
	.loc 2 957 3 view .LVU301
	.loc 2 958 4 view .LVU302
	.loc 2 960 3 view .LVU303
	lsl	r5, r4, #1	@ Dummy, i,
.LVL62:
	.loc 2 962 3 view .LVU304
.LBB461:
.LBI461:
	.loc 3 442 51 view .LVU305
.LBB462:
	.loc 3 445 3 view .LVU306
	.syntax divided
@ 445 "C:/Users/M69710/.mchp_packs/ARM/CMSIS/5.9.0/CMSIS/Core_A/Include/cmsis_cp15.h" 1
	MCR p15, 2, r5, c0, c0, 0	@ Dummy
@ 0 "" 2
.LVL63:
	.loc 3 445 3 is_stmt 0 view .LVU307
	.arm
	.syntax unified
.LBE462:
.LBE461:
	.loc 2 964 3 is_stmt 1 view .LVU308
.LBB463:
.LBI463:
	.loc 3 471 55 view .LVU309
.LBB464:
	.loc 3 473 3 view .LVU310
	.loc 3 475 3 view .LVU311
	.syntax divided
@ 475 "C:/Users/M69710/.mchp_packs/ARM/CMSIS/5.9.0/CMSIS/Core_A/Include/cmsis_cp15.h" 1
	MRC p15, 1, r8, c0, c0, 0	@ result
@ 0 "" 2
.LVL64:
	.loc 3 476 3 view .LVU312
	.loc 3 476 3 is_stmt 0 view .LVU313
	.arm
	.syntax unified
.LBE464:
.LBE463:
	.loc 2 965 3 is_stmt 1 view .LVU314
	.loc 2 966 3 view .LVU315
@ C:/Users/M69710/.mchp_packs/ARM/CMSIS/5.9.0/CMSIS/Core_A/Include/core_ca.h:966:   num_ways = ((ccsidr & 0x00001FF8U) >> 3U) + 1U;
	.loc 2 966 38 is_stmt 0 view .LVU316
	ubfx	lr, r8, #3, #10	@ _13, result,,
@ C:/Users/M69710/.mchp_packs/ARM/CMSIS/5.9.0/CMSIS/Core_A/Include/core_ca.h:966:   num_ways = ((ccsidr & 0x00001FF8U) >> 3U) + 1U;
	.loc 2 966 12 view .LVU317
	add	r0, lr, #1	@ num_ways, _13,
.LVL65:
	.loc 2 967 3 is_stmt 1 view .LVU318
	.loc 2 968 3 view .LVU319
.LBB465:
.LBI465:
	.loc 2 930 54 view .LVU320
.LBB466:
	.loc 2 932 3 view .LVU321
@ C:/Users/M69710/.mchp_packs/ARM/CMSIS/5.9.0/CMSIS/Core_A/Include/core_ca.h:932:   if (n < 2U) {
	.loc 2 932 6 is_stmt 0 view .LVU322
	cmp	r0, #1	@ num_ways,
	beq	.L60		@,
	mov	r2, r0	@ t, num_ways
@ C:/Users/M69710/.mchp_packs/ARM/CMSIS/5.9.0/CMSIS/Core_A/Include/core_ca.h:935:   uint8_t log = 0U;
	.loc 2 935 11 view .LVU323
	mov	r1, #0	@ log,
	b	.L54		@
.LVL66:
.L61:
@ C:/Users/M69710/.mchp_packs/ARM/CMSIS/5.9.0/CMSIS/Core_A/Include/core_ca.h:939:     log++;
	.loc 2 939 8 view .LVU324
	mov	r1, r3	@ log, log
.LVL67:
.L54:
	.loc 2 939 5 is_stmt 1 view .LVU325
@ C:/Users/M69710/.mchp_packs/ARM/CMSIS/5.9.0/CMSIS/Core_A/Include/core_ca.h:940:     t >>= 1U;
	.loc 2 940 7 is_stmt 0 view .LVU326
	lsr	r2, r2, #1	@ t, t,
.LVL68:
@ C:/Users/M69710/.mchp_packs/ARM/CMSIS/5.9.0/CMSIS/Core_A/Include/core_ca.h:939:     log++;
	.loc 2 939 8 view .LVU327
	add	r3, r1, #1	@ tmp149, log,
@ C:/Users/M69710/.mchp_packs/ARM/CMSIS/5.9.0/CMSIS/Core_A/Include/core_ca.h:937:   while(t > 1U)
	.loc 2 937 8 view .LVU328
	cmp	r2, #1	@ t,
@ C:/Users/M69710/.mchp_packs/ARM/CMSIS/5.9.0/CMSIS/Core_A/Include/core_ca.h:939:     log++;
	.loc 2 939 8 view .LVU329
	uxtb	r3, r3	@ log, tmp149
.LVL69:
	.loc 2 940 5 is_stmt 1 view .LVU330
@ C:/Users/M69710/.mchp_packs/ARM/CMSIS/5.9.0/CMSIS/Core_A/Include/core_ca.h:937:   while(t > 1U)
	.loc 2 937 8 is_stmt 0 view .LVU331
	bne	.L61		@,
	.loc 2 942 3 is_stmt 1 view .LVU332
@ C:/Users/M69710/.mchp_packs/ARM/CMSIS/5.9.0/CMSIS/Core_A/Include/core_ca.h:942:   if (n & 1U) { log++; }
	.loc 2 942 6 is_stmt 0 view .LVU333
	tst	r0, #1	@ num_ways,
	beq	.L55		@,
	.loc 2 942 17 is_stmt 1 view .LVU334
@ C:/Users/M69710/.mchp_packs/ARM/CMSIS/5.9.0/CMSIS/Core_A/Include/core_ca.h:942:   if (n & 1U) { log++; }
	.loc 2 942 20 is_stmt 0 view .LVU335
	add	r3, r1, #2	@ tmp151, log,
.LVL70:
	.loc 2 942 20 view .LVU336
	uxtb	r3, r3	@ log, tmp151
.LVL71:
.L55:
	.loc 2 942 20 view .LVU337
.LBE466:
.LBE465:
	.loc 2 969 3 is_stmt 1 view .LVU338
@ C:/Users/M69710/.mchp_packs/ARM/CMSIS/5.9.0/CMSIS/Core_A/Include/core_ca.h:969:   if ((log2_num_ways < 0) || (log2_num_ways > 32)) {
	.loc 2 969 6 is_stmt 0 view .LVU339
	cmp	r3, #32	@ log,
	bhi	.L52		@,
	.loc 2 969 6 view .LVU340
	rsb	ip, r3, #32	@ _78, log,
.LVL72:
.L53:
	.loc 2 972 3 is_stmt 1 view .LVU341
	.loc 2 973 3 view .LVU342
.LBB468:
	.loc 2 973 7 view .LVU343
	and	r0, r8, #7	@ tmp159, result,
.LVL73:
	.loc 2 973 7 is_stmt 0 view .LVU344
.LBE468:
@ C:/Users/M69710/.mchp_packs/ARM/CMSIS/5.9.0/CMSIS/Core_A/Include/core_ca.h:967:   log2_linesize = (ccsidr & 0x00000007U) + 2U + 2U;
	.loc 2 967 17 view .LVU345
	add	r0, r0, #4	@ log2_linesize, tmp159,
@ C:/Users/M69710/.mchp_packs/ARM/CMSIS/5.9.0/CMSIS/Core_A/Include/core_ca.h:965:   num_sets = ((ccsidr & 0x0FFFE000U) >> 13U) + 1U;
	.loc 2 965 38 view .LVU346
	ubfx	r8, r8, #13, #15	@ _80, result,,
.LVL74:
.L58:
.LBB474:
	.loc 2 975 5 is_stmt 1 view .LVU347
.LBB469:
	.loc 2 975 9 view .LVU348
	.loc 2 975 9 is_stmt 0 view .LVU349
	orr	r1, r5, lr, lsl ip	@ _62, Dummy, way,
@ C:/Users/M69710/.mchp_packs/ARM/CMSIS/5.9.0/CMSIS/Core_A/Include/core_ca.h:975:     for(int32_t set = num_sets-1; set >= 0; set--)
	.loc 2 975 17 view .LVU350
	mov	r3, r8	@ set, _80
.L57:
.LVL75:
	.loc 2 977 7 is_stmt 1 view .LVU351
	.loc 2 978 7 view .LVU352
	.loc 2 982 18 view .LVU353
.LBB470:
.LBI470:
	.loc 3 508 51 view .LVU354
.LBB471:
	.loc 3 511 3 view .LVU355
.LBE471:
.LBE470:
@ C:/Users/M69710/.mchp_packs/ARM/CMSIS/5.9.0/CMSIS/Core_A/Include/core_ca.h:977:       Dummy = (level << 1U) | (((uint32_t)set) << log2_linesize) | (((uint32_t)way) << shift_way);
	.loc 2 977 13 is_stmt 0 view .LVU356
	orr	r2, r1, r3, lsl r0	@ Dummy, _62, set,
.LBB473:
.LBB472:
@ C:/Users/M69710/.mchp_packs/ARM/CMSIS/5.9.0/CMSIS/Core_A/Include/cmsis_cp15.h:511:   __set_CP(15, 0, value, 7, 14, 2);
	.loc 3 511 3 view .LVU357
	.syntax divided
@ 511 "C:/Users/M69710/.mchp_packs/ARM/CMSIS/5.9.0/CMSIS/Core_A/Include/cmsis_cp15.h" 1
	MCR p15, 0, r2, c7, c14, 2	@ Dummy
@ 0 "" 2
	.arm
	.syntax unified
.LBE472:
.LBE473:
@ C:/Users/M69710/.mchp_packs/ARM/CMSIS/5.9.0/CMSIS/Core_A/Include/core_ca.h:975:     for(int32_t set = num_sets-1; set >= 0; set--)
	.loc 2 975 5 view .LVU358
	subs	r3, r3, #1	@ set, set,
.LVL76:
	.loc 2 975 5 view .LVU359
	bcs	.L57		@,
.LBE469:
@ C:/Users/M69710/.mchp_packs/ARM/CMSIS/5.9.0/CMSIS/Core_A/Include/core_ca.h:973:   for(int32_t way = num_ways-1; way >= 0; way--)
	.loc 2 973 3 view .LVU360
	subs	lr, lr, #1	@ way, way,
.LVL77:
	.loc 2 973 3 view .LVU361
	bcs	.L58		@,
.LBE474:
	.loc 2 986 3 is_stmt 1 view .LVU362
.LBB475:
.LBI475:
	.loc 4 374 51 view .LVU363
.LBB476:
	.loc 4 376 3 view .LVU364
	.syntax divided
@ 376 "C:/Users/M69710/.mchp_packs/ARM/CMSIS/5.9.0/CMSIS/Core_A/Include/cmsis_gcc.h" 1
	dmb 0xF	
@ 0 "" 2
.LVL78:
	.arm
	.syntax unified
.L52:
	.loc 4 376 3 is_stmt 0 view .LVU365
.LBE476:
.LBE475:
.LBE460:
.LBE459:
@ C:/Users/M69710/.mchp_packs/ARM/CMSIS/5.9.0/CMSIS/Core_A/Include/core_ca.h:997:   for(uint32_t i = 0U; i<7U; i++)
	.loc 2 997 31 view .LVU366
	add	r4, r4, #1	@ i, i,
.LVL79:
@ C:/Users/M69710/.mchp_packs/ARM/CMSIS/5.9.0/CMSIS/Core_A/Include/core_ca.h:997:   for(uint32_t i = 0U; i<7U; i++)
	.loc 2 997 3 view .LVU367
	cmp	r4, #7	@ i,
	bne	.L59		@,
	pop	{r4, r5, r6, r7, r8, pc}	@
.LVL80:
.L60:
.LBB479:
.LBB478:
.LBB477:
.LBB467:
@ C:/Users/M69710/.mchp_packs/ARM/CMSIS/5.9.0/CMSIS/Core_A/Include/core_ca.h:932:   if (n < 2U) {
	.loc 2 932 6 view .LVU368
	mov	ip, #32	@ _78,
	b	.L53		@
.LBE467:
.LBE477:
.LBE478:
.LBE479:
.LBE458:
.LBE480:
.LBE481:
.LBE483:
	.cfi_endproc
.LFE142:
	.size	dcache_CleanInvalidateAll, .-dcache_CleanInvalidateAll
	.section	.text.dcache_InvalidateByAddr,code
	.align	2
	.global	dcache_InvalidateByAddr
	.syntax unified
	.arm
	.fpu neon-vfpv4
	.type	dcache_InvalidateByAddr, %function
dcache_InvalidateByAddr:
.LVL81:
.LFB143:
	.loc 1 148 1 is_stmt 1 view -0
	.cfi_startproc
	@ args = 0, pretend = 0, frame = 8
	@ frame_needed = 0, uses_anonymous_args = 0
	@ link register save eliminated.
	.loc 1 149 5 view .LVU370
@ ../src/config/sama5d29_curiosity/peripheral/mmu/plib_mmu.c:148: {
	.loc 1 148 1 is_stmt 0 view .LVU371
	sub	sp, sp, #8	@,,
.LCFI3:
	.cfi_def_cfa_offset 8
@ ../src/config/sama5d29_curiosity/peripheral/mmu/plib_mmu.c:149:     volatile uint32_t uAddr = (volatile uint32_t)((volatile uint32_t*)pAddr);
	.loc 1 149 23 view .LVU372
	str	r0, [sp, #4]	@ pAddr, uAddr
	.loc 1 150 5 is_stmt 1 view .LVU373
.LVL82:
	.loc 1 151 5 view .LVU374
@ ../src/config/sama5d29_curiosity/peripheral/mmu/plib_mmu.c:151:     uint32_t mva = uAddr & ~(L1_DATA_CACHE_BYTES - 1U);
	.loc 1 151 26 is_stmt 0 view .LVU375
	ldr	r3, [sp, #4]	@ uAddr.7_2, uAddr
@ ../src/config/sama5d29_curiosity/peripheral/mmu/plib_mmu.c:153:     while(mva < (uAddr + uSize))
	.loc 1 153 24 view .LVU376
	ldr	r2, [sp, #4]	@ uAddr.8_19, uAddr
@ ../src/config/sama5d29_curiosity/peripheral/mmu/plib_mmu.c:151:     uint32_t mva = uAddr & ~(L1_DATA_CACHE_BYTES - 1U);
	.loc 1 151 14 view .LVU377
	bic	r3, r3, #31	@ mva, uAddr.7_2,
.LVL83:
	.loc 1 153 5 is_stmt 1 view .LVU378
@ ../src/config/sama5d29_curiosity/peripheral/mmu/plib_mmu.c:153:     while(mva < (uAddr + uSize))
	.loc 1 153 24 is_stmt 0 view .LVU379
	add	r2, r1, r2	@ tmp120, size, uAddr.8_19
@ ../src/config/sama5d29_curiosity/peripheral/mmu/plib_mmu.c:153:     while(mva < (uAddr + uSize))
	.loc 1 153 10 view .LVU380
	cmp	r3, r2	@ mva, tmp120
	bcs	.L71		@,
.L72:
	.loc 1 155 9 is_stmt 1 view .LVU381
.LVL84:
.LBB484:
.LBI484:
	.loc 3 426 51 view .LVU382
.LBB485:
	.loc 3 428 3 view .LVU383
	.syntax divided
@ 428 "C:/Users/M69710/.mchp_packs/ARM/CMSIS/5.9.0/CMSIS/Core_A/Include/cmsis_cp15.h" 1
	MCR p15, 0, r3, c7, c6, 1	@ mva
@ 0 "" 2
.LVL85:
	.loc 3 428 3 is_stmt 0 view .LVU384
	.arm
	.syntax unified
.LBE485:
.LBE484:
	.loc 1 156 9 is_stmt 1 view .LVU385
.LBB486:
.LBI486:
	.loc 4 374 51 view .LVU386
.LBB487:
	.loc 4 376 3 view .LVU387
	.syntax divided
@ 376 "C:/Users/M69710/.mchp_packs/ARM/CMSIS/5.9.0/CMSIS/Core_A/Include/cmsis_gcc.h" 1
	dmb 0xF	
@ 0 "" 2
	.arm
	.syntax unified
.LBE487:
.LBE486:
	.loc 1 157 9 view .LVU388
@ ../src/config/sama5d29_curiosity/peripheral/mmu/plib_mmu.c:153:     while(mva < (uAddr + uSize))
	.loc 1 153 24 is_stmt 0 view .LVU389
	ldr	r2, [sp, #4]	@ uAddr.8_3, uAddr
@ ../src/config/sama5d29_curiosity/peripheral/mmu/plib_mmu.c:157:         mva += L1_DATA_CACHE_BYTES;
	.loc 1 157 13 view .LVU390
	add	r3, r3, #32	@ mva, mva,
.LVL86:
@ ../src/config/sama5d29_curiosity/peripheral/mmu/plib_mmu.c:153:     while(mva < (uAddr + uSize))
	.loc 1 153 24 view .LVU391
	add	r2, r2, r1	@ tmp121, uAddr.8_3, size
@ ../src/config/sama5d29_curiosity/peripheral/mmu/plib_mmu.c:153:     while(mva < (uAddr + uSize))
	.loc 1 153 10 view .LVU392
	cmp	r2, r3	@ tmp121, mva
	bhi	.L72		@,
.L71:
	.loc 1 159 5 is_stmt 1 view .LVU393
.LBB488:
.LBI488:
	.loc 4 364 51 view .LVU394
.LBB489:
	.loc 4 366 3 view .LVU395
	.syntax divided
@ 366 "C:/Users/M69710/.mchp_packs/ARM/CMSIS/5.9.0/CMSIS/Core_A/Include/cmsis_gcc.h" 1
	dsb 0xF	
@ 0 "" 2
	.arm
	.syntax unified
.LBE489:
.LBE488:
@ ../src/config/sama5d29_curiosity/peripheral/mmu/plib_mmu.c:160: }
	.loc 1 160 1 is_stmt 0 view .LVU396
	add	sp, sp, #8	@,,
.LCFI4:
	.cfi_def_cfa_offset 0
	@ sp needed	@
	bx	lr	@
	.cfi_endproc
.LFE143:
	.size	dcache_InvalidateByAddr, .-dcache_InvalidateByAddr
	.section	.text.dcache_CleanByAddr,code
	.align	2
	.global	dcache_CleanByAddr
	.syntax unified
	.arm
	.fpu neon-vfpv4
	.type	dcache_CleanByAddr, %function
dcache_CleanByAddr:
.LVL87:
.LFB144:
	.loc 1 163 1 is_stmt 1 view -0
	.cfi_startproc
	@ args = 0, pretend = 0, frame = 8
	@ frame_needed = 0, uses_anonymous_args = 0
	@ link register save eliminated.
	.loc 1 164 5 view .LVU398
@ ../src/config/sama5d29_curiosity/peripheral/mmu/plib_mmu.c:163: {
	.loc 1 163 1 is_stmt 0 view .LVU399
	sub	sp, sp, #8	@,,
.LCFI5:
	.cfi_def_cfa_offset 8
@ ../src/config/sama5d29_curiosity/peripheral/mmu/plib_mmu.c:164:     volatile uint32_t uAddr = (volatile uint32_t)((volatile uint32_t*)pAddr);
	.loc 1 164 23 view .LVU400
	str	r0, [sp, #4]	@ pAddr, uAddr
	.loc 1 165 5 is_stmt 1 view .LVU401
.LVL88:
	.loc 1 166 5 view .LVU402
@ ../src/config/sama5d29_curiosity/peripheral/mmu/plib_mmu.c:166:     uint32_t mva = uAddr & ~(L1_DATA_CACHE_BYTES - 1U);
	.loc 1 166 26 is_stmt 0 view .LVU403
	ldr	r3, [sp, #4]	@ uAddr.10_2, uAddr
@ ../src/config/sama5d29_curiosity/peripheral/mmu/plib_mmu.c:168:     while(mva < (uAddr + uSize))
	.loc 1 168 24 view .LVU404
	ldr	r2, [sp, #4]	@ uAddr.11_19, uAddr
@ ../src/config/sama5d29_curiosity/peripheral/mmu/plib_mmu.c:166:     uint32_t mva = uAddr & ~(L1_DATA_CACHE_BYTES - 1U);
	.loc 1 166 14 view .LVU405
	bic	r3, r3, #31	@ mva, uAddr.10_2,
.LVL89:
	.loc 1 168 5 is_stmt 1 view .LVU406
@ ../src/config/sama5d29_curiosity/peripheral/mmu/plib_mmu.c:168:     while(mva < (uAddr + uSize))
	.loc 1 168 24 is_stmt 0 view .LVU407
	add	r2, r1, r2	@ tmp120, size, uAddr.11_19
@ ../src/config/sama5d29_curiosity/peripheral/mmu/plib_mmu.c:168:     while(mva < (uAddr + uSize))
	.loc 1 168 10 view .LVU408
	cmp	r3, r2	@ mva, tmp120
	bcs	.L76		@,
.L77:
	.loc 1 170 9 is_stmt 1 view .LVU409
.LVL90:
.LBB490:
.LBI490:
	.loc 3 417 51 view .LVU410
.LBB491:
	.loc 3 419 3 view .LVU411
	.syntax divided
@ 419 "C:/Users/M69710/.mchp_packs/ARM/CMSIS/5.9.0/CMSIS/Core_A/Include/cmsis_cp15.h" 1
	MCR p15, 0, r3, c7, c10, 1	@ mva
@ 0 "" 2
.LVL91:
	.loc 3 419 3 is_stmt 0 view .LVU412
	.arm
	.syntax unified
.LBE491:
.LBE490:
	.loc 1 171 9 is_stmt 1 view .LVU413
.LBB492:
.LBI492:
	.loc 4 374 51 view .LVU414
.LBB493:
	.loc 4 376 3 view .LVU415
	.syntax divided
@ 376 "C:/Users/M69710/.mchp_packs/ARM/CMSIS/5.9.0/CMSIS/Core_A/Include/cmsis_gcc.h" 1
	dmb 0xF	
@ 0 "" 2
	.arm
	.syntax unified
.LBE493:
.LBE492:
	.loc 1 172 9 view .LVU416
@ ../src/config/sama5d29_curiosity/peripheral/mmu/plib_mmu.c:168:     while(mva < (uAddr + uSize))
	.loc 1 168 24 is_stmt 0 view .LVU417
	ldr	r2, [sp, #4]	@ uAddr.11_3, uAddr
@ ../src/config/sama5d29_curiosity/peripheral/mmu/plib_mmu.c:172:         mva += L1_DATA_CACHE_BYTES;
	.loc 1 172 13 view .LVU418
	add	r3, r3, #32	@ mva, mva,
.LVL92:
@ ../src/config/sama5d29_curiosity/peripheral/mmu/plib_mmu.c:168:     while(mva < (uAddr + uSize))
	.loc 1 168 24 view .LVU419
	add	r2, r2, r1	@ tmp121, uAddr.11_3, size
@ ../src/config/sama5d29_curiosity/peripheral/mmu/plib_mmu.c:168:     while(mva < (uAddr + uSize))
	.loc 1 168 10 view .LVU420
	cmp	r2, r3	@ tmp121, mva
	bhi	.L77		@,
.L76:
	.loc 1 174 5 is_stmt 1 view .LVU421
.LBB494:
.LBI494:
	.loc 4 364 51 view .LVU422
.LBB495:
	.loc 4 366 3 view .LVU423
	.syntax divided
@ 366 "C:/Users/M69710/.mchp_packs/ARM/CMSIS/5.9.0/CMSIS/Core_A/Include/cmsis_gcc.h" 1
	dsb 0xF	
@ 0 "" 2
	.arm
	.syntax unified
.LBE495:
.LBE494:
@ ../src/config/sama5d29_curiosity/peripheral/mmu/plib_mmu.c:175: }
	.loc 1 175 1 is_stmt 0 view .LVU424
	add	sp, sp, #8	@,,
.LCFI6:
	.cfi_def_cfa_offset 0
	@ sp needed	@
	bx	lr	@
	.cfi_endproc
.LFE144:
	.size	dcache_CleanByAddr, .-dcache_CleanByAddr
	.section	.text.dcache_CleanInvalidateByAddr,code
	.align	2
	.global	dcache_CleanInvalidateByAddr
	.syntax unified
	.arm
	.fpu neon-vfpv4
	.type	dcache_CleanInvalidateByAddr, %function
dcache_CleanInvalidateByAddr:
.LVL93:
.LFB145:
	.loc 1 178 1 is_stmt 1 view -0
	.cfi_startproc
	@ args = 0, pretend = 0, frame = 8
	@ frame_needed = 0, uses_anonymous_args = 0
	@ link register save eliminated.
	.loc 1 179 5 view .LVU426
@ ../src/config/sama5d29_curiosity/peripheral/mmu/plib_mmu.c:178: {
	.loc 1 178 1 is_stmt 0 view .LVU427
	sub	sp, sp, #8	@,,
.LCFI7:
	.cfi_def_cfa_offset 8
@ ../src/config/sama5d29_curiosity/peripheral/mmu/plib_mmu.c:179:     volatile uint32_t uAddr = (volatile uint32_t)((volatile uint32_t*)pAddr);
	.loc 1 179 23 view .LVU428
	str	r0, [sp, #4]	@ pAddr, uAddr
	.loc 1 180 5 is_stmt 1 view .LVU429
.LVL94:
	.loc 1 181 5 view .LVU430
@ ../src/config/sama5d29_curiosity/peripheral/mmu/plib_mmu.c:181:     uint32_t mva = uAddr & ~(L1_DATA_CACHE_BYTES - 1U);
	.loc 1 181 26 is_stmt 0 view .LVU431
	ldr	r3, [sp, #4]	@ uAddr.13_2, uAddr
@ ../src/config/sama5d29_curiosity/peripheral/mmu/plib_mmu.c:183:     while(mva < (uAddr + uSize))
	.loc 1 183 24 view .LVU432
	ldr	r2, [sp, #4]	@ uAddr.14_19, uAddr
@ ../src/config/sama5d29_curiosity/peripheral/mmu/plib_mmu.c:181:     uint32_t mva = uAddr & ~(L1_DATA_CACHE_BYTES - 1U);
	.loc 1 181 14 view .LVU433
	bic	r3, r3, #31	@ mva, uAddr.13_2,
.LVL95:
	.loc 1 183 5 is_stmt 1 view .LVU434
@ ../src/config/sama5d29_curiosity/peripheral/mmu/plib_mmu.c:183:     while(mva < (uAddr + uSize))
	.loc 1 183 24 is_stmt 0 view .LVU435
	add	r2, r1, r2	@ tmp120, size, uAddr.14_19
@ ../src/config/sama5d29_curiosity/peripheral/mmu/plib_mmu.c:183:     while(mva < (uAddr + uSize))
	.loc 1 183 10 view .LVU436
	cmp	r3, r2	@ mva, tmp120
	bcs	.L81		@,
.L82:
	.loc 1 185 9 is_stmt 1 view .LVU437
.LVL96:
.LBB496:
.LBI496:
	.loc 3 435 51 view .LVU438
.LBB497:
	.loc 3 437 3 view .LVU439
	.syntax divided
@ 437 "C:/Users/M69710/.mchp_packs/ARM/CMSIS/5.9.0/CMSIS/Core_A/Include/cmsis_cp15.h" 1
	MCR p15, 0, r3, c7, c14, 1	@ mva
@ 0 "" 2
.LVL97:
	.loc 3 437 3 is_stmt 0 view .LVU440
	.arm
	.syntax unified
.LBE497:
.LBE496:
	.loc 1 186 9 is_stmt 1 view .LVU441
.LBB498:
.LBI498:
	.loc 4 374 51 view .LVU442
.LBB499:
	.loc 4 376 3 view .LVU443
	.syntax divided
@ 376 "C:/Users/M69710/.mchp_packs/ARM/CMSIS/5.9.0/CMSIS/Core_A/Include/cmsis_gcc.h" 1
	dmb 0xF	
@ 0 "" 2
	.arm
	.syntax unified
.LBE499:
.LBE498:
	.loc 1 187 9 view .LVU444
@ ../src/config/sama5d29_curiosity/peripheral/mmu/plib_mmu.c:183:     while(mva < (uAddr + uSize))
	.loc 1 183 24 is_stmt 0 view .LVU445
	ldr	r2, [sp, #4]	@ uAddr.14_3, uAddr
@ ../src/config/sama5d29_curiosity/peripheral/mmu/plib_mmu.c:187:         mva += L1_DATA_CACHE_BYTES;
	.loc 1 187 13 view .LVU446
	add	r3, r3, #32	@ mva, mva,
.LVL98:
@ ../src/config/sama5d29_curiosity/peripheral/mmu/plib_mmu.c:183:     while(mva < (uAddr + uSize))
	.loc 1 183 24 view .LVU447
	add	r2, r2, r1	@ tmp121, uAddr.14_3, size
@ ../src/config/sama5d29_curiosity/peripheral/mmu/plib_mmu.c:183:     while(mva < (uAddr + uSize))
	.loc 1 183 10 view .LVU448
	cmp	r2, r3	@ tmp121, mva
	bhi	.L82		@,
.L81:
	.loc 1 189 5 is_stmt 1 view .LVU449
.LBB500:
.LBI500:
	.loc 4 364 51 view .LVU450
.LBB501:
	.loc 4 366 3 view .LVU451
	.syntax divided
@ 366 "C:/Users/M69710/.mchp_packs/ARM/CMSIS/5.9.0/CMSIS/Core_A/Include/cmsis_gcc.h" 1
	dsb 0xF	
@ 0 "" 2
	.arm
	.syntax unified
.LBE501:
.LBE500:
@ ../src/config/sama5d29_curiosity/peripheral/mmu/plib_mmu.c:190: }
	.loc 1 190 1 is_stmt 0 view .LVU452
	add	sp, sp, #8	@,,
.LCFI8:
	.cfi_def_cfa_offset 0
	@ sp needed	@
	bx	lr	@
	.cfi_endproc
.LFE145:
	.size	dcache_CleanInvalidateByAddr, .-dcache_CleanInvalidateByAddr
	.section	.text.dcache_Enable,code
	.align	2
	.global	dcache_Enable
	.syntax unified
	.arm
	.fpu neon-vfpv4
	.type	dcache_Enable, %function
dcache_Enable:
.LFB146:
	.loc 1 193 1 is_stmt 1 view -0
	.cfi_startproc
	@ args = 0, pretend = 0, frame = 0
	@ frame_needed = 0, uses_anonymous_args = 0
	.loc 1 194 5 view .LVU454
.LBB502:
.LBI502:
	.loc 3 188 55 view .LVU455
.LBB503:
	.loc 3 190 3 view .LVU456
	.loc 3 191 3 view .LVU457
.LBE503:
.LBE502:
@ ../src/config/sama5d29_curiosity/peripheral/mmu/plib_mmu.c:193: {
	.loc 1 193 1 is_stmt 0 view .LVU458
	push	{r4, r5, r6, r7, r8, r9, lr}	@
.LCFI9:
	.cfi_def_cfa_offset 28
	.cfi_offset 4, -28
	.cfi_offset 5, -24
	.cfi_offset 6, -20
	.cfi_offset 7, -16
	.cfi_offset 8, -12
	.cfi_offset 9, -8
	.cfi_offset 14, -4
.LBB505:
.LBB504:
@ C:/Users/M69710/.mchp_packs/ARM/CMSIS/5.9.0/CMSIS/Core_A/Include/cmsis_cp15.h:191:   __get_CP(15, 0, result, 1, 0, 0);
	.loc 3 191 3 view .LVU459
	.syntax divided
@ 191 "C:/Users/M69710/.mchp_packs/ARM/CMSIS/5.9.0/CMSIS/Core_A/Include/cmsis_cp15.h" 1
	MRC p15, 0, r5, c1, c0, 0	@ result
@ 0 "" 2
.LVL99:
	.loc 3 192 3 is_stmt 1 view .LVU460
	.loc 3 192 3 is_stmt 0 view .LVU461
	.arm
	.syntax unified
.LBE504:
.LBE505:
	.loc 1 195 5 is_stmt 1 view .LVU462
@ ../src/config/sama5d29_curiosity/peripheral/mmu/plib_mmu.c:195:     if ((sctlr & SCTLR_C_Msk) == 0U)
	.loc 1 195 8 is_stmt 0 view .LVU463
	ands	lr, r5, #4	@ i, result,
	popne	{r4, r5, r6, r7, r8, r9, pc}	@
	.loc 1 197 9 is_stmt 1 view .LVU464
.LBB506:
.LBI506:
	.loc 2 1019 51 view .LVU465
.LBE506:
	.loc 2 1020 3 view .LVU466
.LVL100:
.LBB536:
.LBB507:
.LBI507:
	.loc 2 993 51 view .LVU467
.LBB508:
	.loc 2 994 3 view .LVU468
	.loc 2 995 3 view .LVU469
	.loc 2 996 3 view .LVU470
.LBB509:
.LBI509:
	.loc 3 482 55 view .LVU471
.LBB510:
	.loc 3 484 3 view .LVU472
	.loc 3 486 3 view .LVU473
	.syntax divided
@ 486 "C:/Users/M69710/.mchp_packs/ARM/CMSIS/5.9.0/CMSIS/Core_A/Include/cmsis_cp15.h" 1
	MRC p15, 1, r7, c0, c0, 1	@ result
@ 0 "" 2
.LVL101:
	.loc 3 487 3 view .LVU474
	.loc 3 487 3 is_stmt 0 view .LVU475
	.arm
	.syntax unified
.LBE510:
.LBE509:
	.loc 2 997 3 is_stmt 1 view .LVU476
.LBB511:
	.loc 2 997 7 view .LVU477
@ C:/Users/M69710/.mchp_packs/ARM/CMSIS/5.9.0/CMSIS/Core_A/Include/core_ca.h:999:     cache_type = (clidr >> i*3U) & 0x7UL;
	.loc 2 999 25 is_stmt 0 view .LVU478
	mov	r6, #3	@ tmp145,
.LVL102:
.L95:
	.loc 2 999 5 is_stmt 1 view .LVU479
	.loc 2 1000 5 view .LVU480
@ C:/Users/M69710/.mchp_packs/ARM/CMSIS/5.9.0/CMSIS/Core_A/Include/core_ca.h:999:     cache_type = (clidr >> i*3U) & 0x7UL;
	.loc 2 999 25 is_stmt 0 view .LVU481
	mul	r3, r6, lr	@ tmp144, tmp145, i
	lsr	r3, r7, r3	@ tmp146, result, tmp144
@ C:/Users/M69710/.mchp_packs/ARM/CMSIS/5.9.0/CMSIS/Core_A/Include/core_ca.h:999:     cache_type = (clidr >> i*3U) & 0x7UL;
	.loc 2 999 16 view .LVU482
	and	r3, r3, #7	@ cache_type, tmp146,
@ C:/Users/M69710/.mchp_packs/ARM/CMSIS/5.9.0/CMSIS/Core_A/Include/core_ca.h:1000:     if ((cache_type >= 2U) && (cache_type <= 4U))
	.loc 2 1000 28 view .LVU483
	sub	r3, r3, #2	@ tmp148, cache_type,
@ C:/Users/M69710/.mchp_packs/ARM/CMSIS/5.9.0/CMSIS/Core_A/Include/core_ca.h:1000:     if ((cache_type >= 2U) && (cache_type <= 4U))
	.loc 2 1000 8 view .LVU484
	cmp	r3, #2	@ tmp148,
	bhi	.L88		@,
	.loc 2 1002 7 is_stmt 1 view .LVU485
.LVL103:
.LBB512:
.LBI512:
	.loc 2 950 51 view .LVU486
.LBB513:
	.loc 2 952 3 view .LVU487
	.loc 2 953 3 view .LVU488
	.loc 2 954 3 view .LVU489
	.loc 2 955 3 view .LVU490
	.loc 2 956 3 view .LVU491
	.loc 2 957 3 view .LVU492
	.loc 2 958 4 view .LVU493
	.loc 2 960 3 view .LVU494
	lsl	r4, lr, #1	@ Dummy, i,
.LVL104:
	.loc 2 962 3 view .LVU495
.LBB514:
.LBI514:
	.loc 3 442 51 view .LVU496
.LBB515:
	.loc 3 445 3 view .LVU497
	.syntax divided
@ 445 "C:/Users/M69710/.mchp_packs/ARM/CMSIS/5.9.0/CMSIS/Core_A/Include/cmsis_cp15.h" 1
	MCR p15, 2, r4, c0, c0, 0	@ Dummy
@ 0 "" 2
.LVL105:
	.loc 3 445 3 is_stmt 0 view .LVU498
	.arm
	.syntax unified
.LBE515:
.LBE514:
	.loc 2 964 3 is_stmt 1 view .LVU499
.LBB516:
.LBI516:
	.loc 3 471 55 view .LVU500
.LBB517:
	.loc 3 473 3 view .LVU501
	.loc 3 475 3 view .LVU502
	.syntax divided
@ 475 "C:/Users/M69710/.mchp_packs/ARM/CMSIS/5.9.0/CMSIS/Core_A/Include/cmsis_cp15.h" 1
	MRC p15, 1, r1, c0, c0, 0	@ result
@ 0 "" 2
.LVL106:
	.loc 3 476 3 view .LVU503
	.loc 3 476 3 is_stmt 0 view .LVU504
	.arm
	.syntax unified
.LBE517:
.LBE516:
	.loc 2 965 3 is_stmt 1 view .LVU505
	.loc 2 966 3 view .LVU506
@ C:/Users/M69710/.mchp_packs/ARM/CMSIS/5.9.0/CMSIS/Core_A/Include/core_ca.h:966:   num_ways = ((ccsidr & 0x00001FF8U) >> 3U) + 1U;
	.loc 2 966 38 is_stmt 0 view .LVU507
	ubfx	ip, r1, #3, #10	@ _17, result,,
@ C:/Users/M69710/.mchp_packs/ARM/CMSIS/5.9.0/CMSIS/Core_A/Include/core_ca.h:966:   num_ways = ((ccsidr & 0x00001FF8U) >> 3U) + 1U;
	.loc 2 966 12 view .LVU508
	add	r8, ip, #1	@ num_ways, _17,
.LVL107:
	.loc 2 967 3 is_stmt 1 view .LVU509
	.loc 2 968 3 view .LVU510
.LBB518:
.LBI518:
	.loc 2 930 54 view .LVU511
.LBB519:
	.loc 2 932 3 view .LVU512
@ C:/Users/M69710/.mchp_packs/ARM/CMSIS/5.9.0/CMSIS/Core_A/Include/core_ca.h:932:   if (n < 2U) {
	.loc 2 932 6 is_stmt 0 view .LVU513
	cmp	r8, #1	@ num_ways,
	beq	.L96		@,
	mov	r2, r8	@ t, num_ways
@ C:/Users/M69710/.mchp_packs/ARM/CMSIS/5.9.0/CMSIS/Core_A/Include/core_ca.h:935:   uint8_t log = 0U;
	.loc 2 935 11 view .LVU514
	mov	r0, #0	@ log,
	b	.L90		@
.LVL108:
.L97:
@ C:/Users/M69710/.mchp_packs/ARM/CMSIS/5.9.0/CMSIS/Core_A/Include/core_ca.h:939:     log++;
	.loc 2 939 8 view .LVU515
	mov	r0, r3	@ log, log
.LVL109:
.L90:
	.loc 2 939 5 is_stmt 1 view .LVU516
@ C:/Users/M69710/.mchp_packs/ARM/CMSIS/5.9.0/CMSIS/Core_A/Include/core_ca.h:940:     t >>= 1U;
	.loc 2 940 7 is_stmt 0 view .LVU517
	lsr	r2, r2, #1	@ t, t,
.LVL110:
@ C:/Users/M69710/.mchp_packs/ARM/CMSIS/5.9.0/CMSIS/Core_A/Include/core_ca.h:939:     log++;
	.loc 2 939 8 view .LVU518
	add	r3, r0, #1	@ tmp152, log,
@ C:/Users/M69710/.mchp_packs/ARM/CMSIS/5.9.0/CMSIS/Core_A/Include/core_ca.h:937:   while(t > 1U)
	.loc 2 937 8 view .LVU519
	cmp	r2, #1	@ t,
@ C:/Users/M69710/.mchp_packs/ARM/CMSIS/5.9.0/CMSIS/Core_A/Include/core_ca.h:939:     log++;
	.loc 2 939 8 view .LVU520
	uxtb	r3, r3	@ log, tmp152
.LVL111:
	.loc 2 940 5 is_stmt 1 view .LVU521
@ C:/Users/M69710/.mchp_packs/ARM/CMSIS/5.9.0/CMSIS/Core_A/Include/core_ca.h:937:   while(t > 1U)
	.loc 2 937 8 is_stmt 0 view .LVU522
	bne	.L97		@,
	.loc 2 942 3 is_stmt 1 view .LVU523
@ C:/Users/M69710/.mchp_packs/ARM/CMSIS/5.9.0/CMSIS/Core_A/Include/core_ca.h:942:   if (n & 1U) { log++; }
	.loc 2 942 6 is_stmt 0 view .LVU524
	tst	r8, #1	@ num_ways,
	beq	.L91		@,
	.loc 2 942 17 is_stmt 1 view .LVU525
@ C:/Users/M69710/.mchp_packs/ARM/CMSIS/5.9.0/CMSIS/Core_A/Include/core_ca.h:942:   if (n & 1U) { log++; }
	.loc 2 942 20 is_stmt 0 view .LVU526
	add	r3, r0, #2	@ tmp154, log,
.LVL112:
	.loc 2 942 20 view .LVU527
	uxtb	r3, r3	@ log, tmp154
.LVL113:
.L91:
	.loc 2 942 20 view .LVU528
.LBE519:
.LBE518:
	.loc 2 969 3 is_stmt 1 view .LVU529
@ C:/Users/M69710/.mchp_packs/ARM/CMSIS/5.9.0/CMSIS/Core_A/Include/core_ca.h:969:   if ((log2_num_ways < 0) || (log2_num_ways > 32)) {
	.loc 2 969 6 is_stmt 0 view .LVU530
	cmp	r3, #32	@ log,
	bhi	.L88		@,
	.loc 2 969 6 view .LVU531
	rsb	r8, r3, #32	@ _84, log,
.LVL114:
.L89:
	.loc 2 972 3 is_stmt 1 view .LVU532
	.loc 2 973 3 view .LVU533
.LBB521:
	.loc 2 973 7 view .LVU534
	and	r0, r1, #7	@ tmp163, result,
.LVL115:
	.loc 2 973 7 is_stmt 0 view .LVU535
.LBE521:
@ C:/Users/M69710/.mchp_packs/ARM/CMSIS/5.9.0/CMSIS/Core_A/Include/core_ca.h:967:   log2_linesize = (ccsidr & 0x00000007U) + 2U + 2U;
	.loc 2 967 17 view .LVU536
	add	r0, r0, #4	@ log2_linesize, tmp163,
@ C:/Users/M69710/.mchp_packs/ARM/CMSIS/5.9.0/CMSIS/Core_A/Include/core_ca.h:965:   num_sets = ((ccsidr & 0x0FFFE000U) >> 13U) + 1U;
	.loc 2 965 38 view .LVU537
	ubfx	r9, r1, #13, #15	@ _86, result,,
.LVL116:
.L94:
.LBB527:
	.loc 2 975 5 is_stmt 1 view .LVU538
.LBB522:
	.loc 2 975 9 view .LVU539
	.loc 2 975 9 is_stmt 0 view .LVU540
	orr	r1, r4, ip, lsl r8	@ _69, Dummy, way,
@ C:/Users/M69710/.mchp_packs/ARM/CMSIS/5.9.0/CMSIS/Core_A/Include/core_ca.h:975:     for(int32_t set = num_sets-1; set >= 0; set--)
	.loc 2 975 17 view .LVU541
	mov	r3, r9	@ set, _86
.L93:
.LVL117:
	.loc 2 977 7 is_stmt 1 view .LVU542
	.loc 2 978 7 view .LVU543
	.loc 2 980 18 view .LVU544
.LBB523:
.LBI523:
	.loc 3 492 51 view .LVU545
.LBB524:
	.loc 3 495 3 view .LVU546
.LBE524:
.LBE523:
@ C:/Users/M69710/.mchp_packs/ARM/CMSIS/5.9.0/CMSIS/Core_A/Include/core_ca.h:977:       Dummy = (level << 1U) | (((uint32_t)set) << log2_linesize) | (((uint32_t)way) << shift_way);
	.loc 2 977 13 is_stmt 0 view .LVU547
	orr	r2, r1, r3, lsl r0	@ Dummy, _69, set,
.LBB526:
.LBB525:
@ C:/Users/M69710/.mchp_packs/ARM/CMSIS/5.9.0/CMSIS/Core_A/Include/cmsis_cp15.h:495:   __set_CP(15, 0, value, 7, 6, 2);
	.loc 3 495 3 view .LVU548
	.syntax divided
@ 495 "C:/Users/M69710/.mchp_packs/ARM/CMSIS/5.9.0/CMSIS/Core_A/Include/cmsis_cp15.h" 1
	MCR p15, 0, r2, c7, c6, 2	@ Dummy
@ 0 "" 2
	.arm
	.syntax unified
.LBE525:
.LBE526:
@ C:/Users/M69710/.mchp_packs/ARM/CMSIS/5.9.0/CMSIS/Core_A/Include/core_ca.h:975:     for(int32_t set = num_sets-1; set >= 0; set--)
	.loc 2 975 5 view .LVU549
	subs	r3, r3, #1	@ set, set,
.LVL118:
	.loc 2 975 5 view .LVU550
	bcs	.L93		@,
.LBE522:
@ C:/Users/M69710/.mchp_packs/ARM/CMSIS/5.9.0/CMSIS/Core_A/Include/core_ca.h:973:   for(int32_t way = num_ways-1; way >= 0; way--)
	.loc 2 973 3 view .LVU551
	subs	ip, ip, #1	@ way, way,
.LVL119:
	.loc 2 973 3 view .LVU552
	bcs	.L94		@,
.LBE527:
	.loc 2 986 3 is_stmt 1 view .LVU553
.LBB528:
.LBI528:
	.loc 4 374 51 view .LVU554
.LBB529:
	.loc 4 376 3 view .LVU555
	.syntax divided
@ 376 "C:/Users/M69710/.mchp_packs/ARM/CMSIS/5.9.0/CMSIS/Core_A/Include/cmsis_gcc.h" 1
	dmb 0xF	
@ 0 "" 2
.LVL120:
	.arm
	.syntax unified
.L88:
	.loc 4 376 3 is_stmt 0 view .LVU556
.LBE529:
.LBE528:
.LBE513:
.LBE512:
@ C:/Users/M69710/.mchp_packs/ARM/CMSIS/5.9.0/CMSIS/Core_A/Include/core_ca.h:997:   for(uint32_t i = 0U; i<7U; i++)
	.loc 2 997 31 view .LVU557
	add	lr, lr, #1	@ i, i,
.LVL121:
@ C:/Users/M69710/.mchp_packs/ARM/CMSIS/5.9.0/CMSIS/Core_A/Include/core_ca.h:997:   for(uint32_t i = 0U; i<7U; i++)
	.loc 2 997 3 view .LVU558
	cmp	lr, #7	@ i,
	bne	.L95		@,
.LVL122:
	.loc 2 997 3 view .LVU559
.LBE511:
.LBE508:
.LBE507:
.LBE536:
	.loc 1 198 9 is_stmt 1 view .LVU560
.LBB537:
.LBI537:
	.loc 3 180 51 view .LVU561
.LBB538:
	.loc 3 182 3 view .LVU562
.LBE538:
.LBE537:
@ ../src/config/sama5d29_curiosity/peripheral/mmu/plib_mmu.c:198:         __set_SCTLR(sctlr | SCTLR_C_Msk);
	.loc 1 198 9 is_stmt 0 view .LVU563
	orr	r5, r5, #4	@ tmp162, result,
.LVL123:
.LBB540:
.LBB539:
@ C:/Users/M69710/.mchp_packs/ARM/CMSIS/5.9.0/CMSIS/Core_A/Include/cmsis_cp15.h:182:   __set_CP(15, 0, sctlr, 1, 0, 0);
	.loc 3 182 3 view .LVU564
	.syntax divided
@ 182 "C:/Users/M69710/.mchp_packs/ARM/CMSIS/5.9.0/CMSIS/Core_A/Include/cmsis_cp15.h" 1
	MCR p15, 0, r5, c1, c0, 0	@ tmp162
@ 0 "" 2
	.arm
	.syntax unified
.LBE539:
.LBE540:
@ ../src/config/sama5d29_curiosity/peripheral/mmu/plib_mmu.c:200: }
	.loc 1 200 1 view .LVU565
	pop	{r4, r5, r6, r7, r8, r9, pc}	@
.LVL124:
.L96:
.LBB541:
.LBB535:
.LBB534:
.LBB533:
.LBB532:
.LBB531:
.LBB530:
.LBB520:
@ C:/Users/M69710/.mchp_packs/ARM/CMSIS/5.9.0/CMSIS/Core_A/Include/core_ca.h:932:   if (n < 2U) {
	.loc 2 932 6 view .LVU566
	mov	r8, #32	@ _84,
.LVL125:
	.loc 2 932 6 view .LVU567
	b	.L89		@
.LBE520:
.LBE530:
.LBE531:
.LBE532:
.LBE533:
.LBE534:
.LBE535:
.LBE541:
	.cfi_endproc
.LFE146:
	.size	dcache_Enable, .-dcache_Enable
	.section	.text.dcache_Disable,code
	.align	2
	.global	dcache_Disable
	.syntax unified
	.arm
	.fpu neon-vfpv4
	.type	dcache_Disable, %function
dcache_Disable:
.LFB147:
	.loc 1 203 1 is_stmt 1 view -0
	.cfi_startproc
	@ args = 0, pretend = 0, frame = 0
	@ frame_needed = 0, uses_anonymous_args = 0
	.loc 1 204 5 view .LVU569
.LBB542:
.LBI542:
	.loc 3 188 55 view .LVU570
.LBB543:
	.loc 3 190 3 view .LVU571
	.loc 3 191 3 view .LVU572
.LBE543:
.LBE542:
@ ../src/config/sama5d29_curiosity/peripheral/mmu/plib_mmu.c:203: {
	.loc 1 203 1 is_stmt 0 view .LVU573
	push	{r4, r5, r6, r7, r8, r9, lr}	@
.LCFI10:
	.cfi_def_cfa_offset 28
	.cfi_offset 4, -28
	.cfi_offset 5, -24
	.cfi_offset 6, -20
	.cfi_offset 7, -16
	.cfi_offset 8, -12
	.cfi_offset 9, -8
	.cfi_offset 14, -4
.LBB545:
.LBB544:
@ C:/Users/M69710/.mchp_packs/ARM/CMSIS/5.9.0/CMSIS/Core_A/Include/cmsis_cp15.h:191:   __get_CP(15, 0, result, 1, 0, 0);
	.loc 3 191 3 view .LVU574
	.syntax divided
@ 191 "C:/Users/M69710/.mchp_packs/ARM/CMSIS/5.9.0/CMSIS/Core_A/Include/cmsis_cp15.h" 1
	MRC p15, 0, r7, c1, c0, 0	@ result
@ 0 "" 2
.LVL126:
	.loc 3 192 3 is_stmt 1 view .LVU575
	.loc 3 192 3 is_stmt 0 view .LVU576
	.arm
	.syntax unified
.LBE544:
.LBE545:
	.loc 1 205 5 is_stmt 1 view .LVU577
@ ../src/config/sama5d29_curiosity/peripheral/mmu/plib_mmu.c:205:     if ((sctlr & SCTLR_C_Msk) != 0U)
	.loc 1 205 8 is_stmt 0 view .LVU578
	tst	r7, #4	@ result,
	popeq	{r4, r5, r6, r7, r8, r9, pc}	@
	.loc 1 207 9 is_stmt 1 view .LVU579
.LBB546:
.LBI546:
	.loc 2 1025 51 view .LVU580
.LBE546:
	.loc 2 1026 3 view .LVU581
.LVL127:
.LBB576:
.LBB547:
.LBI547:
	.loc 2 993 51 view .LVU582
.LBB548:
	.loc 2 994 3 view .LVU583
	.loc 2 995 3 view .LVU584
	.loc 2 996 3 view .LVU585
.LBB549:
.LBI549:
	.loc 3 482 55 view .LVU586
.LBB550:
	.loc 3 484 3 view .LVU587
	.loc 3 486 3 view .LVU588
	.syntax divided
@ 486 "C:/Users/M69710/.mchp_packs/ARM/CMSIS/5.9.0/CMSIS/Core_A/Include/cmsis_cp15.h" 1
	MRC p15, 1, r6, c0, c0, 1	@ result
@ 0 "" 2
.LVL128:
	.loc 3 487 3 view .LVU589
	.loc 3 487 3 is_stmt 0 view .LVU590
	.arm
	.syntax unified
.LBE550:
.LBE549:
	.loc 2 997 3 is_stmt 1 view .LVU591
.LBB551:
	.loc 2 997 7 view .LVU592
@ C:/Users/M69710/.mchp_packs/ARM/CMSIS/5.9.0/CMSIS/Core_A/Include/core_ca.h:997:   for(uint32_t i = 0U; i<7U; i++)
	.loc 2 997 16 is_stmt 0 view .LVU593
	mov	lr, #0	@ i,
@ C:/Users/M69710/.mchp_packs/ARM/CMSIS/5.9.0/CMSIS/Core_A/Include/core_ca.h:999:     cache_type = (clidr >> i*3U) & 0x7UL;
	.loc 2 999 25 view .LVU594
	mov	r5, #3	@ tmp177,
.LVL129:
.L115:
	.loc 2 999 5 is_stmt 1 view .LVU595
	.loc 2 1000 5 view .LVU596
@ C:/Users/M69710/.mchp_packs/ARM/CMSIS/5.9.0/CMSIS/Core_A/Include/core_ca.h:999:     cache_type = (clidr >> i*3U) & 0x7UL;
	.loc 2 999 25 is_stmt 0 view .LVU597
	mul	r3, r5, lr	@ tmp176, tmp177, i
	lsr	r3, r6, r3	@ tmp178, result, tmp176
@ C:/Users/M69710/.mchp_packs/ARM/CMSIS/5.9.0/CMSIS/Core_A/Include/core_ca.h:999:     cache_type = (clidr >> i*3U) & 0x7UL;
	.loc 2 999 16 view .LVU598
	and	r3, r3, #7	@ cache_type, tmp178,
@ C:/Users/M69710/.mchp_packs/ARM/CMSIS/5.9.0/CMSIS/Core_A/Include/core_ca.h:1000:     if ((cache_type >= 2U) && (cache_type <= 4U))
	.loc 2 1000 28 view .LVU599
	sub	r3, r3, #2	@ tmp180, cache_type,
@ C:/Users/M69710/.mchp_packs/ARM/CMSIS/5.9.0/CMSIS/Core_A/Include/core_ca.h:1000:     if ((cache_type >= 2U) && (cache_type <= 4U))
	.loc 2 1000 8 view .LVU600
	cmp	r3, #2	@ tmp180,
	bhi	.L108		@,
	.loc 2 1002 7 is_stmt 1 view .LVU601
.LVL130:
.LBB552:
.LBI552:
	.loc 2 950 51 view .LVU602
.LBB553:
	.loc 2 952 3 view .LVU603
	.loc 2 953 3 view .LVU604
	.loc 2 954 3 view .LVU605
	.loc 2 955 3 view .LVU606
	.loc 2 956 3 view .LVU607
	.loc 2 957 3 view .LVU608
	.loc 2 958 4 view .LVU609
	.loc 2 960 3 view .LVU610
	lsl	r4, lr, #1	@ Dummy, i,
.LVL131:
	.loc 2 962 3 view .LVU611
.LBB554:
.LBI554:
	.loc 3 442 51 view .LVU612
.LBB555:
	.loc 3 445 3 view .LVU613
	.syntax divided
@ 445 "C:/Users/M69710/.mchp_packs/ARM/CMSIS/5.9.0/CMSIS/Core_A/Include/cmsis_cp15.h" 1
	MCR p15, 2, r4, c0, c0, 0	@ Dummy
@ 0 "" 2
.LVL132:
	.loc 3 445 3 is_stmt 0 view .LVU614
	.arm
	.syntax unified
.LBE555:
.LBE554:
	.loc 2 964 3 is_stmt 1 view .LVU615
.LBB556:
.LBI556:
	.loc 3 471 55 view .LVU616
.LBB557:
	.loc 3 473 3 view .LVU617
	.loc 3 475 3 view .LVU618
	.syntax divided
@ 475 "C:/Users/M69710/.mchp_packs/ARM/CMSIS/5.9.0/CMSIS/Core_A/Include/cmsis_cp15.h" 1
	MRC p15, 1, r1, c0, c0, 0	@ result
@ 0 "" 2
.LVL133:
	.loc 3 476 3 view .LVU619
	.loc 3 476 3 is_stmt 0 view .LVU620
	.arm
	.syntax unified
.LBE557:
.LBE556:
	.loc 2 965 3 is_stmt 1 view .LVU621
	.loc 2 966 3 view .LVU622
@ C:/Users/M69710/.mchp_packs/ARM/CMSIS/5.9.0/CMSIS/Core_A/Include/core_ca.h:966:   num_ways = ((ccsidr & 0x00001FF8U) >> 3U) + 1U;
	.loc 2 966 38 is_stmt 0 view .LVU623
	ubfx	ip, r1, #3, #10	@ _56, result,,
@ C:/Users/M69710/.mchp_packs/ARM/CMSIS/5.9.0/CMSIS/Core_A/Include/core_ca.h:966:   num_ways = ((ccsidr & 0x00001FF8U) >> 3U) + 1U;
	.loc 2 966 12 view .LVU624
	add	r8, ip, #1	@ num_ways, _56,
.LVL134:
	.loc 2 967 3 is_stmt 1 view .LVU625
	.loc 2 968 3 view .LVU626
.LBB558:
.LBI558:
	.loc 2 930 54 view .LVU627
.LBB559:
	.loc 2 932 3 view .LVU628
@ C:/Users/M69710/.mchp_packs/ARM/CMSIS/5.9.0/CMSIS/Core_A/Include/core_ca.h:932:   if (n < 2U) {
	.loc 2 932 6 is_stmt 0 view .LVU629
	cmp	r8, #1	@ num_ways,
	beq	.L126		@,
	mov	r2, r8	@ t, num_ways
@ C:/Users/M69710/.mchp_packs/ARM/CMSIS/5.9.0/CMSIS/Core_A/Include/core_ca.h:935:   uint8_t log = 0U;
	.loc 2 935 11 view .LVU630
	mov	r0, #0	@ log,
	b	.L110		@
.LVL135:
.L127:
@ C:/Users/M69710/.mchp_packs/ARM/CMSIS/5.9.0/CMSIS/Core_A/Include/core_ca.h:939:     log++;
	.loc 2 939 8 view .LVU631
	mov	r0, r3	@ log, log
.LVL136:
.L110:
	.loc 2 939 5 is_stmt 1 view .LVU632
@ C:/Users/M69710/.mchp_packs/ARM/CMSIS/5.9.0/CMSIS/Core_A/Include/core_ca.h:940:     t >>= 1U;
	.loc 2 940 7 is_stmt 0 view .LVU633
	lsr	r2, r2, #1	@ t, t,
.LVL137:
@ C:/Users/M69710/.mchp_packs/ARM/CMSIS/5.9.0/CMSIS/Core_A/Include/core_ca.h:939:     log++;
	.loc 2 939 8 view .LVU634
	add	r3, r0, #1	@ tmp184, log,
@ C:/Users/M69710/.mchp_packs/ARM/CMSIS/5.9.0/CMSIS/Core_A/Include/core_ca.h:937:   while(t > 1U)
	.loc 2 937 8 view .LVU635
	cmp	r2, #1	@ t,
@ C:/Users/M69710/.mchp_packs/ARM/CMSIS/5.9.0/CMSIS/Core_A/Include/core_ca.h:939:     log++;
	.loc 2 939 8 view .LVU636
	uxtb	r3, r3	@ log, tmp184
.LVL138:
	.loc 2 940 5 is_stmt 1 view .LVU637
@ C:/Users/M69710/.mchp_packs/ARM/CMSIS/5.9.0/CMSIS/Core_A/Include/core_ca.h:937:   while(t > 1U)
	.loc 2 937 8 is_stmt 0 view .LVU638
	bne	.L127		@,
	.loc 2 942 3 is_stmt 1 view .LVU639
@ C:/Users/M69710/.mchp_packs/ARM/CMSIS/5.9.0/CMSIS/Core_A/Include/core_ca.h:942:   if (n & 1U) { log++; }
	.loc 2 942 6 is_stmt 0 view .LVU640
	tst	r8, #1	@ num_ways,
	beq	.L111		@,
	.loc 2 942 17 is_stmt 1 view .LVU641
@ C:/Users/M69710/.mchp_packs/ARM/CMSIS/5.9.0/CMSIS/Core_A/Include/core_ca.h:942:   if (n & 1U) { log++; }
	.loc 2 942 20 is_stmt 0 view .LVU642
	add	r3, r0, #2	@ tmp186, log,
.LVL139:
	.loc 2 942 20 view .LVU643
	uxtb	r3, r3	@ log, tmp186
.LVL140:
.L111:
	.loc 2 942 20 view .LVU644
.LBE559:
.LBE558:
	.loc 2 969 3 is_stmt 1 view .LVU645
@ C:/Users/M69710/.mchp_packs/ARM/CMSIS/5.9.0/CMSIS/Core_A/Include/core_ca.h:969:   if ((log2_num_ways < 0) || (log2_num_ways > 32)) {
	.loc 2 969 6 is_stmt 0 view .LVU646
	cmp	r3, #32	@ log,
	bhi	.L108		@,
	.loc 2 969 6 view .LVU647
	rsb	r8, r3, #32	@ _168, log,
.LVL141:
.L109:
	.loc 2 972 3 is_stmt 1 view .LVU648
	.loc 2 973 3 view .LVU649
.LBB561:
	.loc 2 973 7 view .LVU650
	and	r0, r1, #7	@ tmp215, result,
.LVL142:
	.loc 2 973 7 is_stmt 0 view .LVU651
.LBE561:
@ C:/Users/M69710/.mchp_packs/ARM/CMSIS/5.9.0/CMSIS/Core_A/Include/core_ca.h:967:   log2_linesize = (ccsidr & 0x00000007U) + 2U + 2U;
	.loc 2 967 17 view .LVU652
	add	r0, r0, #4	@ log2_linesize, tmp215,
@ C:/Users/M69710/.mchp_packs/ARM/CMSIS/5.9.0/CMSIS/Core_A/Include/core_ca.h:965:   num_sets = ((ccsidr & 0x0FFFE000U) >> 13U) + 1U;
	.loc 2 965 38 view .LVU653
	ubfx	r9, r1, #13, #15	@ _170, result,,
.LVL143:
.L114:
.LBB567:
	.loc 2 975 5 is_stmt 1 view .LVU654
.LBB562:
	.loc 2 975 9 view .LVU655
	.loc 2 975 9 is_stmt 0 view .LVU656
	orr	r1, r4, ip, lsl r8	@ _135, Dummy, way,
@ C:/Users/M69710/.mchp_packs/ARM/CMSIS/5.9.0/CMSIS/Core_A/Include/core_ca.h:975:     for(int32_t set = num_sets-1; set >= 0; set--)
	.loc 2 975 17 view .LVU657
	mov	r3, r9	@ set, _170
.L113:
.LVL144:
	.loc 2 977 7 is_stmt 1 view .LVU658
	.loc 2 978 7 view .LVU659
	.loc 2 981 18 view .LVU660
.LBB563:
.LBI563:
	.loc 3 500 51 view .LVU661
.LBB564:
	.loc 3 503 3 view .LVU662
.LBE564:
.LBE563:
@ C:/Users/M69710/.mchp_packs/ARM/CMSIS/5.9.0/CMSIS/Core_A/Include/core_ca.h:977:       Dummy = (level << 1U) | (((uint32_t)set) << log2_linesize) | (((uint32_t)way) << shift_way);
	.loc 2 977 13 is_stmt 0 view .LVU663
	orr	r2, r1, r3, lsl r0	@ Dummy, _135, set,
.LBB566:
.LBB565:
@ C:/Users/M69710/.mchp_packs/ARM/CMSIS/5.9.0/CMSIS/Core_A/Include/cmsis_cp15.h:503:   __set_CP(15, 0, value, 7, 10, 2);
	.loc 3 503 3 view .LVU664
	.syntax divided
@ 503 "C:/Users/M69710/.mchp_packs/ARM/CMSIS/5.9.0/CMSIS/Core_A/Include/cmsis_cp15.h" 1
	MCR p15, 0, r2, c7, c10, 2	@ Dummy
@ 0 "" 2
	.arm
	.syntax unified
.LBE565:
.LBE566:
@ C:/Users/M69710/.mchp_packs/ARM/CMSIS/5.9.0/CMSIS/Core_A/Include/core_ca.h:975:     for(int32_t set = num_sets-1; set >= 0; set--)
	.loc 2 975 5 view .LVU665
	subs	r3, r3, #1	@ set, set,
.LVL145:
	.loc 2 975 5 view .LVU666
	bcs	.L113		@,
.LBE562:
@ C:/Users/M69710/.mchp_packs/ARM/CMSIS/5.9.0/CMSIS/Core_A/Include/core_ca.h:973:   for(int32_t way = num_ways-1; way >= 0; way--)
	.loc 2 973 3 view .LVU667
	subs	ip, ip, #1	@ way, way,
.LVL146:
	.loc 2 973 3 view .LVU668
	bcs	.L114		@,
.LBE567:
	.loc 2 986 3 is_stmt 1 view .LVU669
.LBB568:
.LBI568:
	.loc 4 374 51 view .LVU670
.LBB569:
	.loc 4 376 3 view .LVU671
	.syntax divided
@ 376 "C:/Users/M69710/.mchp_packs/ARM/CMSIS/5.9.0/CMSIS/Core_A/Include/cmsis_gcc.h" 1
	dmb 0xF	
@ 0 "" 2
.LVL147:
	.arm
	.syntax unified
.L108:
	.loc 4 376 3 is_stmt 0 view .LVU672
.LBE569:
.LBE568:
.LBE553:
.LBE552:
@ C:/Users/M69710/.mchp_packs/ARM/CMSIS/5.9.0/CMSIS/Core_A/Include/core_ca.h:997:   for(uint32_t i = 0U; i<7U; i++)
	.loc 2 997 31 view .LVU673
	add	lr, lr, #1	@ i, i,
.LVL148:
@ C:/Users/M69710/.mchp_packs/ARM/CMSIS/5.9.0/CMSIS/Core_A/Include/core_ca.h:997:   for(uint32_t i = 0U; i<7U; i++)
	.loc 2 997 3 view .LVU674
	cmp	lr, #7	@ i,
	bne	.L115		@,
.LVL149:
	.loc 2 997 3 view .LVU675
.LBE551:
.LBE548:
.LBE547:
.LBE576:
	.loc 1 208 9 is_stmt 1 view .LVU676
.LBB577:
.LBI577:
	.loc 3 180 51 view .LVU677
.LBB578:
	.loc 3 182 3 view .LVU678
.LBE578:
.LBE577:
@ ../src/config/sama5d29_curiosity/peripheral/mmu/plib_mmu.c:208:         __set_SCTLR(sctlr & ~SCTLR_C_Msk);
	.loc 1 208 9 is_stmt 0 view .LVU679
	bic	r7, r7, #4	@ tmp194, result,
.LVL150:
.LBB580:
.LBB579:
@ C:/Users/M69710/.mchp_packs/ARM/CMSIS/5.9.0/CMSIS/Core_A/Include/cmsis_cp15.h:182:   __set_CP(15, 0, sctlr, 1, 0, 0);
	.loc 3 182 3 view .LVU680
	.syntax divided
@ 182 "C:/Users/M69710/.mchp_packs/ARM/CMSIS/5.9.0/CMSIS/Core_A/Include/cmsis_cp15.h" 1
	MCR p15, 0, r7, c1, c0, 0	@ tmp194
@ 0 "" 2
.LVL151:
	.loc 3 182 3 view .LVU681
	.arm
	.syntax unified
.LBE579:
.LBE580:
	.loc 1 209 9 is_stmt 1 view .LVU682
.LBB581:
.LBI581:
	.loc 2 1019 51 view .LVU683
.LBE581:
	.loc 2 1020 3 view .LVU684
.LBB608:
.LBB582:
.LBI582:
	.loc 2 993 51 view .LVU685
.LBB583:
	.loc 2 994 3 view .LVU686
	.loc 2 995 3 view .LVU687
	.loc 2 996 3 view .LVU688
.LBB584:
.LBI584:
	.loc 3 482 55 view .LVU689
.LBB585:
	.loc 3 484 3 view .LVU690
	.loc 3 486 3 view .LVU691
	.syntax divided
@ 486 "C:/Users/M69710/.mchp_packs/ARM/CMSIS/5.9.0/CMSIS/Core_A/Include/cmsis_cp15.h" 1
	MRC p15, 1, r7, c0, c0, 1	@ result
@ 0 "" 2
.LVL152:
	.loc 3 487 3 view .LVU692
	.loc 3 487 3 is_stmt 0 view .LVU693
	.arm
	.syntax unified
.LBE585:
.LBE584:
	.loc 2 997 3 is_stmt 1 view .LVU694
.LBB586:
	.loc 2 997 7 view .LVU695
@ C:/Users/M69710/.mchp_packs/ARM/CMSIS/5.9.0/CMSIS/Core_A/Include/core_ca.h:997:   for(uint32_t i = 0U; i<7U; i++)
	.loc 2 997 16 is_stmt 0 view .LVU696
	mov	r4, #0	@ i,
@ C:/Users/M69710/.mchp_packs/ARM/CMSIS/5.9.0/CMSIS/Core_A/Include/core_ca.h:999:     cache_type = (clidr >> i*3U) & 0x7UL;
	.loc 2 999 25 view .LVU697
	mov	r6, #3	@ tmp197,
.LVL153:
.L124:
	.loc 2 999 5 is_stmt 1 view .LVU698
	.loc 2 1000 5 view .LVU699
@ C:/Users/M69710/.mchp_packs/ARM/CMSIS/5.9.0/CMSIS/Core_A/Include/core_ca.h:999:     cache_type = (clidr >> i*3U) & 0x7UL;
	.loc 2 999 25 is_stmt 0 view .LVU700
	mul	r3, r6, r4	@ tmp196, tmp197, i
	lsr	r3, r7, r3	@ tmp198, result, tmp196
@ C:/Users/M69710/.mchp_packs/ARM/CMSIS/5.9.0/CMSIS/Core_A/Include/core_ca.h:999:     cache_type = (clidr >> i*3U) & 0x7UL;
	.loc 2 999 16 view .LVU701
	and	r3, r3, #7	@ cache_type, tmp198,
@ C:/Users/M69710/.mchp_packs/ARM/CMSIS/5.9.0/CMSIS/Core_A/Include/core_ca.h:1000:     if ((cache_type >= 2U) && (cache_type <= 4U))
	.loc 2 1000 28 view .LVU702
	sub	r3, r3, #2	@ tmp200, cache_type,
@ C:/Users/M69710/.mchp_packs/ARM/CMSIS/5.9.0/CMSIS/Core_A/Include/core_ca.h:1000:     if ((cache_type >= 2U) && (cache_type <= 4U))
	.loc 2 1000 8 view .LVU703
	cmp	r3, #2	@ tmp200,
	bhi	.L117		@,
	.loc 2 1002 7 is_stmt 1 view .LVU704
.LVL154:
.LBB587:
.LBI587:
	.loc 2 950 51 view .LVU705
.LBB588:
	.loc 2 952 3 view .LVU706
	.loc 2 953 3 view .LVU707
	.loc 2 954 3 view .LVU708
	.loc 2 955 3 view .LVU709
	.loc 2 956 3 view .LVU710
	.loc 2 957 3 view .LVU711
	.loc 2 958 4 view .LVU712
	.loc 2 960 3 view .LVU713
	lsl	r5, r4, #1	@ Dummy, i,
.LVL155:
	.loc 2 962 3 view .LVU714
.LBB589:
.LBI589:
	.loc 3 442 51 view .LVU715
.LBB590:
	.loc 3 445 3 view .LVU716
	.syntax divided
@ 445 "C:/Users/M69710/.mchp_packs/ARM/CMSIS/5.9.0/CMSIS/Core_A/Include/cmsis_cp15.h" 1
	MCR p15, 2, r5, c0, c0, 0	@ Dummy
@ 0 "" 2
.LVL156:
	.loc 3 445 3 is_stmt 0 view .LVU717
	.arm
	.syntax unified
.LBE590:
.LBE589:
	.loc 2 964 3 is_stmt 1 view .LVU718
.LBB591:
.LBI591:
	.loc 3 471 55 view .LVU719
.LBB592:
	.loc 3 473 3 view .LVU720
	.loc 3 475 3 view .LVU721
	.syntax divided
@ 475 "C:/Users/M69710/.mchp_packs/ARM/CMSIS/5.9.0/CMSIS/Core_A/Include/cmsis_cp15.h" 1
	MRC p15, 1, r8, c0, c0, 0	@ result
@ 0 "" 2
.LVL157:
	.loc 3 476 3 view .LVU722
	.loc 3 476 3 is_stmt 0 view .LVU723
	.arm
	.syntax unified
.LBE592:
.LBE591:
	.loc 2 965 3 is_stmt 1 view .LVU724
	.loc 2 966 3 view .LVU725
@ C:/Users/M69710/.mchp_packs/ARM/CMSIS/5.9.0/CMSIS/Core_A/Include/core_ca.h:966:   num_ways = ((ccsidr & 0x00001FF8U) >> 3U) + 1U;
	.loc 2 966 38 is_stmt 0 view .LVU726
	ubfx	lr, r8, #3, #10	@ _17, result,,
@ C:/Users/M69710/.mchp_packs/ARM/CMSIS/5.9.0/CMSIS/Core_A/Include/core_ca.h:966:   num_ways = ((ccsidr & 0x00001FF8U) >> 3U) + 1U;
	.loc 2 966 12 view .LVU727
	add	r0, lr, #1	@ num_ways, _17,
.LVL158:
	.loc 2 967 3 is_stmt 1 view .LVU728
	.loc 2 968 3 view .LVU729
.LBB593:
.LBI593:
	.loc 2 930 54 view .LVU730
.LBB594:
	.loc 2 932 3 view .LVU731
@ C:/Users/M69710/.mchp_packs/ARM/CMSIS/5.9.0/CMSIS/Core_A/Include/core_ca.h:932:   if (n < 2U) {
	.loc 2 932 6 is_stmt 0 view .LVU732
	cmp	r0, #1	@ num_ways,
	beq	.L128		@,
	mov	r2, r0	@ t, num_ways
@ C:/Users/M69710/.mchp_packs/ARM/CMSIS/5.9.0/CMSIS/Core_A/Include/core_ca.h:935:   uint8_t log = 0U;
	.loc 2 935 11 view .LVU733
	mov	r1, #0	@ log,
	b	.L119		@
.LVL159:
.L129:
@ C:/Users/M69710/.mchp_packs/ARM/CMSIS/5.9.0/CMSIS/Core_A/Include/core_ca.h:939:     log++;
	.loc 2 939 8 view .LVU734
	mov	r1, r3	@ log, log
.LVL160:
.L119:
	.loc 2 939 5 is_stmt 1 view .LVU735
@ C:/Users/M69710/.mchp_packs/ARM/CMSIS/5.9.0/CMSIS/Core_A/Include/core_ca.h:940:     t >>= 1U;
	.loc 2 940 7 is_stmt 0 view .LVU736
	lsr	r2, r2, #1	@ t, t,
.LVL161:
@ C:/Users/M69710/.mchp_packs/ARM/CMSIS/5.9.0/CMSIS/Core_A/Include/core_ca.h:939:     log++;
	.loc 2 939 8 view .LVU737
	add	r3, r1, #1	@ tmp204, log,
@ C:/Users/M69710/.mchp_packs/ARM/CMSIS/5.9.0/CMSIS/Core_A/Include/core_ca.h:937:   while(t > 1U)
	.loc 2 937 8 view .LVU738
	cmp	r2, #1	@ t,
@ C:/Users/M69710/.mchp_packs/ARM/CMSIS/5.9.0/CMSIS/Core_A/Include/core_ca.h:939:     log++;
	.loc 2 939 8 view .LVU739
	uxtb	r3, r3	@ log, tmp204
.LVL162:
	.loc 2 940 5 is_stmt 1 view .LVU740
@ C:/Users/M69710/.mchp_packs/ARM/CMSIS/5.9.0/CMSIS/Core_A/Include/core_ca.h:937:   while(t > 1U)
	.loc 2 937 8 is_stmt 0 view .LVU741
	bne	.L129		@,
	.loc 2 942 3 is_stmt 1 view .LVU742
@ C:/Users/M69710/.mchp_packs/ARM/CMSIS/5.9.0/CMSIS/Core_A/Include/core_ca.h:942:   if (n & 1U) { log++; }
	.loc 2 942 6 is_stmt 0 view .LVU743
	tst	r0, #1	@ num_ways,
	beq	.L120		@,
	.loc 2 942 17 is_stmt 1 view .LVU744
@ C:/Users/M69710/.mchp_packs/ARM/CMSIS/5.9.0/CMSIS/Core_A/Include/core_ca.h:942:   if (n & 1U) { log++; }
	.loc 2 942 20 is_stmt 0 view .LVU745
	add	r3, r1, #2	@ tmp206, log,
.LVL163:
	.loc 2 942 20 view .LVU746
	uxtb	r3, r3	@ log, tmp206
.LVL164:
.L120:
	.loc 2 942 20 view .LVU747
.LBE594:
.LBE593:
	.loc 2 969 3 is_stmt 1 view .LVU748
@ C:/Users/M69710/.mchp_packs/ARM/CMSIS/5.9.0/CMSIS/Core_A/Include/core_ca.h:969:   if ((log2_num_ways < 0) || (log2_num_ways > 32)) {
	.loc 2 969 6 is_stmt 0 view .LVU749
	cmp	r3, #32	@ log,
	bhi	.L117		@,
	.loc 2 969 6 view .LVU750
	rsb	ip, r3, #32	@ prephitmp_104, log,
.LVL165:
.L118:
	.loc 2 972 3 is_stmt 1 view .LVU751
	.loc 2 973 3 view .LVU752
.LBB596:
	.loc 2 973 7 view .LVU753
	and	r0, r8, #7	@ tmp214, result,
.LVL166:
	.loc 2 973 7 is_stmt 0 view .LVU754
.LBE596:
@ C:/Users/M69710/.mchp_packs/ARM/CMSIS/5.9.0/CMSIS/Core_A/Include/core_ca.h:967:   log2_linesize = (ccsidr & 0x00000007U) + 2U + 2U;
	.loc 2 967 17 view .LVU755
	add	r0, r0, #4	@ log2_linesize, tmp214,
@ C:/Users/M69710/.mchp_packs/ARM/CMSIS/5.9.0/CMSIS/Core_A/Include/core_ca.h:965:   num_sets = ((ccsidr & 0x0FFFE000U) >> 13U) + 1U;
	.loc 2 965 38 view .LVU756
	ubfx	r8, r8, #13, #15	@ _154, result,,
.LVL167:
.L123:
.LBB602:
	.loc 2 975 5 is_stmt 1 view .LVU757
.LBB597:
	.loc 2 975 9 view .LVU758
	.loc 2 975 9 is_stmt 0 view .LVU759
	orr	r1, r5, lr, lsl ip	@ _134, Dummy, way,
@ C:/Users/M69710/.mchp_packs/ARM/CMSIS/5.9.0/CMSIS/Core_A/Include/core_ca.h:975:     for(int32_t set = num_sets-1; set >= 0; set--)
	.loc 2 975 17 view .LVU760
	mov	r3, r8	@ set, _154
.L122:
.LVL168:
	.loc 2 977 7 is_stmt 1 view .LVU761
	.loc 2 978 7 view .LVU762
	.loc 2 980 18 view .LVU763
.LBB598:
.LBI598:
	.loc 3 492 51 view .LVU764
.LBB599:
	.loc 3 495 3 view .LVU765
.LBE599:
.LBE598:
@ C:/Users/M69710/.mchp_packs/ARM/CMSIS/5.9.0/CMSIS/Core_A/Include/core_ca.h:977:       Dummy = (level << 1U) | (((uint32_t)set) << log2_linesize) | (((uint32_t)way) << shift_way);
	.loc 2 977 13 is_stmt 0 view .LVU766
	orr	r2, r1, r3, lsl r0	@ Dummy, _134, set,
.LBB601:
.LBB600:
@ C:/Users/M69710/.mchp_packs/ARM/CMSIS/5.9.0/CMSIS/Core_A/Include/cmsis_cp15.h:495:   __set_CP(15, 0, value, 7, 6, 2);
	.loc 3 495 3 view .LVU767
	.syntax divided
@ 495 "C:/Users/M69710/.mchp_packs/ARM/CMSIS/5.9.0/CMSIS/Core_A/Include/cmsis_cp15.h" 1
	MCR p15, 0, r2, c7, c6, 2	@ Dummy
@ 0 "" 2
	.arm
	.syntax unified
.LBE600:
.LBE601:
@ C:/Users/M69710/.mchp_packs/ARM/CMSIS/5.9.0/CMSIS/Core_A/Include/core_ca.h:975:     for(int32_t set = num_sets-1; set >= 0; set--)
	.loc 2 975 5 view .LVU768
	subs	r3, r3, #1	@ set, set,
.LVL169:
	.loc 2 975 5 view .LVU769
	bcs	.L122		@,
.LBE597:
@ C:/Users/M69710/.mchp_packs/ARM/CMSIS/5.9.0/CMSIS/Core_A/Include/core_ca.h:973:   for(int32_t way = num_ways-1; way >= 0; way--)
	.loc 2 973 3 view .LVU770
	subs	lr, lr, #1	@ way, way,
.LVL170:
	.loc 2 973 3 view .LVU771
	bcs	.L123		@,
.LBE602:
	.loc 2 986 3 is_stmt 1 view .LVU772
.LBB603:
.LBI603:
	.loc 4 374 51 view .LVU773
.LBB604:
	.loc 4 376 3 view .LVU774
	.syntax divided
@ 376 "C:/Users/M69710/.mchp_packs/ARM/CMSIS/5.9.0/CMSIS/Core_A/Include/cmsis_gcc.h" 1
	dmb 0xF	
@ 0 "" 2
.LVL171:
	.arm
	.syntax unified
.L117:
	.loc 4 376 3 is_stmt 0 view .LVU775
.LBE604:
.LBE603:
.LBE588:
.LBE587:
@ C:/Users/M69710/.mchp_packs/ARM/CMSIS/5.9.0/CMSIS/Core_A/Include/core_ca.h:997:   for(uint32_t i = 0U; i<7U; i++)
	.loc 2 997 31 view .LVU776
	add	r4, r4, #1	@ i, i,
.LVL172:
@ C:/Users/M69710/.mchp_packs/ARM/CMSIS/5.9.0/CMSIS/Core_A/Include/core_ca.h:997:   for(uint32_t i = 0U; i<7U; i++)
	.loc 2 997 3 view .LVU777
	cmp	r4, #7	@ i,
	bne	.L124		@,
	pop	{r4, r5, r6, r7, r8, r9, pc}	@
.LVL173:
.L128:
.LBB607:
.LBB606:
.LBB605:
.LBB595:
@ C:/Users/M69710/.mchp_packs/ARM/CMSIS/5.9.0/CMSIS/Core_A/Include/core_ca.h:932:   if (n < 2U) {
	.loc 2 932 6 view .LVU778
	mov	ip, #32	@ prephitmp_104,
	b	.L118		@
.LVL174:
.L126:
	.loc 2 932 6 view .LVU779
.LBE595:
.LBE605:
.LBE606:
.LBE607:
.LBE586:
.LBE583:
.LBE582:
.LBE608:
.LBB609:
.LBB575:
.LBB574:
.LBB573:
.LBB572:
.LBB571:
.LBB570:
.LBB560:
	mov	r8, #32	@ _168,
.LVL175:
	.loc 2 932 6 view .LVU780
	b	.L109		@
.LBE560:
.LBE570:
.LBE571:
.LBE572:
.LBE573:
.LBE574:
.LBE575:
.LBE609:
	.cfi_endproc
.LFE147:
	.size	dcache_Disable, .-dcache_Disable
	.section	.text.MMU_Initialize,code
	.align	2
	.global	MMU_Initialize
	.syntax unified
	.arm
	.fpu neon-vfpv4
	.type	MMU_Initialize, %function
MMU_Initialize:
.LFB148:
	.loc 1 235 1 is_stmt 1 view -0
	.cfi_startproc
	@ args = 0, pretend = 0, frame = 0
	@ frame_needed = 0, uses_anonymous_args = 0
	.loc 1 236 5 view .LVU782
	.loc 1 239 5 view .LVU783
.LVL176:
@ ../src/config/sama5d29_curiosity/peripheral/mmu/plib_mmu.c:235: {
	.loc 1 235 1 is_stmt 0 view .LVU784
	push	{r4, lr}	@
.LCFI11:
	.cfi_def_cfa_offset 8
	.cfi_offset 4, -8
	.cfi_offset 14, -4
	movw	r4, #:lower16:tlb	@ tmp305,
	movt	r4, #:upper16:tlb	@ tmp305,
	mov	r2, #16384	@,
	mov	r1, #0	@,
	mov	r0, r4	@, tmp305
	bl	memset		@
.LVL177:
	.loc 1 246 5 is_stmt 1 view .LVU785
	.loc 1 254 5 view .LVU786
	.loc 1 262 5 view .LVU787
	.loc 1 270 5 view .LVU788
	.loc 1 278 5 view .LVU789
	.loc 1 286 5 view .LVU790
	.loc 1 294 5 view .LVU791
	.loc 1 302 5 view .LVU792
@ ../src/config/sama5d29_curiosity/peripheral/mmu/plib_mmu.c:310:     tlb[0x008] = TTB_SECT_ADDR(0x00800000U)
	.loc 1 310 16 is_stmt 0 view .LVU793
	movw	ip, #3574	@ tmp174,
@ ../src/config/sama5d29_curiosity/peripheral/mmu/plib_mmu.c:320:         tlb[addr] = TTB_SECT_ADDR(addr << 20U)
	.loc 1 320 19 view .LVU794
	mov	r0, ip	@ tmp176, tmp174
@ ../src/config/sama5d29_curiosity/peripheral/mmu/plib_mmu.c:246:     tlb[0x000] = TTB_SECT_ADDR(0x00000000U)
	.loc 1 246 16 view .LVU795
	vldr	d16, .L168	@,
	vldr	d17, .L168+8	@,
@ ../src/config/sama5d29_curiosity/peripheral/mmu/plib_mmu.c:320:         tlb[addr] = TTB_SECT_ADDR(addr << 20U)
	.loc 1 320 19 view .LVU796
	mov	r1, ip	@ tmp178, tmp176
@ ../src/config/sama5d29_curiosity/peripheral/mmu/plib_mmu.c:246:     tlb[0x000] = TTB_SECT_ADDR(0x00000000U)
	.loc 1 246 16 view .LVU797
	vst1.64	{d16-d17}, [r4:128]	@ tmp170, MEM[(long unsigned int *)&tlb]
@ ../src/config/sama5d29_curiosity/peripheral/mmu/plib_mmu.c:310:     tlb[0x008] = TTB_SECT_ADDR(0x00800000U)
	.loc 1 310 16 view .LVU798
	movt	ip, 128	@ tmp174,
@ ../src/config/sama5d29_curiosity/peripheral/mmu/plib_mmu.c:246:     tlb[0x000] = TTB_SECT_ADDR(0x00000000U)
	.loc 1 246 16 view .LVU799
	vldr	d16, .L168+16	@,
	vldr	d17, .L168+24	@,
@ ../src/config/sama5d29_curiosity/peripheral/mmu/plib_mmu.c:320:         tlb[addr] = TTB_SECT_ADDR(addr << 20U)
	.loc 1 320 19 view .LVU800
	movt	r0, 160	@ tmp176,
@ ../src/config/sama5d29_curiosity/peripheral/mmu/plib_mmu.c:246:     tlb[0x000] = TTB_SECT_ADDR(0x00000000U)
	.loc 1 246 16 view .LVU801
	vstr	d16, [r4, #16]	@, MEM[(long unsigned int *)&tlb + 16B]
	vstr	d17, [r4, #24]	@, MEM[(long unsigned int *)&tlb + 16B]
	.loc 1 310 5 is_stmt 1 view .LVU802
@ ../src/config/sama5d29_curiosity/peripheral/mmu/plib_mmu.c:320:         tlb[addr] = TTB_SECT_ADDR(addr << 20U)
	.loc 1 320 19 is_stmt 0 view .LVU803
	movt	r1, 176	@ tmp178,
	vldr	d18, .L168+32	@,
	vldr	d19, .L168+40	@,
	add	r3, r4, #1024	@ vectp_tlb.195, tmp305,
	vmov.i32	q11, #4  @ v4si	@ tmp179,
	add	r2, r4, #2048	@ tmp299, tmp305,
@ ../src/config/sama5d29_curiosity/peripheral/mmu/plib_mmu.c:336:                     | TTB_TYPE_SECT;
	.loc 1 336 21 view .LVU804
	vldr	d20, .L168+48	@,
	vldr	d21, .L168+56	@,
@ ../src/config/sama5d29_curiosity/peripheral/mmu/plib_mmu.c:310:     tlb[0x008] = TTB_SECT_ADDR(0x00800000U)
	.loc 1 310 16 view .LVU805
	str	ip, [r4, #32]	@ tmp174, tlb
	.loc 1 318 5 is_stmt 1 view .LVU806
.LVL178:
	.loc 1 320 9 view .LVU807
@ ../src/config/sama5d29_curiosity/peripheral/mmu/plib_mmu.c:320:         tlb[addr] = TTB_SECT_ADDR(addr << 20U)
	.loc 1 320 19 is_stmt 0 view .LVU808
	strd	r0, [r4, #40]	@, tmp305,
.LVL179:
.L144:
	.loc 1 331 9 is_stmt 1 discriminator 3 view .LVU809
@ ../src/config/sama5d29_curiosity/peripheral/mmu/plib_mmu.c:331:         tlb[addr] = TTB_SECT_ADDR(addr << 20U)
	.loc 1 331 28 is_stmt 0 discriminator 3 view .LVU810
	vshl.i32	q8, q9, #20	@ vect__3.193, vect_vec_iv_.192,
@ ../src/config/sama5d29_curiosity/peripheral/mmu/plib_mmu.c:336:                     | TTB_TYPE_SECT;
	.loc 1 336 21 discriminator 3 view .LVU811
	vorr	q8, q8, q10	@ vect__4.194, vect__3.193, tmp182
@ ../src/config/sama5d29_curiosity/peripheral/mmu/plib_mmu.c:331:         tlb[addr] = TTB_SECT_ADDR(addr << 20U)
	.loc 1 331 19 discriminator 3 view .LVU812
	vst1.64	{d16-d17}, [r3:64]!	@ vect__4.194, MEM[base: vectp_tlb.195_287, offset: 0B]
	.loc 1 331 19 discriminator 3 view .LVU813
	cmp	r3, r2	@ vectp_tlb.195, tmp299
	vadd.i32	q9, q9, q11	@ vect_vec_iv_.192, vect_vec_iv_.192, tmp179
	bne	.L144		@,
	add	r1, r3, #2048	@ tmp296, vectp_tlb.195,
	vldr	d18, .L168+64	@,
	vldr	d19, .L168+72	@,
	mov	r3, r1	@ vectp_tlb.190, tmp296
	vmov.i32	q11, #4  @ v4si	@ tmp185,
	add	r2, r1, #2048	@ tmp295, tmp296,
@ ../src/config/sama5d29_curiosity/peripheral/mmu/plib_mmu.c:347:                     | TTB_TYPE_SECT;
	.loc 1 347 21 view .LVU814
	vldr	d20, .L168+80	@,
	vldr	d21, .L168+88	@,
.L145:
	.loc 1 342 9 is_stmt 1 discriminator 3 view .LVU815
@ ../src/config/sama5d29_curiosity/peripheral/mmu/plib_mmu.c:342:         tlb[addr] = TTB_SECT_ADDR(addr << 20U)
	.loc 1 342 28 is_stmt 0 discriminator 3 view .LVU816
	vshl.i32	q8, q9, #20	@ vect__5.188, vect_vec_iv_.187,
@ ../src/config/sama5d29_curiosity/peripheral/mmu/plib_mmu.c:347:                     | TTB_TYPE_SECT;
	.loc 1 347 21 discriminator 3 view .LVU817
	vorr	q8, q8, q10	@ vect__6.189, vect__5.188, tmp188
@ ../src/config/sama5d29_curiosity/peripheral/mmu/plib_mmu.c:342:         tlb[addr] = TTB_SECT_ADDR(addr << 20U)
	.loc 1 342 19 discriminator 3 view .LVU818
	vst1.64	{d16-d17}, [r3:64]!	@ vect__6.189, MEM[base: vectp_tlb.190_274, offset: 0B]
	.loc 1 342 19 discriminator 3 view .LVU819
	cmp	r3, r2	@ vectp_tlb.190, tmp295
	vadd.i32	q9, q9, q11	@ vect_vec_iv_.187, vect_vec_iv_.187, tmp185
	bne	.L145		@,
	ldr	r2, .L168+320	@ tmp301,
	vldr	d18, .L168+96	@,
	vldr	d19, .L168+104	@,
	vmov.i32	q11, #4  @ v4si	@ tmp191,
@ ../src/config/sama5d29_curiosity/peripheral/mmu/plib_mmu.c:358:                     | TTB_TYPE_SECT;
	.loc 1 358 21 view .LVU820
	vldr	d20, .L168+48	@,
	vldr	d21, .L168+56	@,
.L146:
	.loc 1 353 9 is_stmt 1 discriminator 3 view .LVU821
@ ../src/config/sama5d29_curiosity/peripheral/mmu/plib_mmu.c:353:         tlb[addr] = TTB_SECT_ADDR(addr << 20U)
	.loc 1 353 28 is_stmt 0 discriminator 3 view .LVU822
	vshl.i32	q8, q9, #20	@ vect__7.183, vect_vec_iv_.182,
@ ../src/config/sama5d29_curiosity/peripheral/mmu/plib_mmu.c:358:                     | TTB_TYPE_SECT;
	.loc 1 358 21 discriminator 3 view .LVU823
	vorr	q8, q8, q10	@ vect__8.184, vect__7.183, tmp194
@ ../src/config/sama5d29_curiosity/peripheral/mmu/plib_mmu.c:353:         tlb[addr] = TTB_SECT_ADDR(addr << 20U)
	.loc 1 353 19 discriminator 3 view .LVU824
	vst1.64	{d16-d17}, [r3:64]!	@ vect__8.184, MEM[base: vectp_tlb.185_261, offset: 0B]
	.loc 1 353 19 discriminator 3 view .LVU825
	cmp	r3, r2	@ vectp_tlb.190, tmp301
	vadd.i32	q9, q9, q11	@ vect_vec_iv_.182, vect_vec_iv_.182, tmp191
	bne	.L146		@,
	ldr	r2, .L168+324	@ tmp304,
	vldr	d18, .L168+112	@,
	vldr	d19, .L168+120	@,
	vmov.i32	q11, #4  @ v4si	@ tmp197,
@ ../src/config/sama5d29_curiosity/peripheral/mmu/plib_mmu.c:369:                     | TTB_TYPE_SECT;
	.loc 1 369 21 view .LVU826
	vldr	d20, .L168+48	@,
	vldr	d21, .L168+56	@,
.L147:
	.loc 1 364 9 is_stmt 1 discriminator 3 view .LVU827
@ ../src/config/sama5d29_curiosity/peripheral/mmu/plib_mmu.c:364:         tlb[addr] = TTB_SECT_ADDR(addr << 20U)
	.loc 1 364 28 is_stmt 0 discriminator 3 view .LVU828
	vshl.i32	q8, q9, #20	@ vect__9.178, vect_vec_iv_.177,
@ ../src/config/sama5d29_curiosity/peripheral/mmu/plib_mmu.c:369:                     | TTB_TYPE_SECT;
	.loc 1 369 21 discriminator 3 view .LVU829
	vorr	q8, q8, q10	@ vect__10.179, vect__9.178, tmp200
@ ../src/config/sama5d29_curiosity/peripheral/mmu/plib_mmu.c:364:         tlb[addr] = TTB_SECT_ADDR(addr << 20U)
	.loc 1 364 19 discriminator 3 view .LVU830
	vst1.64	{d16-d17}, [r3:64]!	@ vect__10.179, MEM[base: vectp_tlb.180_248, offset: 0B]
	.loc 1 364 19 discriminator 3 view .LVU831
	cmp	r3, r2	@ vectp_tlb.190, tmp304
	vadd.i32	q9, q9, q11	@ vect_vec_iv_.177, vect_vec_iv_.177, tmp197
	bne	.L147		@,
	ldr	r2, .L168+328	@ tmp298,
	vldr	d18, .L168+128	@,
	vldr	d19, .L168+136	@,
	vmov.i32	q11, #4  @ v4si	@ tmp203,
@ ../src/config/sama5d29_curiosity/peripheral/mmu/plib_mmu.c:380:                     | TTB_TYPE_SECT;
	.loc 1 380 21 view .LVU832
	vldr	d20, .L168+48	@,
	vldr	d21, .L168+56	@,
.L148:
	.loc 1 375 9 is_stmt 1 discriminator 3 view .LVU833
@ ../src/config/sama5d29_curiosity/peripheral/mmu/plib_mmu.c:375:         tlb[addr] = TTB_SECT_ADDR(addr << 20U)
	.loc 1 375 28 is_stmt 0 discriminator 3 view .LVU834
	vshl.i32	q8, q9, #20	@ vect__11.173, vect_vec_iv_.172,
@ ../src/config/sama5d29_curiosity/peripheral/mmu/plib_mmu.c:380:                     | TTB_TYPE_SECT;
	.loc 1 380 21 discriminator 3 view .LVU835
	vorr	q8, q8, q10	@ vect__12.174, vect__11.173, tmp206
@ ../src/config/sama5d29_curiosity/peripheral/mmu/plib_mmu.c:375:         tlb[addr] = TTB_SECT_ADDR(addr << 20U)
	.loc 1 375 19 discriminator 3 view .LVU836
	vst1.64	{d16-d17}, [r3:64]!	@ vect__12.174, MEM[base: vectp_tlb.175_235, offset: 0B]
	.loc 1 375 19 discriminator 3 view .LVU837
	cmp	r3, r2	@ vectp_tlb.190, tmp298
	vadd.i32	q9, q9, q11	@ vect_vec_iv_.172, vect_vec_iv_.172, tmp203
	bne	.L148		@,
	ldr	r2, .L168+332	@ tmp302,
	vldr	d18, .L168+144	@,
	vldr	d19, .L168+152	@,
	vmov.i32	q11, #4  @ v4si	@ tmp209,
@ ../src/config/sama5d29_curiosity/peripheral/mmu/plib_mmu.c:391:                     | TTB_TYPE_SECT;
	.loc 1 391 21 view .LVU838
	vldr	d20, .L168+160	@,
	vldr	d21, .L168+168	@,
.L149:
	.loc 1 386 9 is_stmt 1 discriminator 3 view .LVU839
@ ../src/config/sama5d29_curiosity/peripheral/mmu/plib_mmu.c:386:         tlb[addr] = TTB_SECT_ADDR(addr << 20U)
	.loc 1 386 28 is_stmt 0 discriminator 3 view .LVU840
	vshl.i32	q8, q9, #20	@ vect__13.168, vect_vec_iv_.167,
@ ../src/config/sama5d29_curiosity/peripheral/mmu/plib_mmu.c:391:                     | TTB_TYPE_SECT;
	.loc 1 391 21 discriminator 3 view .LVU841
	vorr	q8, q8, q10	@ vect__14.169, vect__13.168, tmp212
@ ../src/config/sama5d29_curiosity/peripheral/mmu/plib_mmu.c:386:         tlb[addr] = TTB_SECT_ADDR(addr << 20U)
	.loc 1 386 19 discriminator 3 view .LVU842
	vst1.64	{d16-d17}, [r3:64]!	@ vect__14.169, MEM[base: vectp_tlb.170_222, offset: 0B]
	.loc 1 386 19 discriminator 3 view .LVU843
	cmp	r3, r2	@ vectp_tlb.190, tmp302
	vadd.i32	q9, q9, q11	@ vect_vec_iv_.167, vect_vec_iv_.167, tmp209
	bne	.L149		@,
	ldr	r2, .L168+336	@ tmp303,
	vldr	d18, .L168+176	@,
	vldr	d19, .L168+184	@,
	vmov.i32	q11, #4  @ v4si	@ tmp215,
@ ../src/config/sama5d29_curiosity/peripheral/mmu/plib_mmu.c:402:                     | TTB_TYPE_SECT;
	.loc 1 402 21 view .LVU844
	vldr	d20, .L168+160	@,
	vldr	d21, .L168+168	@,
.L150:
	.loc 1 397 9 is_stmt 1 discriminator 3 view .LVU845
@ ../src/config/sama5d29_curiosity/peripheral/mmu/plib_mmu.c:397:         tlb[addr] = TTB_SECT_ADDR(addr << 20U)
	.loc 1 397 28 is_stmt 0 discriminator 3 view .LVU846
	vshl.i32	q8, q9, #20	@ vect__15.163, vect_vec_iv_.162,
@ ../src/config/sama5d29_curiosity/peripheral/mmu/plib_mmu.c:402:                     | TTB_TYPE_SECT;
	.loc 1 402 21 discriminator 3 view .LVU847
	vorr	q8, q8, q10	@ vect__16.164, vect__15.163, tmp218
@ ../src/config/sama5d29_curiosity/peripheral/mmu/plib_mmu.c:397:         tlb[addr] = TTB_SECT_ADDR(addr << 20U)
	.loc 1 397 19 discriminator 3 view .LVU848
	vst1.64	{d16-d17}, [r3:64]!	@ vect__16.164, MEM[base: vectp_tlb.165_209, offset: 0B]
	.loc 1 397 19 discriminator 3 view .LVU849
	cmp	r3, r2	@ vectp_tlb.190, tmp303
	vadd.i32	q9, q9, q11	@ vect_vec_iv_.162, vect_vec_iv_.162, tmp215
	bne	.L150		@,
	.loc 1 406 5 is_stmt 1 view .LVU850
@ ../src/config/sama5d29_curiosity/peripheral/mmu/plib_mmu.c:406:     tlb[0xA00] = TTB_SECT_ADDR(0xA0000000U)
	.loc 1 406 16 is_stmt 0 view .LVU851
	movw	r0, #3570	@ tmp224,
@ ../src/config/sama5d29_curiosity/peripheral/mmu/plib_mmu.c:414:     tlb[0xB00] = TTB_SECT_ADDR(0xB0000000U)
	.loc 1 414 16 view .LVU852
	vldr	d18, .L168+192	@,
	vldr	d19, .L168+200	@,
	mov	ip, r0	@ tmp228, tmp224
	vmov.i32	q11, #4  @ v4si	@ tmp229,
@ ../src/config/sama5d29_curiosity/peripheral/mmu/plib_mmu.c:406:     tlb[0xA00] = TTB_SECT_ADDR(0xA0000000U)
	.loc 1 406 16 view .LVU853
	movt	r0, 40960	@ tmp224,
@ ../src/config/sama5d29_curiosity/peripheral/mmu/plib_mmu.c:429:                     | TTB_TYPE_SECT;
	.loc 1 429 21 view .LVU854
	vldr	d20, .L168+48	@,
	vldr	d21, .L168+56	@,
@ ../src/config/sama5d29_curiosity/peripheral/mmu/plib_mmu.c:414:     tlb[0xB00] = TTB_SECT_ADDR(0xB0000000U)
	.loc 1 414 16 view .LVU855
	ldr	r2, .L168+340	@ vectp_tlb.160,
@ ../src/config/sama5d29_curiosity/peripheral/mmu/plib_mmu.c:406:     tlb[0xA00] = TTB_SECT_ADDR(0xA0000000U)
	.loc 1 406 16 view .LVU856
	str	r0, [r3], #-2048	@ tmp224, tlb
	.loc 1 414 5 is_stmt 1 view .LVU857
@ ../src/config/sama5d29_curiosity/peripheral/mmu/plib_mmu.c:414:     tlb[0xB00] = TTB_SECT_ADDR(0xB0000000U)
	.loc 1 414 16 is_stmt 0 view .LVU858
	movt	ip, 45056	@ tmp228,
	add	r0, r2, #1024	@ tmp294, vectp_tlb.160,
	str	ip, [r3, #3072]	@ tmp228, tlb
	.loc 1 422 5 is_stmt 1 view .LVU859
.LVL180:
.L151:
	.loc 1 424 9 discriminator 3 view .LVU860
@ ../src/config/sama5d29_curiosity/peripheral/mmu/plib_mmu.c:424:         tlb[addr] = TTB_SECT_ADDR(addr << 20U)
	.loc 1 424 28 is_stmt 0 discriminator 3 view .LVU861
	vshl.i32	q8, q9, #20	@ vect__17.158, vect_vec_iv_.157,
@ ../src/config/sama5d29_curiosity/peripheral/mmu/plib_mmu.c:429:                     | TTB_TYPE_SECT;
	.loc 1 429 21 discriminator 3 view .LVU862
	vorr	q8, q8, q10	@ vect__18.159, vect__17.158, tmp232
@ ../src/config/sama5d29_curiosity/peripheral/mmu/plib_mmu.c:424:         tlb[addr] = TTB_SECT_ADDR(addr << 20U)
	.loc 1 424 19 discriminator 3 view .LVU863
	vst1.64	{d16-d17}, [r2:64]!	@ vect__18.159, MEM[base: vectp_tlb.160_196, offset: 0B]
	.loc 1 424 19 discriminator 3 view .LVU864
	cmp	r2, r0	@ vectp_tlb.160, tmp294
	vadd.i32	q9, q9, q11	@ vect_vec_iv_.157, vect_vec_iv_.157, tmp229
	bne	.L151		@,
	ldr	r3, .L168+344	@ tmp297,
	vldr	d18, .L168+208	@,
	vldr	d19, .L168+216	@,
	vmov.i32	q11, #4  @ v4si	@ tmp235,
@ ../src/config/sama5d29_curiosity/peripheral/mmu/plib_mmu.c:440:                     | TTB_TYPE_SECT;
	.loc 1 440 21 view .LVU865
	vldr	d20, .L168+160	@,
	vldr	d21, .L168+168	@,
.L152:
	.loc 1 435 9 is_stmt 1 discriminator 3 view .LVU866
@ ../src/config/sama5d29_curiosity/peripheral/mmu/plib_mmu.c:435:         tlb[addr] = TTB_SECT_ADDR(addr << 20U)
	.loc 1 435 28 is_stmt 0 discriminator 3 view .LVU867
	vshl.i32	q8, q9, #20	@ vect__19.153, vect_vec_iv_.152,
@ ../src/config/sama5d29_curiosity/peripheral/mmu/plib_mmu.c:440:                     | TTB_TYPE_SECT;
	.loc 1 440 21 discriminator 3 view .LVU868
	vorr	q8, q8, q10	@ vect__20.154, vect__19.153, tmp238
@ ../src/config/sama5d29_curiosity/peripheral/mmu/plib_mmu.c:435:         tlb[addr] = TTB_SECT_ADDR(addr << 20U)
	.loc 1 435 19 discriminator 3 view .LVU869
	vst1.64	{d16-d17}, [r2:64]!	@ vect__20.154, MEM[base: vectp_tlb.155_183, offset: 0B]
	.loc 1 435 19 discriminator 3 view .LVU870
	cmp	r2, r3	@ vectp_tlb.160, tmp297
	vadd.i32	q9, q9, q11	@ vect_vec_iv_.152, vect_vec_iv_.152, tmp235
	bne	.L152		@,
	ldr	r3, .L168+348	@ tmp300,
	vldr	d18, .L168+224	@,
	vldr	d19, .L168+232	@,
	vmov.i32	q11, #4  @ v4si	@ tmp241,
@ ../src/config/sama5d29_curiosity/peripheral/mmu/plib_mmu.c:451:                     | TTB_TYPE_SECT;
	.loc 1 451 21 view .LVU871
	vldr	d20, .L168+160	@,
	vldr	d21, .L168+168	@,
.L153:
	.loc 1 446 9 is_stmt 1 discriminator 3 view .LVU872
@ ../src/config/sama5d29_curiosity/peripheral/mmu/plib_mmu.c:446:         tlb[addr] = TTB_SECT_ADDR(addr << 20U)
	.loc 1 446 28 is_stmt 0 discriminator 3 view .LVU873
	vshl.i32	q8, q9, #20	@ vect__21.148, vect_vec_iv_.147,
@ ../src/config/sama5d29_curiosity/peripheral/mmu/plib_mmu.c:451:                     | TTB_TYPE_SECT;
	.loc 1 451 21 discriminator 3 view .LVU874
	vorr	q8, q8, q10	@ vect__22.149, vect__21.148, tmp244
@ ../src/config/sama5d29_curiosity/peripheral/mmu/plib_mmu.c:446:         tlb[addr] = TTB_SECT_ADDR(addr << 20U)
	.loc 1 446 19 discriminator 3 view .LVU875
	vst1.64	{d16-d17}, [r2:64]!	@ vect__22.149, MEM[base: vectp_tlb.150_36, offset: 0B]
	.loc 1 446 19 discriminator 3 view .LVU876
	cmp	r2, r3	@ vectp_tlb.160, tmp300
	vadd.i32	q9, q9, q11	@ vect_vec_iv_.147, vect_vec_iv_.147, tmp241
	bne	.L153		@,
	.loc 1 455 5 is_stmt 1 view .LVU877
@ ../src/config/sama5d29_curiosity/peripheral/mmu/plib_mmu.c:455:     tlb[0xF00] = TTB_SECT_ADDR(0xF0000000U)
	.loc 1 455 16 is_stmt 0 view .LVU878
	movw	r3, #3570	@ tmp250,
@ ../src/config/sama5d29_curiosity/peripheral/mmu/plib_mmu.c:482:         tlb[addr] = TTB_SECT_ADDR(addr << 20)
	.loc 1 482 19 view .LVU879
	vldr	d28, .L168+240	@,
	vldr	d29, .L168+248	@,
@ ../src/config/sama5d29_curiosity/peripheral/mmu/plib_mmu.c:455:     tlb[0xF00] = TTB_SECT_ADDR(0xF0000000U)
	.loc 1 455 16 view .LVU880
	sub	r0, r2, #2048	@ tmp249, vectp_tlb.160,
@ ../src/config/sama5d29_curiosity/peripheral/mmu/plib_mmu.c:482:         tlb[addr] = TTB_SECT_ADDR(addr << 20)
	.loc 1 482 19 view .LVU881
	vldr	d26, .L168+256	@,
	vldr	d27, .L168+264	@,
@ ../src/config/sama5d29_curiosity/peripheral/mmu/plib_mmu.c:463:     tlb[0xF80] = TTB_SECT_ADDR(0xF8000000U)
	.loc 1 463 16 view .LVU882
	mov	lr, r3	@ tmp254, tmp250
@ ../src/config/sama5d29_curiosity/peripheral/mmu/plib_mmu.c:482:         tlb[addr] = TTB_SECT_ADDR(addr << 20)
	.loc 1 482 19 view .LVU883
	vldr	d24, .L168+272	@,
	vldr	d25, .L168+280	@,
@ ../src/config/sama5d29_curiosity/peripheral/mmu/plib_mmu.c:455:     tlb[0xF00] = TTB_SECT_ADDR(0xF0000000U)
	.loc 1 455 16 view .LVU884
	movt	r3, 61440	@ tmp250,
@ ../src/config/sama5d29_curiosity/peripheral/mmu/plib_mmu.c:482:         tlb[addr] = TTB_SECT_ADDR(addr << 20)
	.loc 1 482 19 view .LVU885
	vldr	d16, .L168+288	@,
	vldr	d17, .L168+296	@,
@ ../src/config/sama5d29_curiosity/peripheral/mmu/plib_mmu.c:471:     tlb[0xFC0] = TTB_SECT_ADDR(0xFC000000U)
	.loc 1 471 16 view .LVU886
	movw	ip, #3570	@ tmp258,
@ ../src/config/sama5d29_curiosity/peripheral/mmu/plib_mmu.c:482:         tlb[addr] = TTB_SECT_ADDR(addr << 20)
	.loc 1 482 19 view .LVU887
	vldr	d18, .L168+304	@,
	vldr	d19, .L168+312	@,
@ ../src/config/sama5d29_curiosity/peripheral/mmu/plib_mmu.c:463:     tlb[0xF80] = TTB_SECT_ADDR(0xF8000000U)
	.loc 1 463 16 view .LVU888
	movt	lr, 63488	@ tmp254,
	vmov.i32	q11, #4  @ v4si	@ tmp279,
@ ../src/config/sama5d29_curiosity/peripheral/mmu/plib_mmu.c:471:     tlb[0xFC0] = TTB_SECT_ADDR(0xFC000000U)
	.loc 1 471 16 view .LVU889
	movt	ip, 64512	@ tmp258,
@ ../src/config/sama5d29_curiosity/peripheral/mmu/plib_mmu.c:498:                     | TTB_TYPE_SECT;
	.loc 1 498 21 view .LVU890
	vldr	d20, .L168+80	@,
	vldr	d21, .L168+88	@,
@ ../src/config/sama5d29_curiosity/peripheral/mmu/plib_mmu.c:455:     tlb[0xF00] = TTB_SECT_ADDR(0xF0000000U)
	.loc 1 455 16 view .LVU891
	str	r3, [r0, #3072]	@ tmp250, tlb
	.loc 1 463 5 is_stmt 1 view .LVU892
@ ../src/config/sama5d29_curiosity/peripheral/mmu/plib_mmu.c:482:         tlb[addr] = TTB_SECT_ADDR(addr << 20)
	.loc 1 482 19 is_stmt 0 view .LVU893
	ldr	r3, .L168+352	@ vectp_tlb.140,
	sub	r2, r2, #12288	@ tmp262, vectp_tlb.160,
	vst1.64	{d28-d29}, [r2:128]	@ tmp263, MEM[(long unsigned int *)&tlb + 2048B]
@ ../src/config/sama5d29_curiosity/peripheral/mmu/plib_mmu.c:463:     tlb[0xF80] = TTB_SECT_ADDR(0xF8000000U)
	.loc 1 463 16 view .LVU894
	str	lr, [r0, #3584]	@ tmp254, tlb
	.loc 1 471 5 is_stmt 1 view .LVU895
@ ../src/config/sama5d29_curiosity/peripheral/mmu/plib_mmu.c:482:         tlb[addr] = TTB_SECT_ADDR(addr << 20)
	.loc 1 482 19 is_stmt 0 view .LVU896
	add	r2, r4, #2064	@ tmp267, tmp305,
	vst1.64	{d26-d27}, [r2:128]	@ tmp268, MEM[(long unsigned int *)&tlb + 2064B]
@ ../src/config/sama5d29_curiosity/peripheral/mmu/plib_mmu.c:471:     tlb[0xFC0] = TTB_SECT_ADDR(0xFC000000U)
	.loc 1 471 16 view .LVU897
	str	ip, [r0, #3840]	@ tmp258, tlb
	.loc 1 480 5 is_stmt 1 view .LVU898
	.loc 1 482 9 view .LVU899
	.loc 1 482 9 view .LVU900
	.loc 1 482 9 view .LVU901
@ ../src/config/sama5d29_curiosity/peripheral/mmu/plib_mmu.c:482:         tlb[addr] = TTB_SECT_ADDR(addr << 20)
	.loc 1 482 19 is_stmt 0 view .LVU902
	add	r2, r4, #2080	@ tmp272, tmp305,
	vst1.64	{d24-d25}, [r2:128]	@ tmp273, MEM[(long unsigned int *)&tlb + 2080B]
	.loc 1 482 9 is_stmt 1 view .LVU903
@ ../src/config/sama5d29_curiosity/peripheral/mmu/plib_mmu.c:482:         tlb[addr] = TTB_SECT_ADDR(addr << 20)
	.loc 1 482 19 is_stmt 0 view .LVU904
	add	r2, r4, #2096	@ tmp277, tmp305,
	vst1.64	{d16-d17}, [r2:128]	@ tmp278, MEM[(long unsigned int *)&tlb + 2096B]
.L154:
	.loc 1 493 9 is_stmt 1 discriminator 3 view .LVU905
@ ../src/config/sama5d29_curiosity/peripheral/mmu/plib_mmu.c:493:         tlb[addr] = TTB_SECT_ADDR(addr << 20)
	.loc 1 493 28 is_stmt 0 discriminator 3 view .LVU906
	vshl.i32	q8, q9, #20	@ vect__25.138, vect_vec_iv_.137,
@ ../src/config/sama5d29_curiosity/peripheral/mmu/plib_mmu.c:498:                     | TTB_TYPE_SECT;
	.loc 1 498 21 discriminator 3 view .LVU907
	vorr	q8, q8, q10	@ vect__26.139, vect__25.138, tmp282
@ ../src/config/sama5d29_curiosity/peripheral/mmu/plib_mmu.c:493:         tlb[addr] = TTB_SECT_ADDR(addr << 20)
	.loc 1 493 19 discriminator 3 view .LVU908
	vst1.64	{d16-d17}, [r3:64]!	@ vect__26.139, MEM[base: vectp_tlb.140_140, offset: 0B]
	.loc 1 493 19 discriminator 3 view .LVU909
	cmp	r3, r1	@ vectp_tlb.140, tmp296
	vadd.i32	q9, q9, q11	@ vect_vec_iv_.137, vect_vec_iv_.137, tmp279
	bne	.L154		@,
	.loc 1 502 5 is_stmt 1 view .LVU910
.LVL181:
.LBB610:
.LBI610:
	.loc 1 93 13 view .LVU911
.LBB611:
	.loc 1 96 5 view .LVU912
.LBB612:
.LBI612:
	.loc 3 145 51 view .LVU913
.LBB613:
	.loc 3 147 3 view .LVU914
	.syntax divided
@ 147 "C:/Users/M69710/.mchp_packs/ARM/CMSIS/5.9.0/CMSIS/Core_A/Include/cmsis_cp15.h" 1
	MCR p15, 0, r4, c2, c0, 0	@ tmp305
@ 0 "" 2
.LVL182:
	.loc 3 147 3 is_stmt 0 view .LVU915
	.arm
	.syntax unified
.LBE613:
.LBE612:
	.loc 1 100 5 is_stmt 1 view .LVU916
.LBB614:
.LBI614:
	.loc 3 169 51 view .LVU917
.LBB615:
	.loc 3 171 3 view .LVU918
	mov	r3, #-1073741824	@ tmp286,
	.syntax divided
@ 171 "C:/Users/M69710/.mchp_packs/ARM/CMSIS/5.9.0/CMSIS/Core_A/Include/cmsis_cp15.h" 1
	MCR p15, 0, r3, c3, c0, 0	@ tmp286
@ 0 "" 2
.LVL183:
	.loc 3 171 3 is_stmt 0 view .LVU919
	.arm
	.syntax unified
.LBE615:
.LBE614:
	.loc 1 102 5 is_stmt 1 view .LVU920
.LBB616:
.LBI616:
	.loc 4 364 51 view .LVU921
.LBB617:
	.loc 4 366 3 view .LVU922
	.syntax divided
@ 366 "C:/Users/M69710/.mchp_packs/ARM/CMSIS/5.9.0/CMSIS/Core_A/Include/cmsis_gcc.h" 1
	dsb 0xF	
@ 0 "" 2
	.arm
	.syntax unified
.LBE617:
.LBE616:
	.loc 1 103 5 view .LVU923
.LBB618:
.LBI618:
	.loc 4 353 51 view .LVU924
.LBB619:
	.loc 4 355 3 view .LVU925
	.syntax divided
@ 355 "C:/Users/M69710/.mchp_packs/ARM/CMSIS/5.9.0/CMSIS/Core_A/Include/cmsis_gcc.h" 1
	isb 0xF	
@ 0 "" 2
.LVL184:
	.loc 4 355 3 is_stmt 0 view .LVU926
	.arm
	.syntax unified
.LBE619:
.LBE618:
.LBE611:
.LBE610:
	.loc 1 503 5 is_stmt 1 view .LVU927
.LBB620:
.LBI620:
	.loc 1 112 6 view .LVU928
.LBB621:
	.loc 1 114 5 view .LVU929
.LBB622:
.LBI622:
	.loc 3 188 55 view .LVU930
.LBB623:
	.loc 3 190 3 view .LVU931
	.loc 3 191 3 view .LVU932
	.syntax divided
@ 191 "C:/Users/M69710/.mchp_packs/ARM/CMSIS/5.9.0/CMSIS/Core_A/Include/cmsis_cp15.h" 1
	MRC p15, 0, r3, c1, c0, 0	@ result
@ 0 "" 2
.LVL185:
	.loc 3 192 3 view .LVU933
	.loc 3 192 3 is_stmt 0 view .LVU934
	.arm
	.syntax unified
.LBE623:
.LBE622:
	.loc 1 115 5 is_stmt 1 view .LVU935
@ ../src/config/sama5d29_curiosity/peripheral/mmu/plib_mmu.c:115:     if ((sctlr & SCTLR_I_Msk) == 0U)
	.loc 1 115 8 is_stmt 0 view .LVU936
	ands	r2, r3, #4096	@ tmp288, result,
	bne	.L155		@,
	.loc 1 117 9 is_stmt 1 view .LVU937
.LBB624:
.LBI624:
	.loc 2 886 51 view .LVU938
.LBE624:
.LBE621:
.LBE620:
	.loc 2 887 3 view .LVU939
.LVL186:
.LBB641:
.LBB638:
.LBB631:
.LBB625:
.LBI625:
	.loc 3 408 51 view .LVU940
.LBB626:
	.loc 3 410 3 view .LVU941
	.syntax divided
@ 410 "C:/Users/M69710/.mchp_packs/ARM/CMSIS/5.9.0/CMSIS/Core_A/Include/cmsis_cp15.h" 1
	MCR p15, 0, r2, c7, c5, 0	@ tmp288
@ 0 "" 2
.LVL187:
	.loc 3 410 3 is_stmt 0 view .LVU942
	.arm
	.syntax unified
.LBE626:
.LBE625:
.LBE631:
.LBE638:
.LBE641:
	.loc 2 888 3 is_stmt 1 view .LVU943
.LBB642:
.LBB639:
.LBB632:
.LBB627:
.LBI627:
	.loc 4 364 51 view .LVU944
.LBB628:
	.loc 4 366 3 view .LVU945
	.syntax divided
@ 366 "C:/Users/M69710/.mchp_packs/ARM/CMSIS/5.9.0/CMSIS/Core_A/Include/cmsis_gcc.h" 1
	dsb 0xF	
@ 0 "" 2
	.arm
	.syntax unified
.LBE628:
.LBE627:
.LBE632:
.LBE639:
.LBE642:
	.loc 2 889 3 view .LVU946
.LBB643:
.LBB640:
.LBB633:
.LBB629:
.LBI629:
	.loc 4 353 51 view .LVU947
.LBB630:
	.loc 4 355 3 view .LVU948
	.syntax divided
@ 355 "C:/Users/M69710/.mchp_packs/ARM/CMSIS/5.9.0/CMSIS/Core_A/Include/cmsis_gcc.h" 1
	isb 0xF	
@ 0 "" 2
	.arm
	.syntax unified
.LBE630:
.LBE629:
.LBE633:
	.loc 1 118 9 view .LVU949
.LVL188:
.LBB634:
.LBI634:
	.loc 3 180 51 view .LVU950
.LBB635:
	.loc 3 182 3 view .LVU951
.LBE635:
.LBE634:
@ ../src/config/sama5d29_curiosity/peripheral/mmu/plib_mmu.c:118:         __set_SCTLR(sctlr | SCTLR_I_Msk);
	.loc 1 118 9 is_stmt 0 view .LVU952
	orr	r3, r3, #4096	@ tmp290, result,
.LVL189:
.LBB637:
.LBB636:
@ C:/Users/M69710/.mchp_packs/ARM/CMSIS/5.9.0/CMSIS/Core_A/Include/cmsis_cp15.h:182:   __set_CP(15, 0, sctlr, 1, 0, 0);
	.loc 3 182 3 view .LVU953
	.syntax divided
@ 182 "C:/Users/M69710/.mchp_packs/ARM/CMSIS/5.9.0/CMSIS/Core_A/Include/cmsis_cp15.h" 1
	MCR p15, 0, r3, c1, c0, 0	@ tmp290
@ 0 "" 2
.LVL190:
	.arm
	.syntax unified
.L155:
	.loc 3 182 3 view .LVU954
.LBE636:
.LBE637:
.LBE640:
.LBE643:
	.loc 1 504 5 is_stmt 1 view .LVU955
.LBB644:
.LBI644:
	.loc 2 2579 20 view .LVU956
.LBB645:
	.loc 2 2584 3 view .LVU957
.LBB646:
.LBI646:
	.loc 3 188 55 view .LVU958
.LBB647:
	.loc 3 190 3 view .LVU959
	.loc 3 191 3 view .LVU960
	.syntax divided
@ 191 "C:/Users/M69710/.mchp_packs/ARM/CMSIS/5.9.0/CMSIS/Core_A/Include/cmsis_cp15.h" 1
	MRC p15, 0, r3, c1, c0, 0	@ result
@ 0 "" 2
.LVL191:
	.loc 3 192 3 view .LVU961
	.loc 3 192 3 is_stmt 0 view .LVU962
	.arm
	.syntax unified
.LBE647:
.LBE646:
.LBB648:
.LBI648:
	.loc 3 180 51 is_stmt 1 view .LVU963
.LBB649:
	.loc 3 182 3 view .LVU964
.LBE649:
.LBE648:
@ C:/Users/M69710/.mchp_packs/ARM/CMSIS/5.9.0/CMSIS/Core_A/Include/core_ca.h:2584:   __set_SCTLR( (__get_SCTLR() & ~(1 << 28) & ~(1 << 1)) | 1 | (1 << 29));
	.loc 2 2584 61 is_stmt 0 view .LVU965
	bic	r3, r3, #805306371	@ tmp292, result,
.LVL192:
@ C:/Users/M69710/.mchp_packs/ARM/CMSIS/5.9.0/CMSIS/Core_A/Include/core_ca.h:2584:   __set_SCTLR( (__get_SCTLR() & ~(1 << 28) & ~(1 << 1)) | 1 | (1 << 29));
	.loc 2 2584 3 view .LVU966
	orr	r3, r3, #536870913	@ tmp293, tmp292,
.LVL193:
.LBB651:
.LBB650:
@ C:/Users/M69710/.mchp_packs/ARM/CMSIS/5.9.0/CMSIS/Core_A/Include/cmsis_cp15.h:182:   __set_CP(15, 0, sctlr, 1, 0, 0);
	.loc 3 182 3 view .LVU967
	.syntax divided
@ 182 "C:/Users/M69710/.mchp_packs/ARM/CMSIS/5.9.0/CMSIS/Core_A/Include/cmsis_cp15.h" 1
	MCR p15, 0, r3, c1, c0, 0	@ tmp293
@ 0 "" 2
.LVL194:
	.loc 3 182 3 view .LVU968
	.arm
	.syntax unified
.LBE650:
.LBE651:
	.loc 2 2585 3 is_stmt 1 view .LVU969
.LBB652:
.LBI652:
	.loc 4 353 51 view .LVU970
.LBB653:
	.loc 4 355 3 view .LVU971
	.syntax divided
@ 355 "C:/Users/M69710/.mchp_packs/ARM/CMSIS/5.9.0/CMSIS/Core_A/Include/cmsis_gcc.h" 1
	isb 0xF	
@ 0 "" 2
	.arm
	.syntax unified
.LBE653:
.LBE652:
.LBE645:
.LBE644:
	.loc 1 505 5 view .LVU972
@ ../src/config/sama5d29_curiosity/peripheral/mmu/plib_mmu.c:506: }
	.loc 1 506 1 is_stmt 0 view .LVU973
	pop	{r4, lr}	@
.LCFI12:
	.cfi_restore 14
	.cfi_restore 4
	.cfi_def_cfa_offset 0
@ ../src/config/sama5d29_curiosity/peripheral/mmu/plib_mmu.c:505:     dcache_Enable();
	.loc 1 505 5 view .LVU974
	b	dcache_Enable		@
.LVL195:
.L169:
	.align	3
.L168:
	.word	35310
	.word	1052134
	.word	2100718
	.word	3149302
	.word	4197878
	.word	5246454
	.word	6295030
	.word	7343606
	.word	256
	.word	257
	.word	258
	.word	259
	.word	3570
	.word	3570
	.word	3570
	.word	3570
	.word	1024
	.word	1025
	.word	1026
	.word	1027
	.word	3566
	.word	3566
	.word	3566
	.word	3566
	.word	1536
	.word	1537
	.word	1538
	.word	1539
	.word	1792
	.word	1793
	.word	1794
	.word	1795
	.word	2048
	.word	2049
	.word	2050
	.word	2051
	.word	2304
	.word	2305
	.word	2306
	.word	2307
	.word	3554
	.word	3554
	.word	3554
	.word	3554
	.word	2432
	.word	2433
	.word	2434
	.word	2435
	.word	3072
	.word	3073
	.word	3074
	.word	3075
	.word	3328
	.word	3329
	.word	3330
	.word	3331
	.word	3456
	.word	3457
	.word	3458
	.word	3459
	.word	536874466
	.word	537923042
	.word	538971618
	.word	540020194
	.word	541068770
	.word	542117346
	.word	543165922
	.word	544214498
	.word	545263074
	.word	546311650
	.word	547360226
	.word	548408802
	.word	549457378
	.word	550505954
	.word	551554530
	.word	552603106
	.word	528
	.word	529
	.word	530
	.word	531
	.word	tlb+7168
	.word	tlb+8192
	.word	tlb+9216
	.word	tlb+9728
	.word	tlb+10240
	.word	tlb+12288
	.word	tlb+13824
	.word	tlb+14336
	.word	tlb+2112
	.cfi_endproc
.LFE148:
	.size	MMU_Initialize, .-MMU_Initialize
	.section	.bss.tlb,bss
	.align	14
	.type	tlb, %object
	.size	tlb, 16384
tlb:
	.space	16384
	.section	.text,code
.Letext0:
	.file 5 "c:\\program files\\microchip\\xc32\\v4.60\\pic32c\\include\\musl\\bits\\alltypes.h"
	.file 6 "<built-in>"
	.section	.debug_info,info
.Ldebug_info0:
	.4byte	0x185e
	.2byte	0x2
	.4byte	.Ldebug_abbrev0
	.byte	0x4
	.uleb128 0x1
	.4byte	.LASF73
	.byte	0xc
	.4byte	.LASF74
	.4byte	.LASF75
	.4byte	.Ldebug_ranges0+0x4f8
	.4byte	0
	.4byte	0
	.4byte	.Ldebug_line0
	.uleb128 0x2
	.byte	0x8
	.byte	0x4
	.4byte	.LASF0
	.uleb128 0x2
	.byte	0x4
	.byte	0x7
	.4byte	.LASF1
	.uleb128 0x3
	.byte	0x4
	.byte	0x5
	.ascii	"int\000"
	.uleb128 0x2
	.byte	0x1
	.byte	0x6
	.4byte	.LASF2
	.uleb128 0x2
	.byte	0x2
	.byte	0x5
	.4byte	.LASF3
	.uleb128 0x4
	.4byte	.LASF6
	.byte	0x5
	.byte	0xd5
	.byte	0x12
	.4byte	0x58
	.uleb128 0x2
	.byte	0x4
	.byte	0x5
	.4byte	.LASF4
	.uleb128 0x2
	.byte	0x8
	.byte	0x5
	.4byte	.LASF5
	.uleb128 0x4
	.4byte	.LASF7
	.byte	0x5
	.byte	0xff
	.byte	0x17
	.4byte	0x72
	.uleb128 0x2
	.byte	0x1
	.byte	0x8
	.4byte	.LASF8
	.uleb128 0x2
	.byte	0x2
	.byte	0x7
	.4byte	.LASF9
	.uleb128 0x5
	.4byte	.LASF10
	.byte	0x5
	.2byte	0x11b
	.byte	0x1b
	.4byte	0x92
	.uleb128 0x6
	.4byte	0x80
	.uleb128 0x2
	.byte	0x4
	.byte	0x7
	.4byte	.LASF11
	.uleb128 0x2
	.byte	0x8
	.byte	0x7
	.4byte	.LASF12
	.uleb128 0x7
	.byte	0x4
	.4byte	0xa6
	.uleb128 0x8
	.uleb128 0x9
	.byte	0x4
	.uleb128 0x2
	.byte	0x1
	.byte	0x8
	.4byte	.LASF13
	.uleb128 0xa
	.4byte	0x80
	.4byte	0xc1
	.uleb128 0xb
	.4byte	0x30
	.2byte	0xfff
	.byte	0
	.uleb128 0xc
	.ascii	"tlb\000"
	.byte	0x1
	.byte	0x53
	.byte	0x31
	.4byte	0xb0
	.2byte	0x4000
	.byte	0x5
	.byte	0x3
	.4byte	tlb
	.uleb128 0xd
	.byte	0x1
	.4byte	.LASF15
	.byte	0x1
	.byte	0xea
	.byte	0x6
	.byte	0x1
	.4byte	.LFB148
	.4byte	.LFE148
	.4byte	.LLST125
	.byte	0x1
	.4byte	0x33a
	.uleb128 0xe
	.4byte	.LASF14
	.byte	0x1
	.byte	0xec
	.byte	0xe
	.4byte	0x80
	.4byte	.LLST126
	.4byte	.LVUS126
	.uleb128 0xf
	.4byte	0x144d
	.4byte	.LBI610
	.byte	.LVU911
	.4byte	.LBB610
	.4byte	.LBE610
	.byte	0x1
	.2byte	0x1f6
	.byte	0x5
	.4byte	0x1a4
	.uleb128 0x10
	.4byte	0x145b
	.4byte	.LLST127
	.4byte	.LVUS127
	.uleb128 0x11
	.4byte	0x173b
	.4byte	.LBI612
	.byte	.LVU913
	.4byte	.LBB612
	.4byte	.LBE612
	.byte	0x1
	.byte	0x60
	.byte	0x5
	.4byte	0x152
	.uleb128 0x10
	.4byte	0x1749
	.4byte	.LLST128
	.4byte	.LVUS128
	.byte	0
	.uleb128 0x11
	.4byte	0x1720
	.4byte	.LBI614
	.byte	.LVU917
	.4byte	.LBB614
	.4byte	.LBE614
	.byte	0x1
	.byte	0x64
	.byte	0x5
	.4byte	0x179
	.uleb128 0x10
	.4byte	0x172e
	.4byte	.LLST129
	.4byte	.LVUS129
	.byte	0
	.uleb128 0x12
	.4byte	0x1761
	.4byte	.LBI616
	.byte	.LVU921
	.4byte	.LBB616
	.4byte	.LBE616
	.byte	0x1
	.byte	0x66
	.byte	0x5
	.uleb128 0x12
	.4byte	0x176c
	.4byte	.LBI618
	.byte	.LVU924
	.4byte	.LBB618
	.4byte	.LBE618
	.byte	0x1
	.byte	0x67
	.byte	0x5
	.byte	0
	.uleb128 0x13
	.4byte	0x13b0
	.4byte	.LBI620
	.byte	.LVU928
	.4byte	.Ldebug_ranges0+0x478
	.byte	0x1
	.2byte	0x1f7
	.byte	0x5
	.4byte	0x288
	.uleb128 0x14
	.4byte	.Ldebug_ranges0+0x478
	.uleb128 0x15
	.4byte	0x13bf
	.4byte	.LLST130
	.4byte	.LVUS130
	.uleb128 0x11
	.4byte	0x16e6
	.4byte	.LBI622
	.byte	.LVU930
	.4byte	.LBB622
	.4byte	.LBE622
	.byte	0x1
	.byte	0x72
	.byte	0x16
	.4byte	0x1fd
	.uleb128 0x16
	.4byte	.LBB623
	.4byte	.LBE623
	.uleb128 0x15
	.4byte	0x16f8
	.4byte	.LLST131
	.4byte	.LVUS131
	.byte	0
	.byte	0
	.uleb128 0x17
	.4byte	0x15b1
	.4byte	.LBI624
	.byte	.LVU938
	.4byte	.Ldebug_ranges0+0x4a0
	.byte	0x1
	.byte	0x75
	.byte	0x9
	.4byte	0x267
	.uleb128 0xf
	.4byte	0x16c9
	.4byte	.LBI625
	.byte	.LVU940
	.4byte	.LBB625
	.4byte	.LBE625
	.byte	0x2
	.2byte	0x377
	.byte	0x3
	.4byte	0x23a
	.uleb128 0x10
	.4byte	0x16d8
	.4byte	.LLST132
	.4byte	.LVUS132
	.byte	0
	.uleb128 0x18
	.4byte	0x1761
	.4byte	.LBI627
	.byte	.LVU944
	.4byte	.LBB627
	.4byte	.LBE627
	.byte	0x2
	.2byte	0x378
	.byte	0x3
	.uleb128 0x18
	.4byte	0x176c
	.4byte	.LBI629
	.byte	.LVU947
	.4byte	.LBB629
	.4byte	.LBE629
	.byte	0x2
	.2byte	0x379
	.byte	0x3
	.byte	0
	.uleb128 0x19
	.4byte	0x1705
	.4byte	.LBI634
	.byte	.LVU950
	.4byte	.Ldebug_ranges0+0x4c8
	.byte	0x1
	.byte	0x76
	.byte	0x9
	.uleb128 0x10
	.4byte	0x1713
	.4byte	.LLST133
	.4byte	.LVUS133
	.byte	0
	.byte	0
	.byte	0
	.uleb128 0xf
	.4byte	0x1468
	.4byte	.LBI644
	.byte	.LVU956
	.4byte	.LBB644
	.4byte	.LBE644
	.byte	0x1
	.2byte	0x1f8
	.byte	0x5
	.4byte	0x30f
	.uleb128 0xf
	.4byte	0x16e6
	.4byte	.LBI646
	.byte	.LVU958
	.4byte	.LBB646
	.4byte	.LBE646
	.byte	0x2
	.2byte	0xa18
	.byte	0x11
	.4byte	0x2d4
	.uleb128 0x16
	.4byte	.LBB647
	.4byte	.LBE647
	.uleb128 0x15
	.4byte	0x16f8
	.4byte	.LLST134
	.4byte	.LVUS134
	.byte	0
	.byte	0
	.uleb128 0x13
	.4byte	0x1705
	.4byte	.LBI648
	.byte	.LVU963
	.4byte	.Ldebug_ranges0+0x4e0
	.byte	0x2
	.2byte	0xa18
	.byte	0x3
	.4byte	0x2f8
	.uleb128 0x10
	.4byte	0x1713
	.4byte	.LLST135
	.4byte	.LVUS135
	.byte	0
	.uleb128 0x18
	.4byte	0x176c
	.4byte	.LBI652
	.byte	.LVU970
	.4byte	.LBB652
	.4byte	.LBE652
	.byte	0x2
	.2byte	0xa19
	.byte	0x3
	.byte	0
	.uleb128 0x1a
	.4byte	.LVL177
	.4byte	0x1854
	.4byte	0x32f
	.uleb128 0x1b
	.byte	0x1
	.byte	0x50
	.byte	0x2
	.byte	0x74
	.sleb128 0
	.uleb128 0x1b
	.byte	0x1
	.byte	0x51
	.byte	0x1
	.byte	0x30
	.uleb128 0x1b
	.byte	0x1
	.byte	0x52
	.byte	0x3
	.byte	0xa
	.2byte	0x4000
	.byte	0
	.uleb128 0x1c
	.4byte	.LVL195
	.byte	0x1
	.4byte	0x7cc
	.byte	0
	.uleb128 0xd
	.byte	0x1
	.4byte	.LASF16
	.byte	0x1
	.byte	0xca
	.byte	0x6
	.byte	0x1
	.4byte	.LFB147
	.4byte	.LFE147
	.4byte	.LLST89
	.byte	0x1
	.4byte	0x7cc
	.uleb128 0xe
	.4byte	.LASF17
	.byte	0x1
	.byte	0xcc
	.byte	0xe
	.4byte	0x80
	.4byte	.LLST90
	.4byte	.LVUS90
	.uleb128 0x17
	.4byte	0x16e6
	.4byte	.LBI542
	.byte	.LVU570
	.4byte	.Ldebug_ranges0+0x338
	.byte	0x1
	.byte	0xcc
	.byte	0x16
	.4byte	0x392
	.uleb128 0x14
	.4byte	.Ldebug_ranges0+0x338
	.uleb128 0x15
	.4byte	0x16f8
	.4byte	.LLST91
	.4byte	.LVUS91
	.byte	0
	.byte	0
	.uleb128 0x17
	.4byte	0x147e
	.4byte	.LBI546
	.byte	.LVU580
	.4byte	.Ldebug_ranges0+0x350
	.byte	0x1
	.byte	0xcf
	.byte	0x9
	.4byte	0x599
	.uleb128 0x1d
	.4byte	0x1494
	.4byte	.LBI547
	.byte	.LVU582
	.4byte	.Ldebug_ranges0+0x358
	.byte	0x2
	.2byte	0x402
	.byte	0x3
	.uleb128 0x10
	.4byte	0x14a3
	.4byte	.LLST92
	.4byte	.LVUS92
	.uleb128 0x14
	.4byte	.Ldebug_ranges0+0x358
	.uleb128 0x15
	.4byte	0x14af
	.4byte	.LLST93
	.4byte	.LVUS93
	.uleb128 0x15
	.4byte	0x14bc
	.4byte	.LLST94
	.4byte	.LVUS94
	.uleb128 0xf
	.4byte	0x1613
	.4byte	.LBI549
	.byte	.LVU586
	.4byte	.LBB549
	.4byte	.LBE549
	.byte	0x2
	.2byte	0x3e4
	.byte	0xb
	.4byte	0x417
	.uleb128 0x16
	.4byte	.LBB550
	.4byte	.LBE550
	.uleb128 0x15
	.4byte	0x1626
	.4byte	.LLST95
	.4byte	.LVUS95
	.byte	0
	.byte	0
	.uleb128 0x1e
	.4byte	0x14c9
	.4byte	.Ldebug_ranges0+0x370
	.uleb128 0x15
	.4byte	0x14ca
	.4byte	.LLST96
	.4byte	.LVUS96
	.uleb128 0x1d
	.4byte	0x14d7
	.4byte	.LBI552
	.byte	.LVU602
	.4byte	.Ldebug_ranges0+0x388
	.byte	0x2
	.2byte	0x3ea
	.byte	0x7
	.uleb128 0x10
	.4byte	0x14f3
	.4byte	.LLST97
	.4byte	.LVUS97
	.uleb128 0x10
	.4byte	0x14e6
	.4byte	.LLST98
	.4byte	.LVUS98
	.uleb128 0x14
	.4byte	.Ldebug_ranges0+0x388
	.uleb128 0x15
	.4byte	0x1500
	.4byte	.LLST99
	.4byte	.LVUS99
	.uleb128 0x1f
	.4byte	0x150d
	.uleb128 0x1f
	.4byte	0x151a
	.uleb128 0x15
	.4byte	0x1527
	.4byte	.LLST100
	.4byte	.LVUS100
	.uleb128 0x1f
	.4byte	0x1534
	.uleb128 0x1f
	.4byte	0x1541
	.uleb128 0x15
	.4byte	0x154e
	.4byte	.LLST101
	.4byte	.LVUS101
	.uleb128 0xf
	.4byte	0x1655
	.4byte	.LBI554
	.byte	.LVU612
	.4byte	.LBB554
	.4byte	.LBE554
	.byte	0x2
	.2byte	0x3c2
	.byte	0x3
	.4byte	0x4c1
	.uleb128 0x10
	.4byte	0x1664
	.4byte	.LLST102
	.4byte	.LVUS102
	.byte	0
	.uleb128 0xf
	.4byte	0x1634
	.4byte	.LBI556
	.byte	.LVU616
	.4byte	.LBB556
	.4byte	.LBE556
	.byte	0x2
	.2byte	0x3c4
	.byte	0xc
	.4byte	0x4eb
	.uleb128 0x16
	.4byte	.LBB557
	.4byte	.LBE557
	.uleb128 0x1f
	.4byte	0x1647
	.byte	0
	.byte	0
	.uleb128 0x13
	.4byte	0x157a
	.4byte	.LBI558
	.byte	.LVU627
	.4byte	.Ldebug_ranges0+0x3a0
	.byte	0x2
	.2byte	0x3c8
	.byte	0x13
	.4byte	0x52f
	.uleb128 0x10
	.4byte	0x158d
	.4byte	.LLST103
	.4byte	.LVUS103
	.uleb128 0x14
	.4byte	.Ldebug_ranges0+0x3a0
	.uleb128 0x15
	.4byte	0x1598
	.4byte	.LLST104
	.4byte	.LVUS104
	.uleb128 0x15
	.4byte	0x15a5
	.4byte	.LLST105
	.4byte	.LVUS105
	.byte	0
	.byte	0
	.uleb128 0x20
	.4byte	0x155b
	.4byte	.Ldebug_ranges0+0x3b8
	.4byte	0x57d
	.uleb128 0x15
	.4byte	0x155c
	.4byte	.LLST106
	.4byte	.LVUS106
	.uleb128 0x21
	.4byte	0x1569
	.4byte	.LBB562
	.4byte	.LBE562
	.uleb128 0x15
	.4byte	0x156a
	.4byte	.LLST107
	.4byte	.LVUS107
	.uleb128 0x1d
	.4byte	0x15d9
	.4byte	.LBI563
	.byte	.LVU661
	.4byte	.Ldebug_ranges0+0x3d0
	.byte	0x2
	.2byte	0x3d5
	.byte	0x12
	.uleb128 0x22
	.4byte	0x15e8
	.byte	0
	.byte	0
	.byte	0
	.uleb128 0x18
	.4byte	0x1756
	.4byte	.LBI568
	.byte	.LVU670
	.4byte	.LBB568
	.4byte	.LBE568
	.byte	0x2
	.2byte	0x3da
	.byte	0x3
	.byte	0
	.byte	0
	.byte	0
	.byte	0
	.byte	0
	.byte	0
	.uleb128 0x17
	.4byte	0x1705
	.4byte	.LBI577
	.byte	.LVU677
	.4byte	.Ldebug_ranges0+0x3e8
	.byte	0x1
	.byte	0xd0
	.byte	0x9
	.4byte	0x5bc
	.uleb128 0x10
	.4byte	0x1713
	.4byte	.LLST108
	.4byte	.LVUS108
	.byte	0
	.uleb128 0x19
	.4byte	0x1489
	.4byte	.LBI581
	.byte	.LVU683
	.4byte	.Ldebug_ranges0+0x400
	.byte	0x1
	.byte	0xd1
	.byte	0x9
	.uleb128 0x23
	.4byte	0x1494
	.4byte	.LBI582
	.byte	.LVU685
	.4byte	.LBB582
	.4byte	.LBE582
	.byte	0x2
	.2byte	0x3fc
	.byte	0x3
	.uleb128 0x10
	.4byte	0x14a3
	.4byte	.LLST109
	.4byte	.LVUS109
	.uleb128 0x16
	.4byte	.LBB583
	.4byte	.LBE583
	.uleb128 0x15
	.4byte	0x14af
	.4byte	.LLST110
	.4byte	.LVUS110
	.uleb128 0x15
	.4byte	0x14bc
	.4byte	.LLST111
	.4byte	.LVUS111
	.uleb128 0xf
	.4byte	0x1613
	.4byte	.LBI584
	.byte	.LVU689
	.4byte	.LBB584
	.4byte	.LBE584
	.byte	0x2
	.2byte	0x3e4
	.byte	0xb
	.4byte	0x645
	.uleb128 0x16
	.4byte	.LBB585
	.4byte	.LBE585
	.uleb128 0x15
	.4byte	0x1626
	.4byte	.LLST112
	.4byte	.LVUS112
	.byte	0
	.byte	0
	.uleb128 0x21
	.4byte	0x14c9
	.4byte	.LBB586
	.4byte	.LBE586
	.uleb128 0x15
	.4byte	0x14ca
	.4byte	.LLST113
	.4byte	.LVUS113
	.uleb128 0x1d
	.4byte	0x14d7
	.4byte	.LBI587
	.byte	.LVU705
	.4byte	.Ldebug_ranges0+0x418
	.byte	0x2
	.2byte	0x3ea
	.byte	0x7
	.uleb128 0x10
	.4byte	0x14f3
	.4byte	.LLST114
	.4byte	.LVUS114
	.uleb128 0x10
	.4byte	0x14e6
	.4byte	.LLST115
	.4byte	.LVUS115
	.uleb128 0x14
	.4byte	.Ldebug_ranges0+0x418
	.uleb128 0x15
	.4byte	0x1500
	.4byte	.LLST116
	.4byte	.LVUS116
	.uleb128 0x1f
	.4byte	0x150d
	.uleb128 0x1f
	.4byte	0x151a
	.uleb128 0x15
	.4byte	0x1527
	.4byte	.LLST117
	.4byte	.LVUS117
	.uleb128 0x1f
	.4byte	0x1534
	.uleb128 0x1f
	.4byte	0x1541
	.uleb128 0x15
	.4byte	0x154e
	.4byte	.LLST118
	.4byte	.LVUS118
	.uleb128 0xf
	.4byte	0x1655
	.4byte	.LBI589
	.byte	.LVU715
	.4byte	.LBB589
	.4byte	.LBE589
	.byte	0x2
	.2byte	0x3c2
	.byte	0x3
	.4byte	0x6f3
	.uleb128 0x10
	.4byte	0x1664
	.4byte	.LLST119
	.4byte	.LVUS119
	.byte	0
	.uleb128 0xf
	.4byte	0x1634
	.4byte	.LBI591
	.byte	.LVU719
	.4byte	.LBB591
	.4byte	.LBE591
	.byte	0x2
	.2byte	0x3c4
	.byte	0xc
	.4byte	0x71d
	.uleb128 0x16
	.4byte	.LBB592
	.4byte	.LBE592
	.uleb128 0x1f
	.4byte	0x1647
	.byte	0
	.byte	0
	.uleb128 0x13
	.4byte	0x157a
	.4byte	.LBI593
	.byte	.LVU730
	.4byte	.Ldebug_ranges0+0x430
	.byte	0x2
	.2byte	0x3c8
	.byte	0x13
	.4byte	0x761
	.uleb128 0x10
	.4byte	0x158d
	.4byte	.LLST120
	.4byte	.LVUS120
	.uleb128 0x14
	.4byte	.Ldebug_ranges0+0x430
	.uleb128 0x15
	.4byte	0x1598
	.4byte	.LLST121
	.4byte	.LVUS121
	.uleb128 0x15
	.4byte	0x15a5
	.4byte	.LLST122
	.4byte	.LVUS122
	.byte	0
	.byte	0
	.uleb128 0x20
	.4byte	0x155b
	.4byte	.Ldebug_ranges0+0x448
	.4byte	0x7af
	.uleb128 0x15
	.4byte	0x155c
	.4byte	.LLST123
	.4byte	.LVUS123
	.uleb128 0x21
	.4byte	0x1569
	.4byte	.LBB597
	.4byte	.LBE597
	.uleb128 0x15
	.4byte	0x156a
	.4byte	.LLST124
	.4byte	.LVUS124
	.uleb128 0x1d
	.4byte	0x15f6
	.4byte	.LBI598
	.byte	.LVU764
	.4byte	.Ldebug_ranges0+0x460
	.byte	0x2
	.2byte	0x3d4
	.byte	0x12
	.uleb128 0x22
	.4byte	0x1605
	.byte	0
	.byte	0
	.byte	0
	.uleb128 0x18
	.4byte	0x1756
	.4byte	.LBI603
	.byte	.LVU773
	.4byte	.LBB603
	.4byte	.LBE603
	.byte	0x2
	.2byte	0x3da
	.byte	0x3
	.byte	0
	.byte	0
	.byte	0
	.byte	0
	.byte	0
	.byte	0
	.byte	0
	.uleb128 0xd
	.byte	0x1
	.4byte	.LASF18
	.byte	0x1
	.byte	0xc0
	.byte	0x6
	.byte	0x1
	.4byte	.LFB146
	.4byte	.LFE146
	.4byte	.LLST69
	.byte	0x1
	.4byte	0xa4b
	.uleb128 0xe
	.4byte	.LASF17
	.byte	0x1
	.byte	0xc2
	.byte	0xe
	.4byte	0x80
	.4byte	.LLST70
	.4byte	.LVUS70
	.uleb128 0x17
	.4byte	0x16e6
	.4byte	.LBI502
	.byte	.LVU455
	.4byte	.Ldebug_ranges0+0x270
	.byte	0x1
	.byte	0xc2
	.byte	0x16
	.4byte	0x824
	.uleb128 0x14
	.4byte	.Ldebug_ranges0+0x270
	.uleb128 0x15
	.4byte	0x16f8
	.4byte	.LLST71
	.4byte	.LVUS71
	.byte	0
	.byte	0
	.uleb128 0x17
	.4byte	0x1489
	.4byte	.LBI506
	.byte	.LVU465
	.4byte	.Ldebug_ranges0+0x288
	.byte	0x1
	.byte	0xc5
	.byte	0x9
	.4byte	0xa2b
	.uleb128 0x1d
	.4byte	0x1494
	.4byte	.LBI507
	.byte	.LVU467
	.4byte	.Ldebug_ranges0+0x290
	.byte	0x2
	.2byte	0x3fc
	.byte	0x3
	.uleb128 0x10
	.4byte	0x14a3
	.4byte	.LLST72
	.4byte	.LVUS72
	.uleb128 0x14
	.4byte	.Ldebug_ranges0+0x290
	.uleb128 0x15
	.4byte	0x14af
	.4byte	.LLST73
	.4byte	.LVUS73
	.uleb128 0x15
	.4byte	0x14bc
	.4byte	.LLST74
	.4byte	.LVUS74
	.uleb128 0xf
	.4byte	0x1613
	.4byte	.LBI509
	.byte	.LVU471
	.4byte	.LBB509
	.4byte	.LBE509
	.byte	0x2
	.2byte	0x3e4
	.byte	0xb
	.4byte	0x8a9
	.uleb128 0x16
	.4byte	.LBB510
	.4byte	.LBE510
	.uleb128 0x15
	.4byte	0x1626
	.4byte	.LLST75
	.4byte	.LVUS75
	.byte	0
	.byte	0
	.uleb128 0x1e
	.4byte	0x14c9
	.4byte	.Ldebug_ranges0+0x2a8
	.uleb128 0x15
	.4byte	0x14ca
	.4byte	.LLST76
	.4byte	.LVUS76
	.uleb128 0x1d
	.4byte	0x14d7
	.4byte	.LBI512
	.byte	.LVU486
	.4byte	.Ldebug_ranges0+0x2c0
	.byte	0x2
	.2byte	0x3ea
	.byte	0x7
	.uleb128 0x10
	.4byte	0x14f3
	.4byte	.LLST77
	.4byte	.LVUS77
	.uleb128 0x10
	.4byte	0x14e6
	.4byte	.LLST78
	.4byte	.LVUS78
	.uleb128 0x14
	.4byte	.Ldebug_ranges0+0x2c0
	.uleb128 0x15
	.4byte	0x1500
	.4byte	.LLST79
	.4byte	.LVUS79
	.uleb128 0x1f
	.4byte	0x150d
	.uleb128 0x1f
	.4byte	0x151a
	.uleb128 0x15
	.4byte	0x1527
	.4byte	.LLST80
	.4byte	.LVUS80
	.uleb128 0x1f
	.4byte	0x1534
	.uleb128 0x1f
	.4byte	0x1541
	.uleb128 0x15
	.4byte	0x154e
	.4byte	.LLST81
	.4byte	.LVUS81
	.uleb128 0xf
	.4byte	0x1655
	.4byte	.LBI514
	.byte	.LVU496
	.4byte	.LBB514
	.4byte	.LBE514
	.byte	0x2
	.2byte	0x3c2
	.byte	0x3
	.4byte	0x953
	.uleb128 0x10
	.4byte	0x1664
	.4byte	.LLST82
	.4byte	.LVUS82
	.byte	0
	.uleb128 0xf
	.4byte	0x1634
	.4byte	.LBI516
	.byte	.LVU500
	.4byte	.LBB516
	.4byte	.LBE516
	.byte	0x2
	.2byte	0x3c4
	.byte	0xc
	.4byte	0x97d
	.uleb128 0x16
	.4byte	.LBB517
	.4byte	.LBE517
	.uleb128 0x1f
	.4byte	0x1647
	.byte	0
	.byte	0
	.uleb128 0x13
	.4byte	0x157a
	.4byte	.LBI518
	.byte	.LVU511
	.4byte	.Ldebug_ranges0+0x2d8
	.byte	0x2
	.2byte	0x3c8
	.byte	0x13
	.4byte	0x9c1
	.uleb128 0x10
	.4byte	0x158d
	.4byte	.LLST83
	.4byte	.LVUS83
	.uleb128 0x14
	.4byte	.Ldebug_ranges0+0x2d8
	.uleb128 0x15
	.4byte	0x1598
	.4byte	.LLST84
	.4byte	.LVUS84
	.uleb128 0x15
	.4byte	0x15a5
	.4byte	.LLST85
	.4byte	.LVUS85
	.byte	0
	.byte	0
	.uleb128 0x20
	.4byte	0x155b
	.4byte	.Ldebug_ranges0+0x2f0
	.4byte	0xa0f
	.uleb128 0x15
	.4byte	0x155c
	.4byte	.LLST86
	.4byte	.LVUS86
	.uleb128 0x21
	.4byte	0x1569
	.4byte	.LBB522
	.4byte	.LBE522
	.uleb128 0x15
	.4byte	0x156a
	.4byte	.LLST87
	.4byte	.LVUS87
	.uleb128 0x1d
	.4byte	0x15f6
	.4byte	.LBI523
	.byte	.LVU545
	.4byte	.Ldebug_ranges0+0x308
	.byte	0x2
	.2byte	0x3d4
	.byte	0x12
	.uleb128 0x22
	.4byte	0x1605
	.byte	0
	.byte	0
	.byte	0
	.uleb128 0x18
	.4byte	0x1756
	.4byte	.LBI528
	.byte	.LVU554
	.4byte	.LBB528
	.4byte	.LBE528
	.byte	0x2
	.2byte	0x3da
	.byte	0x3
	.byte	0
	.byte	0
	.byte	0
	.byte	0
	.byte	0
	.byte	0
	.uleb128 0x19
	.4byte	0x1705
	.4byte	.LBI537
	.byte	.LVU561
	.4byte	.Ldebug_ranges0+0x320
	.byte	0x1
	.byte	0xc6
	.byte	0x9
	.uleb128 0x10
	.4byte	0x1713
	.4byte	.LLST88
	.4byte	.LVUS88
	.byte	0
	.byte	0
	.uleb128 0xd
	.byte	0x1
	.4byte	.LASF19
	.byte	0x1
	.byte	0xb1
	.byte	0x6
	.byte	0x1
	.4byte	.LFB145
	.4byte	.LFE145
	.4byte	.LLST65
	.byte	0x1
	.4byte	0xb0b
	.uleb128 0x24
	.4byte	.LASF20
	.byte	0x1
	.byte	0xb1
	.byte	0x32
	.4byte	0xa0
	.byte	0x1
	.byte	0x50
	.uleb128 0x24
	.4byte	.LASF21
	.byte	0x1
	.byte	0xb1
	.byte	0x41
	.4byte	0x4c
	.byte	0x1
	.byte	0x51
	.uleb128 0x25
	.4byte	.LASF24
	.byte	0x1
	.byte	0xb3
	.byte	0x17
	.4byte	0x8d
	.byte	0x2
	.byte	0x91
	.sleb128 -4
	.uleb128 0xe
	.4byte	.LASF22
	.byte	0x1
	.byte	0xb4
	.byte	0xe
	.4byte	0x80
	.4byte	.LLST66
	.4byte	.LVUS66
	.uleb128 0x26
	.ascii	"mva\000"
	.byte	0x1
	.byte	0xb5
	.byte	0xe
	.4byte	0x80
	.4byte	.LLST67
	.4byte	.LVUS67
	.uleb128 0x11
	.4byte	0x1672
	.4byte	.LBI496
	.byte	.LVU438
	.4byte	.LBB496
	.4byte	.LBE496
	.byte	0x1
	.byte	0xb9
	.byte	0x9
	.4byte	0xae0
	.uleb128 0x10
	.4byte	0x1681
	.4byte	.LLST68
	.4byte	.LVUS68
	.byte	0
	.uleb128 0x12
	.4byte	0x1756
	.4byte	.LBI498
	.byte	.LVU442
	.4byte	.LBB498
	.4byte	.LBE498
	.byte	0x1
	.byte	0xba
	.byte	0x9
	.uleb128 0x12
	.4byte	0x1761
	.4byte	.LBI500
	.byte	.LVU450
	.4byte	.LBB500
	.4byte	.LBE500
	.byte	0x1
	.byte	0xbd
	.byte	0x5
	.byte	0
	.uleb128 0xd
	.byte	0x1
	.4byte	.LASF23
	.byte	0x1
	.byte	0xa2
	.byte	0x6
	.byte	0x1
	.4byte	.LFB144
	.4byte	.LFE144
	.4byte	.LLST61
	.byte	0x1
	.4byte	0xbcb
	.uleb128 0x24
	.4byte	.LASF20
	.byte	0x1
	.byte	0xa2
	.byte	0x28
	.4byte	0xa0
	.byte	0x1
	.byte	0x50
	.uleb128 0x24
	.4byte	.LASF21
	.byte	0x1
	.byte	0xa2
	.byte	0x37
	.4byte	0x4c
	.byte	0x1
	.byte	0x51
	.uleb128 0x25
	.4byte	.LASF24
	.byte	0x1
	.byte	0xa4
	.byte	0x17
	.4byte	0x8d
	.byte	0x2
	.byte	0x91
	.sleb128 -4
	.uleb128 0xe
	.4byte	.LASF22
	.byte	0x1
	.byte	0xa5
	.byte	0xe
	.4byte	0x80
	.4byte	.LLST62
	.4byte	.LVUS62
	.uleb128 0x26
	.ascii	"mva\000"
	.byte	0x1
	.byte	0xa6
	.byte	0xe
	.4byte	0x80
	.4byte	.LLST63
	.4byte	.LVUS63
	.uleb128 0x11
	.4byte	0x16ac
	.4byte	.LBI490
	.byte	.LVU410
	.4byte	.LBB490
	.4byte	.LBE490
	.byte	0x1
	.byte	0xaa
	.byte	0x9
	.4byte	0xba0
	.uleb128 0x10
	.4byte	0x16bb
	.4byte	.LLST64
	.4byte	.LVUS64
	.byte	0
	.uleb128 0x12
	.4byte	0x1756
	.4byte	.LBI492
	.byte	.LVU414
	.4byte	.LBB492
	.4byte	.LBE492
	.byte	0x1
	.byte	0xab
	.byte	0x9
	.uleb128 0x12
	.4byte	0x1761
	.4byte	.LBI494
	.byte	.LVU422
	.4byte	.LBB494
	.4byte	.LBE494
	.byte	0x1
	.byte	0xae
	.byte	0x5
	.byte	0
	.uleb128 0xd
	.byte	0x1
	.4byte	.LASF25
	.byte	0x1
	.byte	0x93
	.byte	0x6
	.byte	0x1
	.4byte	.LFB143
	.4byte	.LFE143
	.4byte	.LLST57
	.byte	0x1
	.4byte	0xc8b
	.uleb128 0x24
	.4byte	.LASF20
	.byte	0x1
	.byte	0x93
	.byte	0x2d
	.4byte	0xa0
	.byte	0x1
	.byte	0x50
	.uleb128 0x24
	.4byte	.LASF21
	.byte	0x1
	.byte	0x93
	.byte	0x3c
	.4byte	0x4c
	.byte	0x1
	.byte	0x51
	.uleb128 0x25
	.4byte	.LASF24
	.byte	0x1
	.byte	0x95
	.byte	0x17
	.4byte	0x8d
	.byte	0x2
	.byte	0x91
	.sleb128 -4
	.uleb128 0xe
	.4byte	.LASF22
	.byte	0x1
	.byte	0x96
	.byte	0xe
	.4byte	0x80
	.4byte	.LLST58
	.4byte	.LVUS58
	.uleb128 0x26
	.ascii	"mva\000"
	.byte	0x1
	.byte	0x97
	.byte	0xe
	.4byte	0x80
	.4byte	.LLST59
	.4byte	.LVUS59
	.uleb128 0x11
	.4byte	0x168f
	.4byte	.LBI484
	.byte	.LVU382
	.4byte	.LBB484
	.4byte	.LBE484
	.byte	0x1
	.byte	0x9b
	.byte	0x9
	.4byte	0xc60
	.uleb128 0x10
	.4byte	0x169e
	.4byte	.LLST60
	.4byte	.LVUS60
	.byte	0
	.uleb128 0x12
	.4byte	0x1756
	.4byte	.LBI486
	.byte	.LVU386
	.4byte	.LBB486
	.4byte	.LBE486
	.byte	0x1
	.byte	0x9c
	.byte	0x9
	.uleb128 0x12
	.4byte	0x1761
	.4byte	.LBI488
	.byte	.LVU394
	.4byte	.LBB488
	.4byte	.LBE488
	.byte	0x1
	.byte	0x9f
	.byte	0x5
	.byte	0
	.uleb128 0xd
	.byte	0x1
	.4byte	.LASF26
	.byte	0x1
	.byte	0x8e
	.byte	0x6
	.byte	0x1
	.4byte	.LFB142
	.4byte	.LFE142
	.4byte	.LLST41
	.byte	0x1
	.4byte	0xe9f
	.uleb128 0x19
	.4byte	0x1473
	.4byte	.LBI451
	.byte	.LVU271
	.4byte	.Ldebug_ranges0+0x1d8
	.byte	0x1
	.byte	0x90
	.byte	0x5
	.uleb128 0x1d
	.4byte	0x1494
	.4byte	.LBI452
	.byte	.LVU273
	.4byte	.Ldebug_ranges0+0x1e0
	.byte	0x2
	.2byte	0x408
	.byte	0x3
	.uleb128 0x27
	.4byte	0x14a3
	.byte	0x2
	.uleb128 0x14
	.4byte	.Ldebug_ranges0+0x1e0
	.uleb128 0x15
	.4byte	0x14af
	.4byte	.LLST42
	.4byte	.LVUS42
	.uleb128 0x15
	.4byte	0x14bc
	.4byte	.LLST43
	.4byte	.LVUS43
	.uleb128 0x13
	.4byte	0x1613
	.4byte	.LBI454
	.byte	.LVU277
	.4byte	.Ldebug_ranges0+0x1f8
	.byte	0x2
	.2byte	0x3e4
	.byte	0xb
	.4byte	0xd18
	.uleb128 0x14
	.4byte	.Ldebug_ranges0+0x1f8
	.uleb128 0x15
	.4byte	0x1626
	.4byte	.LLST44
	.4byte	.LVUS44
	.byte	0
	.byte	0
	.uleb128 0x21
	.4byte	0x14c9
	.4byte	.LBB458
	.4byte	.LBE458
	.uleb128 0x15
	.4byte	0x14ca
	.4byte	.LLST45
	.4byte	.LVUS45
	.uleb128 0x1d
	.4byte	0x14d7
	.4byte	.LBI459
	.byte	.LVU295
	.4byte	.Ldebug_ranges0+0x210
	.byte	0x2
	.2byte	0x3ea
	.byte	0x7
	.uleb128 0x10
	.4byte	0x14f3
	.4byte	.LLST46
	.4byte	.LVUS46
	.uleb128 0x10
	.4byte	0x14e6
	.4byte	.LLST47
	.4byte	.LVUS47
	.uleb128 0x14
	.4byte	.Ldebug_ranges0+0x210
	.uleb128 0x15
	.4byte	0x1500
	.4byte	.LLST48
	.4byte	.LVUS48
	.uleb128 0x1f
	.4byte	0x150d
	.uleb128 0x1f
	.4byte	0x151a
	.uleb128 0x15
	.4byte	0x1527
	.4byte	.LLST49
	.4byte	.LVUS49
	.uleb128 0x1f
	.4byte	0x1534
	.uleb128 0x1f
	.4byte	0x1541
	.uleb128 0x15
	.4byte	0x154e
	.4byte	.LLST50
	.4byte	.LVUS50
	.uleb128 0xf
	.4byte	0x1655
	.4byte	.LBI461
	.byte	.LVU305
	.4byte	.LBB461
	.4byte	.LBE461
	.byte	0x2
	.2byte	0x3c2
	.byte	0x3
	.4byte	0xdc6
	.uleb128 0x10
	.4byte	0x1664
	.4byte	.LLST51
	.4byte	.LVUS51
	.byte	0
	.uleb128 0xf
	.4byte	0x1634
	.4byte	.LBI463
	.byte	.LVU309
	.4byte	.LBB463
	.4byte	.LBE463
	.byte	0x2
	.2byte	0x3c4
	.byte	0xc
	.4byte	0xdf0
	.uleb128 0x16
	.4byte	.LBB464
	.4byte	.LBE464
	.uleb128 0x1f
	.4byte	0x1647
	.byte	0
	.byte	0
	.uleb128 0x13
	.4byte	0x157a
	.4byte	.LBI465
	.byte	.LVU320
	.4byte	.Ldebug_ranges0+0x228
	.byte	0x2
	.2byte	0x3c8
	.byte	0x13
	.4byte	0xe34
	.uleb128 0x10
	.4byte	0x158d
	.4byte	.LLST52
	.4byte	.LVUS52
	.uleb128 0x14
	.4byte	.Ldebug_ranges0+0x228
	.uleb128 0x15
	.4byte	0x1598
	.4byte	.LLST53
	.4byte	.LVUS53
	.uleb128 0x15
	.4byte	0x15a5
	.4byte	.LLST54
	.4byte	.LVUS54
	.byte	0
	.byte	0
	.uleb128 0x20
	.4byte	0x155b
	.4byte	.Ldebug_ranges0+0x240
	.4byte	0xe82
	.uleb128 0x15
	.4byte	0x155c
	.4byte	.LLST55
	.4byte	.LVUS55
	.uleb128 0x21
	.4byte	0x1569
	.4byte	.LBB469
	.4byte	.LBE469
	.uleb128 0x15
	.4byte	0x156a
	.4byte	.LLST56
	.4byte	.LVUS56
	.uleb128 0x1d
	.4byte	0x15bc
	.4byte	.LBI470
	.byte	.LVU354
	.4byte	.Ldebug_ranges0+0x258
	.byte	0x2
	.2byte	0x3d6
	.byte	0x12
	.uleb128 0x22
	.4byte	0x15cb
	.byte	0
	.byte	0
	.byte	0
	.uleb128 0x18
	.4byte	0x1756
	.4byte	.LBI475
	.byte	.LVU363
	.4byte	.LBB475
	.4byte	.LBE475
	.byte	0x2
	.2byte	0x3da
	.byte	0x3
	.byte	0
	.byte	0
	.byte	0
	.byte	0
	.byte	0
	.byte	0
	.byte	0
	.uleb128 0xd
	.byte	0x1
	.4byte	.LASF27
	.byte	0x1
	.byte	0x89
	.byte	0x6
	.byte	0x1
	.4byte	.LFB141
	.4byte	.LFE141
	.4byte	.LLST25
	.byte	0x1
	.4byte	0x10b3
	.uleb128 0x19
	.4byte	0x147e
	.4byte	.LBI418
	.byte	.LVU171
	.4byte	.Ldebug_ranges0+0x140
	.byte	0x1
	.byte	0x8b
	.byte	0x5
	.uleb128 0x1d
	.4byte	0x1494
	.4byte	.LBI419
	.byte	.LVU173
	.4byte	.Ldebug_ranges0+0x148
	.byte	0x2
	.2byte	0x402
	.byte	0x3
	.uleb128 0x27
	.4byte	0x14a3
	.byte	0x1
	.uleb128 0x14
	.4byte	.Ldebug_ranges0+0x148
	.uleb128 0x15
	.4byte	0x14af
	.4byte	.LLST26
	.4byte	.LVUS26
	.uleb128 0x15
	.4byte	0x14bc
	.4byte	.LLST27
	.4byte	.LVUS27
	.uleb128 0x13
	.4byte	0x1613
	.4byte	.LBI421
	.byte	.LVU177
	.4byte	.Ldebug_ranges0+0x160
	.byte	0x2
	.2byte	0x3e4
	.byte	0xb
	.4byte	0xf2c
	.uleb128 0x14
	.4byte	.Ldebug_ranges0+0x160
	.uleb128 0x15
	.4byte	0x1626
	.4byte	.LLST28
	.4byte	.LVUS28
	.byte	0
	.byte	0
	.uleb128 0x21
	.4byte	0x14c9
	.4byte	.LBB425
	.4byte	.LBE425
	.uleb128 0x15
	.4byte	0x14ca
	.4byte	.LLST29
	.4byte	.LVUS29
	.uleb128 0x1d
	.4byte	0x14d7
	.4byte	.LBI426
	.byte	.LVU195
	.4byte	.Ldebug_ranges0+0x178
	.byte	0x2
	.2byte	0x3ea
	.byte	0x7
	.uleb128 0x10
	.4byte	0x14f3
	.4byte	.LLST30
	.4byte	.LVUS30
	.uleb128 0x10
	.4byte	0x14e6
	.4byte	.LLST31
	.4byte	.LVUS31
	.uleb128 0x14
	.4byte	.Ldebug_ranges0+0x178
	.uleb128 0x15
	.4byte	0x1500
	.4byte	.LLST32
	.4byte	.LVUS32
	.uleb128 0x1f
	.4byte	0x150d
	.uleb128 0x1f
	.4byte	0x151a
	.uleb128 0x15
	.4byte	0x1527
	.4byte	.LLST33
	.4byte	.LVUS33
	.uleb128 0x1f
	.4byte	0x1534
	.uleb128 0x1f
	.4byte	0x1541
	.uleb128 0x15
	.4byte	0x154e
	.4byte	.LLST34
	.4byte	.LVUS34
	.uleb128 0xf
	.4byte	0x1655
	.4byte	.LBI428
	.byte	.LVU205
	.4byte	.LBB428
	.4byte	.LBE428
	.byte	0x2
	.2byte	0x3c2
	.byte	0x3
	.4byte	0xfda
	.uleb128 0x10
	.4byte	0x1664
	.4byte	.LLST35
	.4byte	.LVUS35
	.byte	0
	.uleb128 0xf
	.4byte	0x1634
	.4byte	.LBI430
	.byte	.LVU209
	.4byte	.LBB430
	.4byte	.LBE430
	.byte	0x2
	.2byte	0x3c4
	.byte	0xc
	.4byte	0x1004
	.uleb128 0x16
	.4byte	.LBB431
	.4byte	.LBE431
	.uleb128 0x1f
	.4byte	0x1647
	.byte	0
	.byte	0
	.uleb128 0x13
	.4byte	0x157a
	.4byte	.LBI432
	.byte	.LVU220
	.4byte	.Ldebug_ranges0+0x190
	.byte	0x2
	.2byte	0x3c8
	.byte	0x13
	.4byte	0x1048
	.uleb128 0x10
	.4byte	0x158d
	.4byte	.LLST36
	.4byte	.LVUS36
	.uleb128 0x14
	.4byte	.Ldebug_ranges0+0x190
	.uleb128 0x15
	.4byte	0x1598
	.4byte	.LLST37
	.4byte	.LVUS37
	.uleb128 0x15
	.4byte	0x15a5
	.4byte	.LLST38
	.4byte	.LVUS38
	.byte	0
	.byte	0
	.uleb128 0x20
	.4byte	0x155b
	.4byte	.Ldebug_ranges0+0x1a8
	.4byte	0x1096
	.uleb128 0x15
	.4byte	0x155c
	.4byte	.LLST39
	.4byte	.LVUS39
	.uleb128 0x21
	.4byte	0x1569
	.4byte	.LBB436
	.4byte	.LBE436
	.uleb128 0x15
	.4byte	0x156a
	.4byte	.LLST40
	.4byte	.LVUS40
	.uleb128 0x1d
	.4byte	0x15d9
	.4byte	.LBI437
	.byte	.LVU254
	.4byte	.Ldebug_ranges0+0x1c0
	.byte	0x2
	.2byte	0x3d5
	.byte	0x12
	.uleb128 0x22
	.4byte	0x15e8
	.byte	0
	.byte	0
	.byte	0
	.uleb128 0x18
	.4byte	0x1756
	.4byte	.LBI442
	.byte	.LVU263
	.4byte	.LBB442
	.4byte	.LBE442
	.byte	0x2
	.2byte	0x3da
	.byte	0x3
	.byte	0
	.byte	0
	.byte	0
	.byte	0
	.byte	0
	.byte	0
	.byte	0
	.uleb128 0xd
	.byte	0x1
	.4byte	.LASF28
	.byte	0x1
	.byte	0x84
	.byte	0x6
	.byte	0x1
	.4byte	.LFB140
	.4byte	.LFE140
	.4byte	.LLST9
	.byte	0x1
	.4byte	0x12c7
	.uleb128 0x19
	.4byte	0x1489
	.4byte	.LBI385
	.byte	.LVU71
	.4byte	.Ldebug_ranges0+0xa8
	.byte	0x1
	.byte	0x86
	.byte	0x5
	.uleb128 0x1d
	.4byte	0x1494
	.4byte	.LBI386
	.byte	.LVU73
	.4byte	.Ldebug_ranges0+0xb0
	.byte	0x2
	.2byte	0x3fc
	.byte	0x3
	.uleb128 0x27
	.4byte	0x14a3
	.byte	0
	.uleb128 0x14
	.4byte	.Ldebug_ranges0+0xb0
	.uleb128 0x15
	.4byte	0x14af
	.4byte	.LLST10
	.4byte	.LVUS10
	.uleb128 0x15
	.4byte	0x14bc
	.4byte	.LLST11
	.4byte	.LVUS11
	.uleb128 0x13
	.4byte	0x1613
	.4byte	.LBI388
	.byte	.LVU77
	.4byte	.Ldebug_ranges0+0xc8
	.byte	0x2
	.2byte	0x3e4
	.byte	0xb
	.4byte	0x1140
	.uleb128 0x14
	.4byte	.Ldebug_ranges0+0xc8
	.uleb128 0x15
	.4byte	0x1626
	.4byte	.LLST12
	.4byte	.LVUS12
	.byte	0
	.byte	0
	.uleb128 0x21
	.4byte	0x14c9
	.4byte	.LBB392
	.4byte	.LBE392
	.uleb128 0x15
	.4byte	0x14ca
	.4byte	.LLST13
	.4byte	.LVUS13
	.uleb128 0x1d
	.4byte	0x14d7
	.4byte	.LBI393
	.byte	.LVU95
	.4byte	.Ldebug_ranges0+0xe0
	.byte	0x2
	.2byte	0x3ea
	.byte	0x7
	.uleb128 0x10
	.4byte	0x14f3
	.4byte	.LLST14
	.4byte	.LVUS14
	.uleb128 0x10
	.4byte	0x14e6
	.4byte	.LLST15
	.4byte	.LVUS15
	.uleb128 0x14
	.4byte	.Ldebug_ranges0+0xe0
	.uleb128 0x15
	.4byte	0x1500
	.4byte	.LLST16
	.4byte	.LVUS16
	.uleb128 0x1f
	.4byte	0x150d
	.uleb128 0x1f
	.4byte	0x151a
	.uleb128 0x15
	.4byte	0x1527
	.4byte	.LLST17
	.4byte	.LVUS17
	.uleb128 0x1f
	.4byte	0x1534
	.uleb128 0x1f
	.4byte	0x1541
	.uleb128 0x15
	.4byte	0x154e
	.4byte	.LLST18
	.4byte	.LVUS18
	.uleb128 0xf
	.4byte	0x1655
	.4byte	.LBI395
	.byte	.LVU105
	.4byte	.LBB395
	.4byte	.LBE395
	.byte	0x2
	.2byte	0x3c2
	.byte	0x3
	.4byte	0x11ee
	.uleb128 0x10
	.4byte	0x1664
	.4byte	.LLST19
	.4byte	.LVUS19
	.byte	0
	.uleb128 0xf
	.4byte	0x1634
	.4byte	.LBI397
	.byte	.LVU109
	.4byte	.LBB397
	.4byte	.LBE397
	.byte	0x2
	.2byte	0x3c4
	.byte	0xc
	.4byte	0x1218
	.uleb128 0x16
	.4byte	.LBB398
	.4byte	.LBE398
	.uleb128 0x1f
	.4byte	0x1647
	.byte	0
	.byte	0
	.uleb128 0x13
	.4byte	0x157a
	.4byte	.LBI399
	.byte	.LVU120
	.4byte	.Ldebug_ranges0+0xf8
	.byte	0x2
	.2byte	0x3c8
	.byte	0x13
	.4byte	0x125c
	.uleb128 0x10
	.4byte	0x158d
	.4byte	.LLST20
	.4byte	.LVUS20
	.uleb128 0x14
	.4byte	.Ldebug_ranges0+0xf8
	.uleb128 0x15
	.4byte	0x1598
	.4byte	.LLST21
	.4byte	.LVUS21
	.uleb128 0x15
	.4byte	0x15a5
	.4byte	.LLST22
	.4byte	.LVUS22
	.byte	0
	.byte	0
	.uleb128 0x20
	.4byte	0x155b
	.4byte	.Ldebug_ranges0+0x110
	.4byte	0x12aa
	.uleb128 0x15
	.4byte	0x155c
	.4byte	.LLST23
	.4byte	.LVUS23
	.uleb128 0x21
	.4byte	0x1569
	.4byte	.LBB403
	.4byte	.LBE403
	.uleb128 0x15
	.4byte	0x156a
	.4byte	.LLST24
	.4byte	.LVUS24
	.uleb128 0x1d
	.4byte	0x15f6
	.4byte	.LBI404
	.byte	.LVU154
	.4byte	.Ldebug_ranges0+0x128
	.byte	0x2
	.2byte	0x3d4
	.byte	0x12
	.uleb128 0x22
	.4byte	0x1605
	.byte	0
	.byte	0
	.byte	0
	.uleb128 0x18
	.4byte	0x1756
	.4byte	.LBI409
	.byte	.LVU163
	.4byte	.LBB409
	.4byte	.LBE409
	.byte	0x2
	.2byte	0x3da
	.byte	0x3
	.byte	0
	.byte	0
	.byte	0
	.byte	0
	.byte	0
	.byte	0
	.byte	0
	.uleb128 0x28
	.byte	0x1
	.4byte	.LASF29
	.byte	0x1
	.byte	0x7a
	.byte	0x6
	.byte	0x1
	.4byte	.LFB139
	.4byte	.LFE139
	.byte	0x2
	.byte	0x7d
	.sleb128 0
	.byte	0x1
	.4byte	0x13b0
	.uleb128 0xe
	.4byte	.LASF17
	.byte	0x1
	.byte	0x7c
	.byte	0xe
	.4byte	0x80
	.4byte	.LLST5
	.4byte	.LVUS5
	.uleb128 0x11
	.4byte	0x16e6
	.4byte	.LBI369
	.byte	.LVU43
	.4byte	.LBB369
	.4byte	.LBE369
	.byte	0x1
	.byte	0x7c
	.byte	0x16
	.4byte	0x1326
	.uleb128 0x16
	.4byte	.LBB370
	.4byte	.LBE370
	.uleb128 0x15
	.4byte	0x16f8
	.4byte	.LLST6
	.4byte	.LVUS6
	.byte	0
	.byte	0
	.uleb128 0x17
	.4byte	0x1705
	.4byte	.LBI371
	.byte	.LVU51
	.4byte	.Ldebug_ranges0+0x68
	.byte	0x1
	.byte	0x7f
	.byte	0x9
	.4byte	0x1349
	.uleb128 0x10
	.4byte	0x1713
	.4byte	.LLST7
	.4byte	.LVUS7
	.byte	0
	.uleb128 0x19
	.4byte	0x15b1
	.4byte	.LBI375
	.byte	.LVU57
	.4byte	.Ldebug_ranges0+0x80
	.byte	0x1
	.byte	0x80
	.byte	0x9
	.uleb128 0xf
	.4byte	0x16c9
	.4byte	.LBI376
	.byte	.LVU59
	.4byte	.LBB376
	.4byte	.LBE376
	.byte	0x2
	.2byte	0x377
	.byte	0x3
	.4byte	0x1382
	.uleb128 0x10
	.4byte	0x16d8
	.4byte	.LLST8
	.4byte	.LVUS8
	.byte	0
	.uleb128 0x18
	.4byte	0x1761
	.4byte	.LBI378
	.byte	.LVU63
	.4byte	.LBB378
	.4byte	.LBE378
	.byte	0x2
	.2byte	0x378
	.byte	0x3
	.uleb128 0x18
	.4byte	0x176c
	.4byte	.LBI380
	.byte	.LVU66
	.4byte	.LBB380
	.4byte	.LBE380
	.byte	0x2
	.2byte	0x379
	.byte	0x3
	.byte	0
	.byte	0
	.uleb128 0x29
	.byte	0x1
	.4byte	.LASF76
	.byte	0x1
	.byte	0x70
	.byte	0x6
	.byte	0x1
	.byte	0x1
	.4byte	0x13cc
	.uleb128 0x2a
	.4byte	.LASF17
	.byte	0x1
	.byte	0x72
	.byte	0xe
	.4byte	0x80
	.byte	0
	.uleb128 0x28
	.byte	0x1
	.4byte	.LASF30
	.byte	0x1
	.byte	0x6b
	.byte	0x6
	.byte	0x1
	.4byte	.LFB137
	.4byte	.LFE137
	.byte	0x2
	.byte	0x7d
	.sleb128 0
	.byte	0x1
	.4byte	0x144d
	.uleb128 0x19
	.4byte	0x15b1
	.4byte	.LBI343
	.byte	.LVU2
	.4byte	.Ldebug_ranges0+0
	.byte	0x1
	.byte	0x6d
	.byte	0x5
	.uleb128 0xf
	.4byte	0x16c9
	.4byte	.LBI344
	.byte	.LVU4
	.4byte	.LBB344
	.4byte	.LBE344
	.byte	0x2
	.2byte	0x377
	.byte	0x3
	.4byte	0x141f
	.uleb128 0x10
	.4byte	0x16d8
	.4byte	.LLST0
	.4byte	.LVUS0
	.byte	0
	.uleb128 0x18
	.4byte	0x1761
	.4byte	.LBI346
	.byte	.LVU8
	.4byte	.LBB346
	.4byte	.LBE346
	.byte	0x2
	.2byte	0x378
	.byte	0x3
	.uleb128 0x18
	.4byte	0x176c
	.4byte	.LBI348
	.byte	.LVU11
	.4byte	.LBB348
	.4byte	.LBE348
	.byte	0x2
	.2byte	0x379
	.byte	0x3
	.byte	0
	.byte	0
	.uleb128 0x2b
	.4byte	.LASF35
	.byte	0x1
	.byte	0x5d
	.byte	0xd
	.byte	0x1
	.byte	0x1
	.4byte	0x1468
	.uleb128 0x2c
	.4byte	.LASF37
	.byte	0x1
	.byte	0x5d
	.byte	0x21
	.4byte	0xa7
	.byte	0
	.uleb128 0x2d
	.4byte	.LASF31
	.byte	0x2
	.2byte	0xa13
	.byte	0x14
	.byte	0x1
	.byte	0x3
	.uleb128 0x2d
	.4byte	.LASF32
	.byte	0x2
	.2byte	0x407
	.byte	0x33
	.byte	0x1
	.byte	0x3
	.uleb128 0x2d
	.4byte	.LASF33
	.byte	0x2
	.2byte	0x401
	.byte	0x33
	.byte	0x1
	.byte	0x3
	.uleb128 0x2d
	.4byte	.LASF34
	.byte	0x2
	.2byte	0x3fb
	.byte	0x33
	.byte	0x1
	.byte	0x3
	.uleb128 0x2e
	.4byte	.LASF36
	.byte	0x2
	.2byte	0x3e1
	.byte	0x33
	.byte	0x1
	.byte	0x3
	.4byte	0x14d7
	.uleb128 0x2f
	.ascii	"op\000"
	.byte	0x2
	.2byte	0x3e1
	.byte	0x55
	.4byte	0x80
	.uleb128 0x30
	.4byte	.LASF38
	.byte	0x2
	.2byte	0x3e2
	.byte	0xc
	.4byte	0x80
	.uleb128 0x30
	.4byte	.LASF39
	.byte	0x2
	.2byte	0x3e3
	.byte	0xc
	.4byte	0x80
	.uleb128 0x31
	.uleb128 0x32
	.ascii	"i\000"
	.byte	0x2
	.2byte	0x3e5
	.byte	0x10
	.4byte	0x80
	.byte	0
	.byte	0
	.uleb128 0x2e
	.4byte	.LASF40
	.byte	0x2
	.2byte	0x3b6
	.byte	0x33
	.byte	0x1
	.byte	0x3
	.4byte	0x157a
	.uleb128 0x33
	.4byte	.LASF41
	.byte	0x2
	.2byte	0x3b6
	.byte	0x57
	.4byte	0x80
	.uleb128 0x33
	.4byte	.LASF42
	.byte	0x2
	.2byte	0x3b6
	.byte	0x67
	.4byte	0x80
	.uleb128 0x30
	.4byte	.LASF43
	.byte	0x2
	.2byte	0x3b8
	.byte	0xc
	.4byte	0x80
	.uleb128 0x30
	.4byte	.LASF44
	.byte	0x2
	.2byte	0x3b9
	.byte	0xc
	.4byte	0x80
	.uleb128 0x30
	.4byte	.LASF45
	.byte	0x2
	.2byte	0x3ba
	.byte	0xc
	.4byte	0x80
	.uleb128 0x30
	.4byte	.LASF46
	.byte	0x2
	.2byte	0x3bb
	.byte	0xc
	.4byte	0x80
	.uleb128 0x30
	.4byte	.LASF47
	.byte	0x2
	.2byte	0x3bc
	.byte	0xc
	.4byte	0x80
	.uleb128 0x30
	.4byte	.LASF48
	.byte	0x2
	.2byte	0x3bd
	.byte	0xc
	.4byte	0x80
	.uleb128 0x30
	.4byte	.LASF49
	.byte	0x2
	.2byte	0x3be
	.byte	0xc
	.4byte	0x4c
	.uleb128 0x31
	.uleb128 0x32
	.ascii	"way\000"
	.byte	0x2
	.2byte	0x3cd
	.byte	0xf
	.4byte	0x4c
	.uleb128 0x31
	.uleb128 0x32
	.ascii	"set\000"
	.byte	0x2
	.2byte	0x3cf
	.byte	0x11
	.4byte	0x4c
	.byte	0
	.byte	0
	.byte	0
	.uleb128 0x34
	.4byte	.LASF55
	.byte	0x2
	.2byte	0x3a2
	.byte	0x36
	.byte	0x1
	.4byte	0x66
	.byte	0x3
	.4byte	0x15b1
	.uleb128 0x2f
	.ascii	"n\000"
	.byte	0x2
	.2byte	0x3a2
	.byte	0x49
	.4byte	0x80
	.uleb128 0x32
	.ascii	"log\000"
	.byte	0x2
	.2byte	0x3a7
	.byte	0xb
	.4byte	0x66
	.uleb128 0x32
	.ascii	"t\000"
	.byte	0x2
	.2byte	0x3a8
	.byte	0xc
	.4byte	0x80
	.byte	0
	.uleb128 0x2d
	.4byte	.LASF50
	.byte	0x2
	.2byte	0x376
	.byte	0x33
	.byte	0x1
	.byte	0x3
	.uleb128 0x2e
	.4byte	.LASF51
	.byte	0x3
	.2byte	0x1fc
	.byte	0x33
	.byte	0x1
	.byte	0x3
	.4byte	0x15d9
	.uleb128 0x33
	.4byte	.LASF52
	.byte	0x3
	.2byte	0x1fc
	.byte	0x49
	.4byte	0x80
	.byte	0
	.uleb128 0x2e
	.4byte	.LASF53
	.byte	0x3
	.2byte	0x1f4
	.byte	0x33
	.byte	0x1
	.byte	0x3
	.4byte	0x15f6
	.uleb128 0x33
	.4byte	.LASF52
	.byte	0x3
	.2byte	0x1f4
	.byte	0x48
	.4byte	0x80
	.byte	0
	.uleb128 0x2e
	.4byte	.LASF54
	.byte	0x3
	.2byte	0x1ec
	.byte	0x33
	.byte	0x1
	.byte	0x3
	.4byte	0x1613
	.uleb128 0x33
	.4byte	.LASF52
	.byte	0x3
	.2byte	0x1ec
	.byte	0x48
	.4byte	0x80
	.byte	0
	.uleb128 0x34
	.4byte	.LASF56
	.byte	0x3
	.2byte	0x1e2
	.byte	0x37
	.byte	0x1
	.4byte	0x80
	.byte	0x3
	.4byte	0x1634
	.uleb128 0x30
	.4byte	.LASF57
	.byte	0x3
	.2byte	0x1e4
	.byte	0xc
	.4byte	0x80
	.byte	0
	.uleb128 0x34
	.4byte	.LASF58
	.byte	0x3
	.2byte	0x1d7
	.byte	0x37
	.byte	0x1
	.4byte	0x80
	.byte	0x3
	.4byte	0x1655
	.uleb128 0x30
	.4byte	.LASF57
	.byte	0x3
	.2byte	0x1d9
	.byte	0xc
	.4byte	0x80
	.byte	0
	.uleb128 0x2e
	.4byte	.LASF59
	.byte	0x3
	.2byte	0x1ba
	.byte	0x33
	.byte	0x1
	.byte	0x3
	.4byte	0x1672
	.uleb128 0x33
	.4byte	.LASF52
	.byte	0x3
	.2byte	0x1ba
	.byte	0x49
	.4byte	0x80
	.byte	0
	.uleb128 0x2e
	.4byte	.LASF60
	.byte	0x3
	.2byte	0x1b3
	.byte	0x33
	.byte	0x1
	.byte	0x3
	.4byte	0x168f
	.uleb128 0x33
	.4byte	.LASF52
	.byte	0x3
	.2byte	0x1b3
	.byte	0x4b
	.4byte	0x80
	.byte	0
	.uleb128 0x2e
	.4byte	.LASF61
	.byte	0x3
	.2byte	0x1aa
	.byte	0x33
	.byte	0x1
	.byte	0x3
	.4byte	0x16ac
	.uleb128 0x33
	.4byte	.LASF52
	.byte	0x3
	.2byte	0x1aa
	.byte	0x4a
	.4byte	0x80
	.byte	0
	.uleb128 0x2e
	.4byte	.LASF62
	.byte	0x3
	.2byte	0x1a1
	.byte	0x33
	.byte	0x1
	.byte	0x3
	.4byte	0x16c9
	.uleb128 0x33
	.4byte	.LASF52
	.byte	0x3
	.2byte	0x1a1
	.byte	0x4a
	.4byte	0x80
	.byte	0
	.uleb128 0x2e
	.4byte	.LASF63
	.byte	0x3
	.2byte	0x198
	.byte	0x33
	.byte	0x1
	.byte	0x3
	.4byte	0x16e6
	.uleb128 0x33
	.4byte	.LASF52
	.byte	0x3
	.2byte	0x198
	.byte	0x4a
	.4byte	0x80
	.byte	0
	.uleb128 0x35
	.4byte	.LASF64
	.byte	0x3
	.byte	0xbc
	.byte	0x37
	.byte	0x1
	.4byte	0x80
	.byte	0x3
	.4byte	0x1705
	.uleb128 0x2a
	.4byte	.LASF57
	.byte	0x3
	.byte	0xbe
	.byte	0xc
	.4byte	0x80
	.byte	0
	.uleb128 0x2b
	.4byte	.LASF65
	.byte	0x3
	.byte	0xb4
	.byte	0x33
	.byte	0x1
	.byte	0x3
	.4byte	0x1720
	.uleb128 0x2c
	.4byte	.LASF17
	.byte	0x3
	.byte	0xb4
	.byte	0x48
	.4byte	0x80
	.byte	0
	.uleb128 0x2b
	.4byte	.LASF66
	.byte	0x3
	.byte	0xa9
	.byte	0x33
	.byte	0x1
	.byte	0x3
	.4byte	0x173b
	.uleb128 0x2c
	.4byte	.LASF67
	.byte	0x3
	.byte	0xa9
	.byte	0x47
	.4byte	0x80
	.byte	0
	.uleb128 0x2b
	.4byte	.LASF68
	.byte	0x3
	.byte	0x91
	.byte	0x33
	.byte	0x1
	.byte	0x3
	.4byte	0x1756
	.uleb128 0x2c
	.4byte	.LASF69
	.byte	0x3
	.byte	0x91
	.byte	0x48
	.4byte	0x80
	.byte	0
	.uleb128 0x2d
	.4byte	.LASF70
	.byte	0x4
	.2byte	0x176
	.byte	0x33
	.byte	0x1
	.byte	0x3
	.uleb128 0x2d
	.4byte	.LASF71
	.byte	0x4
	.2byte	0x16c
	.byte	0x33
	.byte	0x1
	.byte	0x3
	.uleb128 0x2d
	.4byte	.LASF72
	.byte	0x4
	.2byte	0x161
	.byte	0x33
	.byte	0x1
	.byte	0x3
	.uleb128 0x36
	.4byte	0x13b0
	.4byte	.LFB138
	.4byte	.LFE138
	.byte	0x2
	.byte	0x7d
	.sleb128 0
	.byte	0x1
	.4byte	0x1854
	.uleb128 0x15
	.4byte	0x13bf
	.4byte	.LLST1
	.4byte	.LVUS1
	.uleb128 0x11
	.4byte	0x16e6
	.4byte	.LBI353
	.byte	.LVU16
	.4byte	.LBB353
	.4byte	.LBE353
	.byte	0x1
	.byte	0x72
	.byte	0x16
	.4byte	0x17ca
	.uleb128 0x16
	.4byte	.LBB354
	.4byte	.LBE354
	.uleb128 0x15
	.4byte	0x16f8
	.4byte	.LLST2
	.4byte	.LVUS2
	.byte	0
	.byte	0
	.uleb128 0x17
	.4byte	0x15b1
	.4byte	.LBI355
	.byte	.LVU24
	.4byte	.Ldebug_ranges0+0x28
	.byte	0x1
	.byte	0x75
	.byte	0x9
	.4byte	0x1834
	.uleb128 0xf
	.4byte	0x16c9
	.4byte	.LBI356
	.byte	.LVU26
	.4byte	.LBB356
	.4byte	.LBE356
	.byte	0x2
	.2byte	0x377
	.byte	0x3
	.4byte	0x1807
	.uleb128 0x10
	.4byte	0x16d8
	.4byte	.LLST3
	.4byte	.LVUS3
	.byte	0
	.uleb128 0x18
	.4byte	0x1761
	.4byte	.LBI358
	.byte	.LVU30
	.4byte	.LBB358
	.4byte	.LBE358
	.byte	0x2
	.2byte	0x378
	.byte	0x3
	.uleb128 0x18
	.4byte	0x176c
	.4byte	.LBI360
	.byte	.LVU33
	.4byte	.LBB360
	.4byte	.LBE360
	.byte	0x2
	.2byte	0x379
	.byte	0x3
	.byte	0
	.uleb128 0x19
	.4byte	0x1705
	.4byte	.LBI365
	.byte	.LVU36
	.4byte	.Ldebug_ranges0+0x50
	.byte	0x1
	.byte	0x76
	.byte	0x9
	.uleb128 0x10
	.4byte	0x1713
	.4byte	.LLST4
	.4byte	.LVUS4
	.byte	0
	.byte	0
	.uleb128 0x37
	.byte	0x1
	.byte	0x1
	.4byte	.LASF77
	.4byte	.LASF78
	.byte	0x6
	.byte	0
	.byte	0
	.section	.debug_abbrev,info
.Ldebug_abbrev0:
	.uleb128 0x1
	.uleb128 0x11
	.byte	0x1
	.uleb128 0x25
	.uleb128 0xe
	.uleb128 0x13
	.uleb128 0xb
	.uleb128 0x3
	.uleb128 0xe
	.uleb128 0x1b
	.uleb128 0xe
	.uleb128 0x55
	.uleb128 0x6
	.uleb128 0x11
	.uleb128 0x1
	.uleb128 0x52
	.uleb128 0x1
	.uleb128 0x10
	.uleb128 0x6
	.byte	0
	.byte	0
	.uleb128 0x2
	.uleb128 0x24
	.byte	0
	.uleb128 0xb
	.uleb128 0xb
	.uleb128 0x3e
	.uleb128 0xb
	.uleb128 0x3
	.uleb128 0xe
	.byte	0
	.byte	0
	.uleb128 0x3
	.uleb128 0x24
	.byte	0
	.uleb128 0xb
	.uleb128 0xb
	.uleb128 0x3e
	.uleb128 0xb
	.uleb128 0x3
	.uleb128 0x8
	.byte	0
	.byte	0
	.uleb128 0x4
	.uleb128 0x16
	.byte	0
	.uleb128 0x3
	.uleb128 0xe
	.uleb128 0x3a
	.uleb128 0xb
	.uleb128 0x3b
	.uleb128 0xb
	.uleb128 0x39
	.uleb128 0xb
	.uleb128 0x49
	.uleb128 0x13
	.byte	0
	.byte	0
	.uleb128 0x5
	.uleb128 0x16
	.byte	0
	.uleb128 0x3
	.uleb128 0xe
	.uleb128 0x3a
	.uleb128 0xb
	.uleb128 0x3b
	.uleb128 0x5
	.uleb128 0x39
	.uleb128 0xb
	.uleb128 0x49
	.uleb128 0x13
	.byte	0
	.byte	0
	.uleb128 0x6
	.uleb128 0x35
	.byte	0
	.uleb128 0x49
	.uleb128 0x13
	.byte	0
	.byte	0
	.uleb128 0x7
	.uleb128 0xf
	.byte	0
	.uleb128 0xb
	.uleb128 0xb
	.uleb128 0x49
	.uleb128 0x13
	.byte	0
	.byte	0
	.uleb128 0x8
	.uleb128 0x35
	.byte	0
	.byte	0
	.byte	0
	.uleb128 0x9
	.uleb128 0xf
	.byte	0
	.uleb128 0xb
	.uleb128 0xb
	.byte	0
	.byte	0
	.uleb128 0xa
	.uleb128 0x1
	.byte	0x1
	.uleb128 0x49
	.uleb128 0x13
	.uleb128 0x1
	.uleb128 0x13
	.byte	0
	.byte	0
	.uleb128 0xb
	.uleb128 0x21
	.byte	0
	.uleb128 0x49
	.uleb128 0x13
	.uleb128 0x2f
	.uleb128 0x5
	.byte	0
	.byte	0
	.uleb128 0xc
	.uleb128 0x34
	.byte	0
	.uleb128 0x3
	.uleb128 0x8
	.uleb128 0x3a
	.uleb128 0xb
	.uleb128 0x3b
	.uleb128 0xb
	.uleb128 0x39
	.uleb128 0xb
	.uleb128 0x49
	.uleb128 0x13
	.uleb128 0x88
	.uleb128 0x5
	.uleb128 0x2
	.uleb128 0xa
	.byte	0
	.byte	0
	.uleb128 0xd
	.uleb128 0x2e
	.byte	0x1
	.uleb128 0x3f
	.uleb128 0xc
	.uleb128 0x3
	.uleb128 0xe
	.uleb128 0x3a
	.uleb128 0xb
	.uleb128 0x3b
	.uleb128 0xb
	.uleb128 0x39
	.uleb128 0xb
	.uleb128 0x27
	.uleb128 0xc
	.uleb128 0x11
	.uleb128 0x1
	.uleb128 0x12
	.uleb128 0x1
	.uleb128 0x40
	.uleb128 0x6
	.uleb128 0x2117
	.uleb128 0xc
	.uleb128 0x1
	.uleb128 0x13
	.byte	0
	.byte	0
	.uleb128 0xe
	.uleb128 0x34
	.byte	0
	.uleb128 0x3
	.uleb128 0xe
	.uleb128 0x3a
	.uleb128 0xb
	.uleb128 0x3b
	.uleb128 0xb
	.uleb128 0x39
	.uleb128 0xb
	.uleb128 0x49
	.uleb128 0x13
	.uleb128 0x2
	.uleb128 0x6
	.uleb128 0x2137
	.uleb128 0x6
	.byte	0
	.byte	0
	.uleb128 0xf
	.uleb128 0x1d
	.byte	0x1
	.uleb128 0x31
	.uleb128 0x13
	.uleb128 0x52
	.uleb128 0x1
	.uleb128 0x2138
	.uleb128 0xb
	.uleb128 0x11
	.uleb128 0x1
	.uleb128 0x12
	.uleb128 0x1
	.uleb128 0x58
	.uleb128 0xb
	.uleb128 0x59
	.uleb128 0x5
	.uleb128 0x57
	.uleb128 0xb
	.uleb128 0x1
	.uleb128 0x13
	.byte	0
	.byte	0
	.uleb128 0x10
	.uleb128 0x5
	.byte	0
	.uleb128 0x31
	.uleb128 0x13
	.uleb128 0x2
	.uleb128 0x6
	.uleb128 0x2137
	.uleb128 0x6
	.byte	0
	.byte	0
	.uleb128 0x11
	.uleb128 0x1d
	.byte	0x1
	.uleb128 0x31
	.uleb128 0x13
	.uleb128 0x52
	.uleb128 0x1
	.uleb128 0x2138
	.uleb128 0xb
	.uleb128 0x11
	.uleb128 0x1
	.uleb128 0x12
	.uleb128 0x1
	.uleb128 0x58
	.uleb128 0xb
	.uleb128 0x59
	.uleb128 0xb
	.uleb128 0x57
	.uleb128 0xb
	.uleb128 0x1
	.uleb128 0x13
	.byte	0
	.byte	0
	.uleb128 0x12
	.uleb128 0x1d
	.byte	0
	.uleb128 0x31
	.uleb128 0x13
	.uleb128 0x52
	.uleb128 0x1
	.uleb128 0x2138
	.uleb128 0xb
	.uleb128 0x11
	.uleb128 0x1
	.uleb128 0x12
	.uleb128 0x1
	.uleb128 0x58
	.uleb128 0xb
	.uleb128 0x59
	.uleb128 0xb
	.uleb128 0x57
	.uleb128 0xb
	.byte	0
	.byte	0
	.uleb128 0x13
	.uleb128 0x1d
	.byte	0x1
	.uleb128 0x31
	.uleb128 0x13
	.uleb128 0x52
	.uleb128 0x1
	.uleb128 0x2138
	.uleb128 0xb
	.uleb128 0x55
	.uleb128 0x6
	.uleb128 0x58
	.uleb128 0xb
	.uleb128 0x59
	.uleb128 0x5
	.uleb128 0x57
	.uleb128 0xb
	.uleb128 0x1
	.uleb128 0x13
	.byte	0
	.byte	0
	.uleb128 0x14
	.uleb128 0xb
	.byte	0x1
	.uleb128 0x55
	.uleb128 0x6
	.byte	0
	.byte	0
	.uleb128 0x15
	.uleb128 0x34
	.byte	0
	.uleb128 0x31
	.uleb128 0x13
	.uleb128 0x2
	.uleb128 0x6
	.uleb128 0x2137
	.uleb128 0x6
	.byte	0
	.byte	0
	.uleb128 0x16
	.uleb128 0xb
	.byte	0x1
	.uleb128 0x11
	.uleb128 0x1
	.uleb128 0x12
	.uleb128 0x1
	.byte	0
	.byte	0
	.uleb128 0x17
	.uleb128 0x1d
	.byte	0x1
	.uleb128 0x31
	.uleb128 0x13
	.uleb128 0x52
	.uleb128 0x1
	.uleb128 0x2138
	.uleb128 0xb
	.uleb128 0x55
	.uleb128 0x6
	.uleb128 0x58
	.uleb128 0xb
	.uleb128 0x59
	.uleb128 0xb
	.uleb128 0x57
	.uleb128 0xb
	.uleb128 0x1
	.uleb128 0x13
	.byte	0
	.byte	0
	.uleb128 0x18
	.uleb128 0x1d
	.byte	0
	.uleb128 0x31
	.uleb128 0x13
	.uleb128 0x52
	.uleb128 0x1
	.uleb128 0x2138
	.uleb128 0xb
	.uleb128 0x11
	.uleb128 0x1
	.uleb128 0x12
	.uleb128 0x1
	.uleb128 0x58
	.uleb128 0xb
	.uleb128 0x59
	.uleb128 0x5
	.uleb128 0x57
	.uleb128 0xb
	.byte	0
	.byte	0
	.uleb128 0x19
	.uleb128 0x1d
	.byte	0x1
	.uleb128 0x31
	.uleb128 0x13
	.uleb128 0x52
	.uleb128 0x1
	.uleb128 0x2138
	.uleb128 0xb
	.uleb128 0x55
	.uleb128 0x6
	.uleb128 0x58
	.uleb128 0xb
	.uleb128 0x59
	.uleb128 0xb
	.uleb128 0x57
	.uleb128 0xb
	.byte	0
	.byte	0
	.uleb128 0x1a
	.uleb128 0x4109
	.byte	0x1
	.uleb128 0x11
	.uleb128 0x1
	.uleb128 0x31
	.uleb128 0x13
	.uleb128 0x1
	.uleb128 0x13
	.byte	0
	.byte	0
	.uleb128 0x1b
	.uleb128 0x410a
	.byte	0
	.uleb128 0x2
	.uleb128 0xa
	.uleb128 0x2111
	.uleb128 0xa
	.byte	0
	.byte	0
	.uleb128 0x1c
	.uleb128 0x4109
	.byte	0
	.uleb128 0x11
	.uleb128 0x1
	.uleb128 0x2115
	.uleb128 0xc
	.uleb128 0x31
	.uleb128 0x13
	.byte	0
	.byte	0
	.uleb128 0x1d
	.uleb128 0x1d
	.byte	0x1
	.uleb128 0x31
	.uleb128 0x13
	.uleb128 0x52
	.uleb128 0x1
	.uleb128 0x2138
	.uleb128 0xb
	.uleb128 0x55
	.uleb128 0x6
	.uleb128 0x58
	.uleb128 0xb
	.uleb128 0x59
	.uleb128 0x5
	.uleb128 0x57
	.uleb128 0xb
	.byte	0
	.byte	0
	.uleb128 0x1e
	.uleb128 0xb
	.byte	0x1
	.uleb128 0x31
	.uleb128 0x13
	.uleb128 0x55
	.uleb128 0x6
	.byte	0
	.byte	0
	.uleb128 0x1f
	.uleb128 0x34
	.byte	0
	.uleb128 0x31
	.uleb128 0x13
	.byte	0
	.byte	0
	.uleb128 0x20
	.uleb128 0xb
	.byte	0x1
	.uleb128 0x31
	.uleb128 0x13
	.uleb128 0x55
	.uleb128 0x6
	.uleb128 0x1
	.uleb128 0x13
	.byte	0
	.byte	0
	.uleb128 0x21
	.uleb128 0xb
	.byte	0x1
	.uleb128 0x31
	.uleb128 0x13
	.uleb128 0x11
	.uleb128 0x1
	.uleb128 0x12
	.uleb128 0x1
	.byte	0
	.byte	0
	.uleb128 0x22
	.uleb128 0x5
	.byte	0
	.uleb128 0x31
	.uleb128 0x13
	.byte	0
	.byte	0
	.uleb128 0x23
	.uleb128 0x1d
	.byte	0x1
	.uleb128 0x31
	.uleb128 0x13
	.uleb128 0x52
	.uleb128 0x1
	.uleb128 0x2138
	.uleb128 0xb
	.uleb128 0x11
	.uleb128 0x1
	.uleb128 0x12
	.uleb128 0x1
	.uleb128 0x58
	.uleb128 0xb
	.uleb128 0x59
	.uleb128 0x5
	.uleb128 0x57
	.uleb128 0xb
	.byte	0
	.byte	0
	.uleb128 0x24
	.uleb128 0x5
	.byte	0
	.uleb128 0x3
	.uleb128 0xe
	.uleb128 0x3a
	.uleb128 0xb
	.uleb128 0x3b
	.uleb128 0xb
	.uleb128 0x39
	.uleb128 0xb
	.uleb128 0x49
	.uleb128 0x13
	.uleb128 0x2
	.uleb128 0xa
	.byte	0
	.byte	0
	.uleb128 0x25
	.uleb128 0x34
	.byte	0
	.uleb128 0x3
	.uleb128 0xe
	.uleb128 0x3a
	.uleb128 0xb
	.uleb128 0x3b
	.uleb128 0xb
	.uleb128 0x39
	.uleb128 0xb
	.uleb128 0x49
	.uleb128 0x13
	.uleb128 0x2
	.uleb128 0xa
	.byte	0
	.byte	0
	.uleb128 0x26
	.uleb128 0x34
	.byte	0
	.uleb128 0x3
	.uleb128 0x8
	.uleb128 0x3a
	.uleb128 0xb
	.uleb128 0x3b
	.uleb128 0xb
	.uleb128 0x39
	.uleb128 0xb
	.uleb128 0x49
	.uleb128 0x13
	.uleb128 0x2
	.uleb128 0x6
	.uleb128 0x2137
	.uleb128 0x6
	.byte	0
	.byte	0
	.uleb128 0x27
	.uleb128 0x5
	.byte	0
	.uleb128 0x31
	.uleb128 0x13
	.uleb128 0x1c
	.uleb128 0xb
	.byte	0
	.byte	0
	.uleb128 0x28
	.uleb128 0x2e
	.byte	0x1
	.uleb128 0x3f
	.uleb128 0xc
	.uleb128 0x3
	.uleb128 0xe
	.uleb128 0x3a
	.uleb128 0xb
	.uleb128 0x3b
	.uleb128 0xb
	.uleb128 0x39
	.uleb128 0xb
	.uleb128 0x27
	.uleb128 0xc
	.uleb128 0x11
	.uleb128 0x1
	.uleb128 0x12
	.uleb128 0x1
	.uleb128 0x40
	.uleb128 0xa
	.uleb128 0x2117
	.uleb128 0xc
	.uleb128 0x1
	.uleb128 0x13
	.byte	0
	.byte	0
	.uleb128 0x29
	.uleb128 0x2e
	.byte	0x1
	.uleb128 0x3f
	.uleb128 0xc
	.uleb128 0x3
	.uleb128 0xe
	.uleb128 0x3a
	.uleb128 0xb
	.uleb128 0x3b
	.uleb128 0xb
	.uleb128 0x39
	.uleb128 0xb
	.uleb128 0x27
	.uleb128 0xc
	.uleb128 0x20
	.uleb128 0xb
	.uleb128 0x1
	.uleb128 0x13
	.byte	0
	.byte	0
	.uleb128 0x2a
	.uleb128 0x34
	.byte	0
	.uleb128 0x3
	.uleb128 0xe
	.uleb128 0x3a
	.uleb128 0xb
	.uleb128 0x3b
	.uleb128 0xb
	.uleb128 0x39
	.uleb128 0xb
	.uleb128 0x49
	.uleb128 0x13
	.byte	0
	.byte	0
	.uleb128 0x2b
	.uleb128 0x2e
	.byte	0x1
	.uleb128 0x3
	.uleb128 0xe
	.uleb128 0x3a
	.uleb128 0xb
	.uleb128 0x3b
	.uleb128 0xb
	.uleb128 0x39
	.uleb128 0xb
	.uleb128 0x27
	.uleb128 0xc
	.uleb128 0x20
	.uleb128 0xb
	.uleb128 0x1
	.uleb128 0x13
	.byte	0
	.byte	0
	.uleb128 0x2c
	.uleb128 0x5
	.byte	0
	.uleb128 0x3
	.uleb128 0xe
	.uleb128 0x3a
	.uleb128 0xb
	.uleb128 0x3b
	.uleb128 0xb
	.uleb128 0x39
	.uleb128 0xb
	.uleb128 0x49
	.uleb128 0x13
	.byte	0
	.byte	0
	.uleb128 0x2d
	.uleb128 0x2e
	.byte	0
	.uleb128 0x3
	.uleb128 0xe
	.uleb128 0x3a
	.uleb128 0xb
	.uleb128 0x3b
	.uleb128 0x5
	.uleb128 0x39
	.uleb128 0xb
	.uleb128 0x27
	.uleb128 0xc
	.uleb128 0x20
	.uleb128 0xb
	.byte	0
	.byte	0
	.uleb128 0x2e
	.uleb128 0x2e
	.byte	0x1
	.uleb128 0x3
	.uleb128 0xe
	.uleb128 0x3a
	.uleb128 0xb
	.uleb128 0x3b
	.uleb128 0x5
	.uleb128 0x39
	.uleb128 0xb
	.uleb128 0x27
	.uleb128 0xc
	.uleb128 0x20
	.uleb128 0xb
	.uleb128 0x1
	.uleb128 0x13
	.byte	0
	.byte	0
	.uleb128 0x2f
	.uleb128 0x5
	.byte	0
	.uleb128 0x3
	.uleb128 0x8
	.uleb128 0x3a
	.uleb128 0xb
	.uleb128 0x3b
	.uleb128 0x5
	.uleb128 0x39
	.uleb128 0xb
	.uleb128 0x49
	.uleb128 0x13
	.byte	0
	.byte	0
	.uleb128 0x30
	.uleb128 0x34
	.byte	0
	.uleb128 0x3
	.uleb128 0xe
	.uleb128 0x3a
	.uleb128 0xb
	.uleb128 0x3b
	.uleb128 0x5
	.uleb128 0x39
	.uleb128 0xb
	.uleb128 0x49
	.uleb128 0x13
	.byte	0
	.byte	0
	.uleb128 0x31
	.uleb128 0xb
	.byte	0x1
	.byte	0
	.byte	0
	.uleb128 0x32
	.uleb128 0x34
	.byte	0
	.uleb128 0x3
	.uleb128 0x8
	.uleb128 0x3a
	.uleb128 0xb
	.uleb128 0x3b
	.uleb128 0x5
	.uleb128 0x39
	.uleb128 0xb
	.uleb128 0x49
	.uleb128 0x13
	.byte	0
	.byte	0
	.uleb128 0x33
	.uleb128 0x5
	.byte	0
	.uleb128 0x3
	.uleb128 0xe
	.uleb128 0x3a
	.uleb128 0xb
	.uleb128 0x3b
	.uleb128 0x5
	.uleb128 0x39
	.uleb128 0xb
	.uleb128 0x49
	.uleb128 0x13
	.byte	0
	.byte	0
	.uleb128 0x34
	.uleb128 0x2e
	.byte	0x1
	.uleb128 0x3
	.uleb128 0xe
	.uleb128 0x3a
	.uleb128 0xb
	.uleb128 0x3b
	.uleb128 0x5
	.uleb128 0x39
	.uleb128 0xb
	.uleb128 0x27
	.uleb128 0xc
	.uleb128 0x49
	.uleb128 0x13
	.uleb128 0x20
	.uleb128 0xb
	.uleb128 0x1
	.uleb128 0x13
	.byte	0
	.byte	0
	.uleb128 0x35
	.uleb128 0x2e
	.byte	0x1
	.uleb128 0x3
	.uleb128 0xe
	.uleb128 0x3a
	.uleb128 0xb
	.uleb128 0x3b
	.uleb128 0xb
	.uleb128 0x39
	.uleb128 0xb
	.uleb128 0x27
	.uleb128 0xc
	.uleb128 0x49
	.uleb128 0x13
	.uleb128 0x20
	.uleb128 0xb
	.uleb128 0x1
	.uleb128 0x13
	.byte	0
	.byte	0
	.uleb128 0x36
	.uleb128 0x2e
	.byte	0x1
	.uleb128 0x31
	.uleb128 0x13
	.uleb128 0x11
	.uleb128 0x1
	.uleb128 0x12
	.uleb128 0x1
	.uleb128 0x40
	.uleb128 0xa
	.uleb128 0x2117
	.uleb128 0xc
	.uleb128 0x1
	.uleb128 0x13
	.byte	0
	.byte	0
	.uleb128 0x37
	.uleb128 0x2e
	.byte	0
	.uleb128 0x3f
	.uleb128 0xc
	.uleb128 0x3c
	.uleb128 0xc
	.uleb128 0x2007
	.uleb128 0xe
	.uleb128 0x3
	.uleb128 0xe
	.uleb128 0x3a
	.uleb128 0xb
	.uleb128 0x3b
	.uleb128 0xb
	.byte	0
	.byte	0
	.byte	0
	.section	.debug_loc,info
.Ldebug_loc0:
.LLST125:
	.4byte	.LFB148
	.4byte	.LCFI11
	.2byte	0x2
	.byte	0x7d
	.sleb128 0
	.4byte	.LCFI11
	.4byte	.LCFI12
	.2byte	0x2
	.byte	0x7d
	.sleb128 8
	.4byte	.LCFI12
	.4byte	.LFE148
	.2byte	0x2
	.byte	0x7d
	.sleb128 0
	.4byte	0
	.4byte	0
.LVUS126:
	.uleb128 .LVU784
	.uleb128 .LVU807
	.uleb128 .LVU807
	.uleb128 .LVU809
.LLST126:
	.4byte	.LVL176
	.4byte	.LVL178
	.2byte	0x2
	.byte	0x30
	.byte	0x9f
	.4byte	.LVL178
	.4byte	.LVL179
	.2byte	0x2
	.byte	0x3a
	.byte	0x9f
	.4byte	0
	.4byte	0
.LVUS127:
	.uleb128 .LVU911
	.uleb128 .LVU926
.LLST127:
	.4byte	.LVL181
	.4byte	.LVL184
	.2byte	0x6
	.byte	0x3
	.4byte	tlb
	.byte	0x9f
	.4byte	0
	.4byte	0
.LVUS128:
	.uleb128 .LVU913
	.uleb128 .LVU915
.LLST128:
	.4byte	.LVL181
	.4byte	.LVL182
	.2byte	0x6
	.byte	0x3
	.4byte	tlb
	.byte	0x9f
	.4byte	0
	.4byte	0
.LVUS129:
	.uleb128 .LVU917
	.uleb128 .LVU919
.LLST129:
	.4byte	.LVL182
	.4byte	.LVL183
	.2byte	0x5
	.byte	0x40
	.byte	0x4a
	.byte	0x24
	.byte	0x1f
	.byte	0x9f
	.4byte	0
	.4byte	0
.LVUS130:
	.uleb128 .LVU934
	.uleb128 .LVU953
.LLST130:
	.4byte	.LVL185
	.4byte	.LVL189
	.2byte	0x1
	.byte	0x53
	.4byte	0
	.4byte	0
.LVUS131:
	.uleb128 .LVU933
	.uleb128 .LVU934
.LLST131:
	.4byte	.LVL185
	.4byte	.LVL185
	.2byte	0x1
	.byte	0x53
	.4byte	0
	.4byte	0
.LVUS132:
	.uleb128 .LVU940
	.uleb128 .LVU942
.LLST132:
	.4byte	.LVL186
	.4byte	.LVL187
	.2byte	0x2
	.byte	0x30
	.byte	0x9f
	.4byte	0
	.4byte	0
.LVUS133:
	.uleb128 .LVU950
	.uleb128 .LVU953
	.uleb128 .LVU953
	.uleb128 .LVU954
.LLST133:
	.4byte	.LVL188
	.4byte	.LVL189
	.2byte	0x7
	.byte	0x73
	.sleb128 0
	.byte	0xa
	.2byte	0x1000
	.byte	0x21
	.byte	0x9f
	.4byte	.LVL189
	.4byte	.LVL190
	.2byte	0x1
	.byte	0x53
	.4byte	0
	.4byte	0
.LVUS134:
	.uleb128 .LVU961
	.uleb128 .LVU962
.LLST134:
	.4byte	.LVL191
	.4byte	.LVL191
	.2byte	0x1
	.byte	0x53
	.4byte	0
	.4byte	0
.LVUS135:
	.uleb128 .LVU962
	.uleb128 .LVU966
	.uleb128 .LVU967
	.uleb128 .LVU968
.LLST135:
	.4byte	.LVL191
	.4byte	.LVL192
	.2byte	0x10
	.byte	0x73
	.sleb128 0
	.byte	0x11
	.sleb128 -805306372
	.byte	0x1a
	.byte	0xc
	.4byte	0x20000001
	.byte	0x21
	.byte	0x9f
	.4byte	.LVL193
	.4byte	.LVL194
	.2byte	0x1
	.byte	0x53
	.4byte	0
	.4byte	0
.LLST89:
	.4byte	.LFB147
	.4byte	.LCFI10
	.2byte	0x2
	.byte	0x7d
	.sleb128 0
	.4byte	.LCFI10
	.4byte	.LFE147
	.2byte	0x2
	.byte	0x7d
	.sleb128 28
	.4byte	0
	.4byte	0
.LVUS90:
	.uleb128 .LVU576
	.uleb128 .LVU680
	.uleb128 .LVU779
	.uleb128 0
.LLST90:
	.4byte	.LVL126
	.4byte	.LVL150
	.2byte	0x1
	.byte	0x57
	.4byte	.LVL174
	.4byte	.LFE147
	.2byte	0x1
	.byte	0x57
	.4byte	0
	.4byte	0
.LVUS91:
	.uleb128 .LVU575
	.uleb128 .LVU576
.LLST91:
	.4byte	.LVL126
	.4byte	.LVL126
	.2byte	0x1
	.byte	0x57
	.4byte	0
	.4byte	0
.LVUS92:
	.uleb128 .LVU582
	.uleb128 .LVU675
	.uleb128 .LVU779
	.uleb128 0
.LLST92:
	.4byte	.LVL127
	.4byte	.LVL149
	.2byte	0x2
	.byte	0x31
	.byte	0x9f
	.4byte	.LVL174
	.4byte	.LFE147
	.2byte	0x2
	.byte	0x31
	.byte	0x9f
	.4byte	0
	.4byte	0
.LVUS93:
	.uleb128 .LVU590
	.uleb128 .LVU698
	.uleb128 .LVU779
	.uleb128 0
.LLST93:
	.4byte	.LVL128
	.4byte	.LVL153
	.2byte	0x1
	.byte	0x56
	.4byte	.LVL174
	.4byte	.LFE147
	.2byte	0x1
	.byte	0x56
	.4byte	0
	.4byte	0
.LVUS94:
	.uleb128 .LVU596
	.uleb128 .LVU674
	.uleb128 .LVU674
	.uleb128 .LVU675
	.uleb128 .LVU779
	.uleb128 0
.LLST94:
	.4byte	.LVL129
	.4byte	.LVL148
	.2byte	0xa
	.byte	0x76
	.sleb128 0
	.byte	0x7e
	.sleb128 0
	.byte	0x33
	.byte	0x1e
	.byte	0x25
	.byte	0x37
	.byte	0x1a
	.byte	0x9f
	.4byte	.LVL148
	.4byte	.LVL149
	.2byte	0xa
	.byte	0x76
	.sleb128 0
	.byte	0x7e
	.sleb128 -1
	.byte	0x33
	.byte	0x1e
	.byte	0x25
	.byte	0x37
	.byte	0x1a
	.byte	0x9f
	.4byte	.LVL174
	.4byte	.LFE147
	.2byte	0xa
	.byte	0x76
	.sleb128 0
	.byte	0x7e
	.sleb128 0
	.byte	0x33
	.byte	0x1e
	.byte	0x25
	.byte	0x37
	.byte	0x1a
	.byte	0x9f
	.4byte	0
	.4byte	0
.LVUS95:
	.uleb128 .LVU589
	.uleb128 .LVU590
.LLST95:
	.4byte	.LVL128
	.4byte	.LVL128
	.2byte	0x1
	.byte	0x56
	.4byte	0
	.4byte	0
.LVUS96:
	.uleb128 .LVU593
	.uleb128 .LVU595
	.uleb128 .LVU595
	.uleb128 .LVU675
	.uleb128 .LVU779
	.uleb128 0
.LLST96:
	.4byte	.LVL128
	.4byte	.LVL129
	.2byte	0x2
	.byte	0x30
	.byte	0x9f
	.4byte	.LVL129
	.4byte	.LVL149
	.2byte	0x1
	.byte	0x5e
	.4byte	.LVL174
	.4byte	.LFE147
	.2byte	0x1
	.byte	0x5e
	.4byte	0
	.4byte	0
.LVUS97:
	.uleb128 .LVU602
	.uleb128 .LVU672
	.uleb128 .LVU779
	.uleb128 0
.LLST97:
	.4byte	.LVL130
	.4byte	.LVL147
	.2byte	0x2
	.byte	0x31
	.byte	0x9f
	.4byte	.LVL174
	.4byte	.LFE147
	.2byte	0x2
	.byte	0x31
	.byte	0x9f
	.4byte	0
	.4byte	0
.LVUS98:
	.uleb128 .LVU602
	.uleb128 .LVU672
	.uleb128 .LVU779
	.uleb128 0
.LLST98:
	.4byte	.LVL130
	.4byte	.LVL147
	.2byte	0x1
	.byte	0x5e
	.4byte	.LVL174
	.4byte	.LFE147
	.2byte	0x1
	.byte	0x5e
	.4byte	0
	.4byte	0
.LVUS99:
	.uleb128 .LVU611
	.uleb128 .LVU654
	.uleb128 .LVU779
	.uleb128 0
.LLST99:
	.4byte	.LVL131
	.4byte	.LVL143
	.2byte	0x1
	.byte	0x54
	.4byte	.LVL174
	.4byte	.LFE147
	.2byte	0x1
	.byte	0x54
	.4byte	0
	.4byte	0
.LVUS100:
	.uleb128 .LVU625
	.uleb128 .LVU648
	.uleb128 .LVU648
	.uleb128 .LVU654
	.uleb128 .LVU779
	.uleb128 .LVU780
	.uleb128 .LVU780
	.uleb128 0
.LLST100:
	.4byte	.LVL134
	.4byte	.LVL141
	.2byte	0x1
	.byte	0x58
	.4byte	.LVL141
	.4byte	.LVL143
	.2byte	0x3
	.byte	0x7c
	.sleb128 1
	.byte	0x9f
	.4byte	.LVL174
	.4byte	.LVL175
	.2byte	0x1
	.byte	0x58
	.4byte	.LVL175
	.4byte	.LFE147
	.2byte	0x3
	.byte	0x7c
	.sleb128 1
	.byte	0x9f
	.4byte	0
	.4byte	0
.LVUS101:
	.uleb128 .LVU644
	.uleb128 .LVU648
.LLST101:
	.4byte	.LVL140
	.4byte	.LVL141
	.2byte	0x6
	.byte	0x73
	.sleb128 0
	.byte	0x8
	.byte	0xff
	.byte	0x1a
	.byte	0x9f
	.4byte	0
	.4byte	0
.LVUS102:
	.uleb128 .LVU612
	.uleb128 .LVU614
.LLST102:
	.4byte	.LVL131
	.4byte	.LVL132
	.2byte	0x1
	.byte	0x54
	.4byte	0
	.4byte	0
.LVUS103:
	.uleb128 .LVU627
	.uleb128 .LVU644
	.uleb128 .LVU779
	.uleb128 .LVU780
	.uleb128 .LVU780
	.uleb128 0
.LLST103:
	.4byte	.LVL134
	.4byte	.LVL140
	.2byte	0x1
	.byte	0x58
	.4byte	.LVL174
	.4byte	.LVL175
	.2byte	0x1
	.byte	0x58
	.4byte	.LVL175
	.4byte	.LFE147
	.2byte	0x3
	.byte	0x7c
	.sleb128 1
	.byte	0x9f
	.4byte	0
	.4byte	0
.LVUS104:
	.uleb128 .LVU631
	.uleb128 .LVU632
	.uleb128 .LVU632
	.uleb128 .LVU637
	.uleb128 .LVU637
	.uleb128 .LVU643
	.uleb128 .LVU643
	.uleb128 .LVU644
.LLST104:
	.4byte	.LVL135
	.4byte	.LVL136
	.2byte	0x1
	.byte	0x53
	.4byte	.LVL136
	.4byte	.LVL138
	.2byte	0x1
	.byte	0x50
	.4byte	.LVL138
	.4byte	.LVL139
	.2byte	0x1
	.byte	0x53
	.4byte	.LVL139
	.4byte	.LVL140
	.2byte	0x3
	.byte	0x70
	.sleb128 1
	.byte	0x9f
	.4byte	0
	.4byte	0
.LVUS105:
	.uleb128 .LVU631
	.uleb128 .LVU634
	.uleb128 .LVU638
	.uleb128 .LVU644
.LLST105:
	.4byte	.LVL135
	.4byte	.LVL137
	.2byte	0x1
	.byte	0x52
	.4byte	.LVL138
	.4byte	.LVL140
	.2byte	0x1
	.byte	0x52
	.4byte	0
	.4byte	0
.LVUS106:
	.uleb128 .LVU651
	.uleb128 .LVU654
	.uleb128 .LVU654
	.uleb128 .LVU668
	.uleb128 .LVU668
	.uleb128 .LVU672
.LLST106:
	.4byte	.LVL142
	.4byte	.LVL143
	.2byte	0x9
	.byte	0x71
	.sleb128 0
	.byte	0x33
	.byte	0x25
	.byte	0xa
	.2byte	0x3ff
	.byte	0x1a
	.byte	0x9f
	.4byte	.LVL143
	.4byte	.LVL146
	.2byte	0x1
	.byte	0x5c
	.4byte	.LVL146
	.4byte	.LVL147
	.2byte	0x3
	.byte	0x7c
	.sleb128 1
	.byte	0x9f
	.4byte	0
	.4byte	0
.LVUS107:
	.uleb128 .LVU658
	.uleb128 .LVU666
	.uleb128 .LVU666
	.uleb128 .LVU672
.LLST107:
	.4byte	.LVL144
	.4byte	.LVL145
	.2byte	0x1
	.byte	0x53
	.4byte	.LVL145
	.4byte	.LVL147
	.2byte	0x3
	.byte	0x73
	.sleb128 1
	.byte	0x9f
	.4byte	0
	.4byte	0
.LVUS108:
	.uleb128 .LVU677
	.uleb128 .LVU680
	.uleb128 .LVU680
	.uleb128 .LVU681
.LLST108:
	.4byte	.LVL149
	.4byte	.LVL150
	.2byte	0x6
	.byte	0x77
	.sleb128 0
	.byte	0x9
	.byte	0xfb
	.byte	0x1a
	.byte	0x9f
	.4byte	.LVL150
	.4byte	.LVL151
	.2byte	0x1
	.byte	0x57
	.4byte	0
	.4byte	0
.LVUS109:
	.uleb128 .LVU685
	.uleb128 .LVU779
.LLST109:
	.4byte	.LVL151
	.4byte	.LVL174
	.2byte	0x2
	.byte	0x30
	.byte	0x9f
	.4byte	0
	.4byte	0
.LVUS110:
	.uleb128 .LVU693
	.uleb128 .LVU779
.LLST110:
	.4byte	.LVL152
	.4byte	.LVL174
	.2byte	0x1
	.byte	0x57
	.4byte	0
	.4byte	0
.LVUS111:
	.uleb128 .LVU699
	.uleb128 .LVU777
	.uleb128 .LVU777
	.uleb128 .LVU778
	.uleb128 .LVU778
	.uleb128 .LVU779
.LLST111:
	.4byte	.LVL153
	.4byte	.LVL172
	.2byte	0xa
	.byte	0x77
	.sleb128 0
	.byte	0x74
	.sleb128 0
	.byte	0x33
	.byte	0x1e
	.byte	0x25
	.byte	0x37
	.byte	0x1a
	.byte	0x9f
	.4byte	.LVL172
	.4byte	.LVL173
	.2byte	0xa
	.byte	0x77
	.sleb128 0
	.byte	0x74
	.sleb128 -1
	.byte	0x33
	.byte	0x1e
	.byte	0x25
	.byte	0x37
	.byte	0x1a
	.byte	0x9f
	.4byte	.LVL173
	.4byte	.LVL174
	.2byte	0xa
	.byte	0x77
	.sleb128 0
	.byte	0x74
	.sleb128 0
	.byte	0x33
	.byte	0x1e
	.byte	0x25
	.byte	0x37
	.byte	0x1a
	.byte	0x9f
	.4byte	0
	.4byte	0
.LVUS112:
	.uleb128 .LVU692
	.uleb128 .LVU693
.LLST112:
	.4byte	.LVL152
	.4byte	.LVL152
	.2byte	0x1
	.byte	0x57
	.4byte	0
	.4byte	0
.LVUS113:
	.uleb128 .LVU696
	.uleb128 .LVU698
	.uleb128 .LVU698
	.uleb128 .LVU779
.LLST113:
	.4byte	.LVL152
	.4byte	.LVL153
	.2byte	0x2
	.byte	0x30
	.byte	0x9f
	.4byte	.LVL153
	.4byte	.LVL174
	.2byte	0x1
	.byte	0x54
	.4byte	0
	.4byte	0
.LVUS114:
	.uleb128 .LVU705
	.uleb128 .LVU775
	.uleb128 .LVU778
	.uleb128 .LVU779
.LLST114:
	.4byte	.LVL154
	.4byte	.LVL171
	.2byte	0x2
	.byte	0x30
	.byte	0x9f
	.4byte	.LVL173
	.4byte	.LVL174
	.2byte	0x2
	.byte	0x30
	.byte	0x9f
	.4byte	0
	.4byte	0
.LVUS115:
	.uleb128 .LVU705
	.uleb128 .LVU775
	.uleb128 .LVU778
	.uleb128 .LVU779
.LLST115:
	.4byte	.LVL154
	.4byte	.LVL171
	.2byte	0x1
	.byte	0x54
	.4byte	.LVL173
	.4byte	.LVL174
	.2byte	0x1
	.byte	0x54
	.4byte	0
	.4byte	0
.LVUS116:
	.uleb128 .LVU714
	.uleb128 .LVU757
	.uleb128 .LVU778
	.uleb128 .LVU779
.LLST116:
	.4byte	.LVL155
	.4byte	.LVL167
	.2byte	0x1
	.byte	0x55
	.4byte	.LVL173
	.4byte	.LVL174
	.2byte	0x1
	.byte	0x55
	.4byte	0
	.4byte	0
.LVUS117:
	.uleb128 .LVU728
	.uleb128 .LVU754
	.uleb128 .LVU754
	.uleb128 .LVU757
	.uleb128 .LVU778
	.uleb128 .LVU779
.LLST117:
	.4byte	.LVL158
	.4byte	.LVL166
	.2byte	0x1
	.byte	0x50
	.4byte	.LVL166
	.4byte	.LVL167
	.2byte	0x3
	.byte	0x7e
	.sleb128 1
	.byte	0x9f
	.4byte	.LVL173
	.4byte	.LVL174
	.2byte	0x1
	.byte	0x50
	.4byte	0
	.4byte	0
.LVUS118:
	.uleb128 .LVU747
	.uleb128 .LVU751
.LLST118:
	.4byte	.LVL164
	.4byte	.LVL165
	.2byte	0x6
	.byte	0x73
	.sleb128 0
	.byte	0x8
	.byte	0xff
	.byte	0x1a
	.byte	0x9f
	.4byte	0
	.4byte	0
.LVUS119:
	.uleb128 .LVU715
	.uleb128 .LVU717
.LLST119:
	.4byte	.LVL155
	.4byte	.LVL156
	.2byte	0x1
	.byte	0x55
	.4byte	0
	.4byte	0
.LVUS120:
	.uleb128 .LVU730
	.uleb128 .LVU747
	.uleb128 .LVU778
	.uleb128 .LVU779
.LLST120:
	.4byte	.LVL158
	.4byte	.LVL164
	.2byte	0x1
	.byte	0x50
	.4byte	.LVL173
	.4byte	.LVL174
	.2byte	0x1
	.byte	0x50
	.4byte	0
	.4byte	0
.LVUS121:
	.uleb128 .LVU734
	.uleb128 .LVU735
	.uleb128 .LVU735
	.uleb128 .LVU740
	.uleb128 .LVU740
	.uleb128 .LVU746
	.uleb128 .LVU746
	.uleb128 .LVU747
.LLST121:
	.4byte	.LVL159
	.4byte	.LVL160
	.2byte	0x1
	.byte	0x53
	.4byte	.LVL160
	.4byte	.LVL162
	.2byte	0x1
	.byte	0x51
	.4byte	.LVL162
	.4byte	.LVL163
	.2byte	0x1
	.byte	0x53
	.4byte	.LVL163
	.4byte	.LVL164
	.2byte	0x3
	.byte	0x71
	.sleb128 1
	.byte	0x9f
	.4byte	0
	.4byte	0
.LVUS122:
	.uleb128 .LVU734
	.uleb128 .LVU737
	.uleb128 .LVU741
	.uleb128 .LVU747
.LLST122:
	.4byte	.LVL159
	.4byte	.LVL161
	.2byte	0x1
	.byte	0x52
	.4byte	.LVL162
	.4byte	.LVL164
	.2byte	0x1
	.byte	0x52
	.4byte	0
	.4byte	0
.LVUS123:
	.uleb128 .LVU754
	.uleb128 .LVU757
	.uleb128 .LVU757
	.uleb128 .LVU771
	.uleb128 .LVU771
	.uleb128 .LVU775
.LLST123:
	.4byte	.LVL166
	.4byte	.LVL167
	.2byte	0x9
	.byte	0x78
	.sleb128 0
	.byte	0x33
	.byte	0x25
	.byte	0xa
	.2byte	0x3ff
	.byte	0x1a
	.byte	0x9f
	.4byte	.LVL167
	.4byte	.LVL170
	.2byte	0x1
	.byte	0x5e
	.4byte	.LVL170
	.4byte	.LVL171
	.2byte	0x3
	.byte	0x7e
	.sleb128 1
	.byte	0x9f
	.4byte	0
	.4byte	0
.LVUS124:
	.uleb128 .LVU761
	.uleb128 .LVU769
	.uleb128 .LVU769
	.uleb128 .LVU775
.LLST124:
	.4byte	.LVL168
	.4byte	.LVL169
	.2byte	0x1
	.byte	0x53
	.4byte	.LVL169
	.4byte	.LVL171
	.2byte	0x3
	.byte	0x73
	.sleb128 1
	.byte	0x9f
	.4byte	0
	.4byte	0
.LLST69:
	.4byte	.LFB146
	.4byte	.LCFI9
	.2byte	0x2
	.byte	0x7d
	.sleb128 0
	.4byte	.LCFI9
	.4byte	.LFE146
	.2byte	0x2
	.byte	0x7d
	.sleb128 28
	.4byte	0
	.4byte	0
.LVUS70:
	.uleb128 .LVU461
	.uleb128 .LVU564
	.uleb128 .LVU566
	.uleb128 0
.LLST70:
	.4byte	.LVL99
	.4byte	.LVL123
	.2byte	0x1
	.byte	0x55
	.4byte	.LVL124
	.4byte	.LFE146
	.2byte	0x1
	.byte	0x55
	.4byte	0
	.4byte	0
.LVUS71:
	.uleb128 .LVU460
	.uleb128 .LVU461
.LLST71:
	.4byte	.LVL99
	.4byte	.LVL99
	.2byte	0x1
	.byte	0x55
	.4byte	0
	.4byte	0
.LVUS72:
	.uleb128 .LVU467
	.uleb128 .LVU559
	.uleb128 .LVU566
	.uleb128 0
.LLST72:
	.4byte	.LVL100
	.4byte	.LVL122
	.2byte	0x2
	.byte	0x30
	.byte	0x9f
	.4byte	.LVL124
	.4byte	.LFE146
	.2byte	0x2
	.byte	0x30
	.byte	0x9f
	.4byte	0
	.4byte	0
.LVUS73:
	.uleb128 .LVU475
	.uleb128 0
.LLST73:
	.4byte	.LVL101
	.4byte	.LFE146
	.2byte	0x1
	.byte	0x57
	.4byte	0
	.4byte	0
.LVUS74:
	.uleb128 .LVU480
	.uleb128 .LVU558
	.uleb128 .LVU558
	.uleb128 .LVU559
	.uleb128 .LVU566
	.uleb128 0
.LLST74:
	.4byte	.LVL102
	.4byte	.LVL121
	.2byte	0xa
	.byte	0x77
	.sleb128 0
	.byte	0x7e
	.sleb128 0
	.byte	0x33
	.byte	0x1e
	.byte	0x25
	.byte	0x37
	.byte	0x1a
	.byte	0x9f
	.4byte	.LVL121
	.4byte	.LVL122
	.2byte	0xa
	.byte	0x77
	.sleb128 0
	.byte	0x7e
	.sleb128 -1
	.byte	0x33
	.byte	0x1e
	.byte	0x25
	.byte	0x37
	.byte	0x1a
	.byte	0x9f
	.4byte	.LVL124
	.4byte	.LFE146
	.2byte	0xa
	.byte	0x77
	.sleb128 0
	.byte	0x7e
	.sleb128 0
	.byte	0x33
	.byte	0x1e
	.byte	0x25
	.byte	0x37
	.byte	0x1a
	.byte	0x9f
	.4byte	0
	.4byte	0
.LVUS75:
	.uleb128 .LVU474
	.uleb128 .LVU475
.LLST75:
	.4byte	.LVL101
	.4byte	.LVL101
	.2byte	0x1
	.byte	0x57
	.4byte	0
	.4byte	0
.LVUS76:
	.uleb128 .LVU478
	.uleb128 .LVU479
	.uleb128 .LVU479
	.uleb128 .LVU559
	.uleb128 .LVU566
	.uleb128 0
.LLST76:
	.4byte	.LVL101
	.4byte	.LVL102
	.2byte	0x2
	.byte	0x30
	.byte	0x9f
	.4byte	.LVL102
	.4byte	.LVL122
	.2byte	0x1
	.byte	0x5e
	.4byte	.LVL124
	.4byte	.LFE146
	.2byte	0x1
	.byte	0x5e
	.4byte	0
	.4byte	0
.LVUS77:
	.uleb128 .LVU486
	.uleb128 .LVU556
	.uleb128 .LVU566
	.uleb128 0
.LLST77:
	.4byte	.LVL103
	.4byte	.LVL120
	.2byte	0x2
	.byte	0x30
	.byte	0x9f
	.4byte	.LVL124
	.4byte	.LFE146
	.2byte	0x2
	.byte	0x30
	.byte	0x9f
	.4byte	0
	.4byte	0
.LVUS78:
	.uleb128 .LVU486
	.uleb128 .LVU556
	.uleb128 .LVU566
	.uleb128 0
.LLST78:
	.4byte	.LVL103
	.4byte	.LVL120
	.2byte	0x1
	.byte	0x5e
	.4byte	.LVL124
	.4byte	.LFE146
	.2byte	0x1
	.byte	0x5e
	.4byte	0
	.4byte	0
.LVUS79:
	.uleb128 .LVU495
	.uleb128 .LVU538
	.uleb128 .LVU566
	.uleb128 0
.LLST79:
	.4byte	.LVL104
	.4byte	.LVL116
	.2byte	0x1
	.byte	0x54
	.4byte	.LVL124
	.4byte	.LFE146
	.2byte	0x1
	.byte	0x54
	.4byte	0
	.4byte	0
.LVUS80:
	.uleb128 .LVU509
	.uleb128 .LVU532
	.uleb128 .LVU532
	.uleb128 .LVU538
	.uleb128 .LVU566
	.uleb128 .LVU567
	.uleb128 .LVU567
	.uleb128 0
.LLST80:
	.4byte	.LVL107
	.4byte	.LVL114
	.2byte	0x1
	.byte	0x58
	.4byte	.LVL114
	.4byte	.LVL116
	.2byte	0x3
	.byte	0x7c
	.sleb128 1
	.byte	0x9f
	.4byte	.LVL124
	.4byte	.LVL125
	.2byte	0x1
	.byte	0x58
	.4byte	.LVL125
	.4byte	.LFE146
	.2byte	0x3
	.byte	0x7c
	.sleb128 1
	.byte	0x9f
	.4byte	0
	.4byte	0
.LVUS81:
	.uleb128 .LVU528
	.uleb128 .LVU532
.LLST81:
	.4byte	.LVL113
	.4byte	.LVL114
	.2byte	0x6
	.byte	0x73
	.sleb128 0
	.byte	0x8
	.byte	0xff
	.byte	0x1a
	.byte	0x9f
	.4byte	0
	.4byte	0
.LVUS82:
	.uleb128 .LVU496
	.uleb128 .LVU498
.LLST82:
	.4byte	.LVL104
	.4byte	.LVL105
	.2byte	0x1
	.byte	0x54
	.4byte	0
	.4byte	0
.LVUS83:
	.uleb128 .LVU511
	.uleb128 .LVU528
	.uleb128 .LVU566
	.uleb128 .LVU567
	.uleb128 .LVU567
	.uleb128 0
.LLST83:
	.4byte	.LVL107
	.4byte	.LVL113
	.2byte	0x1
	.byte	0x58
	.4byte	.LVL124
	.4byte	.LVL125
	.2byte	0x1
	.byte	0x58
	.4byte	.LVL125
	.4byte	.LFE146
	.2byte	0x3
	.byte	0x7c
	.sleb128 1
	.byte	0x9f
	.4byte	0
	.4byte	0
.LVUS84:
	.uleb128 .LVU515
	.uleb128 .LVU516
	.uleb128 .LVU516
	.uleb128 .LVU521
	.uleb128 .LVU521
	.uleb128 .LVU527
	.uleb128 .LVU527
	.uleb128 .LVU528
.LLST84:
	.4byte	.LVL108
	.4byte	.LVL109
	.2byte	0x1
	.byte	0x53
	.4byte	.LVL109
	.4byte	.LVL111
	.2byte	0x1
	.byte	0x50
	.4byte	.LVL111
	.4byte	.LVL112
	.2byte	0x1
	.byte	0x53
	.4byte	.LVL112
	.4byte	.LVL113
	.2byte	0x3
	.byte	0x70
	.sleb128 1
	.byte	0x9f
	.4byte	0
	.4byte	0
.LVUS85:
	.uleb128 .LVU515
	.uleb128 .LVU518
	.uleb128 .LVU522
	.uleb128 .LVU528
.LLST85:
	.4byte	.LVL108
	.4byte	.LVL110
	.2byte	0x1
	.byte	0x52
	.4byte	.LVL111
	.4byte	.LVL113
	.2byte	0x1
	.byte	0x52
	.4byte	0
	.4byte	0
.LVUS86:
	.uleb128 .LVU535
	.uleb128 .LVU538
	.uleb128 .LVU538
	.uleb128 .LVU552
	.uleb128 .LVU552
	.uleb128 .LVU556
.LLST86:
	.4byte	.LVL115
	.4byte	.LVL116
	.2byte	0x9
	.byte	0x71
	.sleb128 0
	.byte	0x33
	.byte	0x25
	.byte	0xa
	.2byte	0x3ff
	.byte	0x1a
	.byte	0x9f
	.4byte	.LVL116
	.4byte	.LVL119
	.2byte	0x1
	.byte	0x5c
	.4byte	.LVL119
	.4byte	.LVL120
	.2byte	0x3
	.byte	0x7c
	.sleb128 1
	.byte	0x9f
	.4byte	0
	.4byte	0
.LVUS87:
	.uleb128 .LVU542
	.uleb128 .LVU550
	.uleb128 .LVU550
	.uleb128 .LVU556
.LLST87:
	.4byte	.LVL117
	.4byte	.LVL118
	.2byte	0x1
	.byte	0x53
	.4byte	.LVL118
	.4byte	.LVL120
	.2byte	0x3
	.byte	0x73
	.sleb128 1
	.byte	0x9f
	.4byte	0
	.4byte	0
.LVUS88:
	.uleb128 .LVU561
	.uleb128 .LVU564
	.uleb128 .LVU564
	.uleb128 .LVU566
.LLST88:
	.4byte	.LVL122
	.4byte	.LVL123
	.2byte	0x5
	.byte	0x75
	.sleb128 0
	.byte	0x34
	.byte	0x21
	.byte	0x9f
	.4byte	.LVL123
	.4byte	.LVL124
	.2byte	0x1
	.byte	0x55
	.4byte	0
	.4byte	0
.LLST65:
	.4byte	.LFB145
	.4byte	.LCFI7
	.2byte	0x2
	.byte	0x7d
	.sleb128 0
	.4byte	.LCFI7
	.4byte	.LCFI8
	.2byte	0x2
	.byte	0x7d
	.sleb128 8
	.4byte	.LCFI8
	.4byte	.LFE145
	.2byte	0x2
	.byte	0x7d
	.sleb128 0
	.4byte	0
	.4byte	0
.LVUS66:
	.uleb128 .LVU430
	.uleb128 0
.LLST66:
	.4byte	.LVL94
	.4byte	.LFE145
	.2byte	0x1
	.byte	0x51
	.4byte	0
	.4byte	0
.LVUS67:
	.uleb128 .LVU434
	.uleb128 0
.LLST67:
	.4byte	.LVL95
	.4byte	.LFE145
	.2byte	0x1
	.byte	0x53
	.4byte	0
	.4byte	0
.LVUS68:
	.uleb128 .LVU438
	.uleb128 .LVU440
.LLST68:
	.4byte	.LVL96
	.4byte	.LVL97
	.2byte	0x1
	.byte	0x53
	.4byte	0
	.4byte	0
.LLST61:
	.4byte	.LFB144
	.4byte	.LCFI5
	.2byte	0x2
	.byte	0x7d
	.sleb128 0
	.4byte	.LCFI5
	.4byte	.LCFI6
	.2byte	0x2
	.byte	0x7d
	.sleb128 8
	.4byte	.LCFI6
	.4byte	.LFE144
	.2byte	0x2
	.byte	0x7d
	.sleb128 0
	.4byte	0
	.4byte	0
.LVUS62:
	.uleb128 .LVU402
	.uleb128 0
.LLST62:
	.4byte	.LVL88
	.4byte	.LFE144
	.2byte	0x1
	.byte	0x51
	.4byte	0
	.4byte	0
.LVUS63:
	.uleb128 .LVU406
	.uleb128 0
.LLST63:
	.4byte	.LVL89
	.4byte	.LFE144
	.2byte	0x1
	.byte	0x53
	.4byte	0
	.4byte	0
.LVUS64:
	.uleb128 .LVU410
	.uleb128 .LVU412
.LLST64:
	.4byte	.LVL90
	.4byte	.LVL91
	.2byte	0x1
	.byte	0x53
	.4byte	0
	.4byte	0
.LLST57:
	.4byte	.LFB143
	.4byte	.LCFI3
	.2byte	0x2
	.byte	0x7d
	.sleb128 0
	.4byte	.LCFI3
	.4byte	.LCFI4
	.2byte	0x2
	.byte	0x7d
	.sleb128 8
	.4byte	.LCFI4
	.4byte	.LFE143
	.2byte	0x2
	.byte	0x7d
	.sleb128 0
	.4byte	0
	.4byte	0
.LVUS58:
	.uleb128 .LVU374
	.uleb128 0
.LLST58:
	.4byte	.LVL82
	.4byte	.LFE143
	.2byte	0x1
	.byte	0x51
	.4byte	0
	.4byte	0
.LVUS59:
	.uleb128 .LVU378
	.uleb128 0
.LLST59:
	.4byte	.LVL83
	.4byte	.LFE143
	.2byte	0x1
	.byte	0x53
	.4byte	0
	.4byte	0
.LVUS60:
	.uleb128 .LVU382
	.uleb128 .LVU384
.LLST60:
	.4byte	.LVL84
	.4byte	.LVL85
	.2byte	0x1
	.byte	0x53
	.4byte	0
	.4byte	0
.LLST41:
	.4byte	.LFB142
	.4byte	.LCFI2
	.2byte	0x2
	.byte	0x7d
	.sleb128 0
	.4byte	.LCFI2
	.4byte	.LFE142
	.2byte	0x2
	.byte	0x7d
	.sleb128 24
	.4byte	0
	.4byte	0
.LVUS42:
	.uleb128 .LVU283
	.uleb128 0
.LLST42:
	.4byte	.LVL59
	.4byte	.LFE142
	.2byte	0x1
	.byte	0x57
	.4byte	0
	.4byte	0
.LVUS43:
	.uleb128 .LVU289
	.uleb128 .LVU367
	.uleb128 .LVU367
	.uleb128 .LVU368
	.uleb128 .LVU368
	.uleb128 0
.LLST43:
	.4byte	.LVL60
	.4byte	.LVL79
	.2byte	0xa
	.byte	0x77
	.sleb128 0
	.byte	0x74
	.sleb128 0
	.byte	0x33
	.byte	0x1e
	.byte	0x25
	.byte	0x37
	.byte	0x1a
	.byte	0x9f
	.4byte	.LVL79
	.4byte	.LVL80
	.2byte	0xa
	.byte	0x77
	.sleb128 0
	.byte	0x74
	.sleb128 -1
	.byte	0x33
	.byte	0x1e
	.byte	0x25
	.byte	0x37
	.byte	0x1a
	.byte	0x9f
	.4byte	.LVL80
	.4byte	.LFE142
	.2byte	0xa
	.byte	0x77
	.sleb128 0
	.byte	0x74
	.sleb128 0
	.byte	0x33
	.byte	0x1e
	.byte	0x25
	.byte	0x37
	.byte	0x1a
	.byte	0x9f
	.4byte	0
	.4byte	0
.LVUS44:
	.uleb128 .LVU282
	.uleb128 .LVU283
.LLST44:
	.4byte	.LVL59
	.4byte	.LVL59
	.2byte	0x1
	.byte	0x57
	.4byte	0
	.4byte	0
.LVUS45:
	.uleb128 .LVU286
	.uleb128 .LVU288
	.uleb128 .LVU288
	.uleb128 0
.LLST45:
	.4byte	.LVL59
	.4byte	.LVL60
	.2byte	0x2
	.byte	0x30
	.byte	0x9f
	.4byte	.LVL60
	.4byte	.LFE142
	.2byte	0x1
	.byte	0x54
	.4byte	0
	.4byte	0
.LVUS46:
	.uleb128 .LVU295
	.uleb128 .LVU365
	.uleb128 .LVU368
	.uleb128 0
.LLST46:
	.4byte	.LVL61
	.4byte	.LVL78
	.2byte	0x2
	.byte	0x32
	.byte	0x9f
	.4byte	.LVL80
	.4byte	.LFE142
	.2byte	0x2
	.byte	0x32
	.byte	0x9f
	.4byte	0
	.4byte	0
.LVUS47:
	.uleb128 .LVU295
	.uleb128 .LVU365
	.uleb128 .LVU368
	.uleb128 0
.LLST47:
	.4byte	.LVL61
	.4byte	.LVL78
	.2byte	0x1
	.byte	0x54
	.4byte	.LVL80
	.4byte	.LFE142
	.2byte	0x1
	.byte	0x54
	.4byte	0
	.4byte	0
.LVUS48:
	.uleb128 .LVU304
	.uleb128 .LVU347
	.uleb128 .LVU368
	.uleb128 0
.LLST48:
	.4byte	.LVL62
	.4byte	.LVL74
	.2byte	0x1
	.byte	0x55
	.4byte	.LVL80
	.4byte	.LFE142
	.2byte	0x1
	.byte	0x55
	.4byte	0
	.4byte	0
.LVUS49:
	.uleb128 .LVU318
	.uleb128 .LVU344
	.uleb128 .LVU344
	.uleb128 .LVU347
	.uleb128 .LVU368
	.uleb128 0
.LLST49:
	.4byte	.LVL65
	.4byte	.LVL73
	.2byte	0x1
	.byte	0x50
	.4byte	.LVL73
	.4byte	.LVL74
	.2byte	0x3
	.byte	0x7e
	.sleb128 1
	.byte	0x9f
	.4byte	.LVL80
	.4byte	.LFE142
	.2byte	0x1
	.byte	0x50
	.4byte	0
	.4byte	0
.LVUS50:
	.uleb128 .LVU337
	.uleb128 .LVU341
.LLST50:
	.4byte	.LVL71
	.4byte	.LVL72
	.2byte	0x6
	.byte	0x73
	.sleb128 0
	.byte	0x8
	.byte	0xff
	.byte	0x1a
	.byte	0x9f
	.4byte	0
	.4byte	0
.LVUS51:
	.uleb128 .LVU305
	.uleb128 .LVU307
.LLST51:
	.4byte	.LVL62
	.4byte	.LVL63
	.2byte	0x1
	.byte	0x55
	.4byte	0
	.4byte	0
.LVUS52:
	.uleb128 .LVU320
	.uleb128 .LVU337
	.uleb128 .LVU368
	.uleb128 0
.LLST52:
	.4byte	.LVL65
	.4byte	.LVL71
	.2byte	0x1
	.byte	0x50
	.4byte	.LVL80
	.4byte	.LFE142
	.2byte	0x1
	.byte	0x50
	.4byte	0
	.4byte	0
.LVUS53:
	.uleb128 .LVU324
	.uleb128 .LVU325
	.uleb128 .LVU325
	.uleb128 .LVU330
	.uleb128 .LVU330
	.uleb128 .LVU336
	.uleb128 .LVU336
	.uleb128 .LVU337
.LLST53:
	.4byte	.LVL66
	.4byte	.LVL67
	.2byte	0x1
	.byte	0x53
	.4byte	.LVL67
	.4byte	.LVL69
	.2byte	0x1
	.byte	0x51
	.4byte	.LVL69
	.4byte	.LVL70
	.2byte	0x1
	.byte	0x53
	.4byte	.LVL70
	.4byte	.LVL71
	.2byte	0x3
	.byte	0x71
	.sleb128 1
	.byte	0x9f
	.4byte	0
	.4byte	0
.LVUS54:
	.uleb128 .LVU324
	.uleb128 .LVU327
	.uleb128 .LVU331
	.uleb128 .LVU337
.LLST54:
	.4byte	.LVL66
	.4byte	.LVL68
	.2byte	0x1
	.byte	0x52
	.4byte	.LVL69
	.4byte	.LVL71
	.2byte	0x1
	.byte	0x52
	.4byte	0
	.4byte	0
.LVUS55:
	.uleb128 .LVU344
	.uleb128 .LVU347
	.uleb128 .LVU347
	.uleb128 .LVU361
	.uleb128 .LVU361
	.uleb128 .LVU365
.LLST55:
	.4byte	.LVL73
	.4byte	.LVL74
	.2byte	0x9
	.byte	0x78
	.sleb128 0
	.byte	0x33
	.byte	0x25
	.byte	0xa
	.2byte	0x3ff
	.byte	0x1a
	.byte	0x9f
	.4byte	.LVL74
	.4byte	.LVL77
	.2byte	0x1
	.byte	0x5e
	.4byte	.LVL77
	.4byte	.LVL78
	.2byte	0x3
	.byte	0x7e
	.sleb128 1
	.byte	0x9f
	.4byte	0
	.4byte	0
.LVUS56:
	.uleb128 .LVU351
	.uleb128 .LVU359
	.uleb128 .LVU359
	.uleb128 .LVU365
.LLST56:
	.4byte	.LVL75
	.4byte	.LVL76
	.2byte	0x1
	.byte	0x53
	.4byte	.LVL76
	.4byte	.LVL78
	.2byte	0x3
	.byte	0x73
	.sleb128 1
	.byte	0x9f
	.4byte	0
	.4byte	0
.LLST25:
	.4byte	.LFB141
	.4byte	.LCFI1
	.2byte	0x2
	.byte	0x7d
	.sleb128 0
	.4byte	.LCFI1
	.4byte	.LFE141
	.2byte	0x2
	.byte	0x7d
	.sleb128 24
	.4byte	0
	.4byte	0
.LVUS26:
	.uleb128 .LVU183
	.uleb128 0
.LLST26:
	.4byte	.LVL36
	.4byte	.LFE141
	.2byte	0x1
	.byte	0x57
	.4byte	0
	.4byte	0
.LVUS27:
	.uleb128 .LVU189
	.uleb128 .LVU267
	.uleb128 .LVU267
	.uleb128 .LVU268
	.uleb128 .LVU268
	.uleb128 0
.LLST27:
	.4byte	.LVL37
	.4byte	.LVL56
	.2byte	0xa
	.byte	0x77
	.sleb128 0
	.byte	0x74
	.sleb128 0
	.byte	0x33
	.byte	0x1e
	.byte	0x25
	.byte	0x37
	.byte	0x1a
	.byte	0x9f
	.4byte	.LVL56
	.4byte	.LVL57
	.2byte	0xa
	.byte	0x77
	.sleb128 0
	.byte	0x74
	.sleb128 -1
	.byte	0x33
	.byte	0x1e
	.byte	0x25
	.byte	0x37
	.byte	0x1a
	.byte	0x9f
	.4byte	.LVL57
	.4byte	.LFE141
	.2byte	0xa
	.byte	0x77
	.sleb128 0
	.byte	0x74
	.sleb128 0
	.byte	0x33
	.byte	0x1e
	.byte	0x25
	.byte	0x37
	.byte	0x1a
	.byte	0x9f
	.4byte	0
	.4byte	0
.LVUS28:
	.uleb128 .LVU182
	.uleb128 .LVU183
.LLST28:
	.4byte	.LVL36
	.4byte	.LVL36
	.2byte	0x1
	.byte	0x57
	.4byte	0
	.4byte	0
.LVUS29:
	.uleb128 .LVU186
	.uleb128 .LVU188
	.uleb128 .LVU188
	.uleb128 0
.LLST29:
	.4byte	.LVL36
	.4byte	.LVL37
	.2byte	0x2
	.byte	0x30
	.byte	0x9f
	.4byte	.LVL37
	.4byte	.LFE141
	.2byte	0x1
	.byte	0x54
	.4byte	0
	.4byte	0
.LVUS30:
	.uleb128 .LVU195
	.uleb128 .LVU265
	.uleb128 .LVU268
	.uleb128 0
.LLST30:
	.4byte	.LVL38
	.4byte	.LVL55
	.2byte	0x2
	.byte	0x31
	.byte	0x9f
	.4byte	.LVL57
	.4byte	.LFE141
	.2byte	0x2
	.byte	0x31
	.byte	0x9f
	.4byte	0
	.4byte	0
.LVUS31:
	.uleb128 .LVU195
	.uleb128 .LVU265
	.uleb128 .LVU268
	.uleb128 0
.LLST31:
	.4byte	.LVL38
	.4byte	.LVL55
	.2byte	0x1
	.byte	0x54
	.4byte	.LVL57
	.4byte	.LFE141
	.2byte	0x1
	.byte	0x54
	.4byte	0
	.4byte	0
.LVUS32:
	.uleb128 .LVU204
	.uleb128 .LVU247
	.uleb128 .LVU268
	.uleb128 0
.LLST32:
	.4byte	.LVL39
	.4byte	.LVL51
	.2byte	0x1
	.byte	0x55
	.4byte	.LVL57
	.4byte	.LFE141
	.2byte	0x1
	.byte	0x55
	.4byte	0
	.4byte	0
.LVUS33:
	.uleb128 .LVU218
	.uleb128 .LVU244
	.uleb128 .LVU244
	.uleb128 .LVU247
	.uleb128 .LVU268
	.uleb128 0
.LLST33:
	.4byte	.LVL42
	.4byte	.LVL50
	.2byte	0x1
	.byte	0x50
	.4byte	.LVL50
	.4byte	.LVL51
	.2byte	0x3
	.byte	0x7e
	.sleb128 1
	.byte	0x9f
	.4byte	.LVL57
	.4byte	.LFE141
	.2byte	0x1
	.byte	0x50
	.4byte	0
	.4byte	0
.LVUS34:
	.uleb128 .LVU237
	.uleb128 .LVU241
.LLST34:
	.4byte	.LVL48
	.4byte	.LVL49
	.2byte	0x6
	.byte	0x73
	.sleb128 0
	.byte	0x8
	.byte	0xff
	.byte	0x1a
	.byte	0x9f
	.4byte	0
	.4byte	0
.LVUS35:
	.uleb128 .LVU205
	.uleb128 .LVU207
.LLST35:
	.4byte	.LVL39
	.4byte	.LVL40
	.2byte	0x1
	.byte	0x55
	.4byte	0
	.4byte	0
.LVUS36:
	.uleb128 .LVU220
	.uleb128 .LVU237
	.uleb128 .LVU268
	.uleb128 0
.LLST36:
	.4byte	.LVL42
	.4byte	.LVL48
	.2byte	0x1
	.byte	0x50
	.4byte	.LVL57
	.4byte	.LFE141
	.2byte	0x1
	.byte	0x50
	.4byte	0
	.4byte	0
.LVUS37:
	.uleb128 .LVU224
	.uleb128 .LVU225
	.uleb128 .LVU225
	.uleb128 .LVU230
	.uleb128 .LVU230
	.uleb128 .LVU236
	.uleb128 .LVU236
	.uleb128 .LVU237
.LLST37:
	.4byte	.LVL43
	.4byte	.LVL44
	.2byte	0x1
	.byte	0x53
	.4byte	.LVL44
	.4byte	.LVL46
	.2byte	0x1
	.byte	0x51
	.4byte	.LVL46
	.4byte	.LVL47
	.2byte	0x1
	.byte	0x53
	.4byte	.LVL47
	.4byte	.LVL48
	.2byte	0x3
	.byte	0x71
	.sleb128 1
	.byte	0x9f
	.4byte	0
	.4byte	0
.LVUS38:
	.uleb128 .LVU224
	.uleb128 .LVU227
	.uleb128 .LVU231
	.uleb128 .LVU237
.LLST38:
	.4byte	.LVL43
	.4byte	.LVL45
	.2byte	0x1
	.byte	0x52
	.4byte	.LVL46
	.4byte	.LVL48
	.2byte	0x1
	.byte	0x52
	.4byte	0
	.4byte	0
.LVUS39:
	.uleb128 .LVU244
	.uleb128 .LVU247
	.uleb128 .LVU247
	.uleb128 .LVU261
	.uleb128 .LVU261
	.uleb128 .LVU265
.LLST39:
	.4byte	.LVL50
	.4byte	.LVL51
	.2byte	0x9
	.byte	0x78
	.sleb128 0
	.byte	0x33
	.byte	0x25
	.byte	0xa
	.2byte	0x3ff
	.byte	0x1a
	.byte	0x9f
	.4byte	.LVL51
	.4byte	.LVL54
	.2byte	0x1
	.byte	0x5e
	.4byte	.LVL54
	.4byte	.LVL55
	.2byte	0x3
	.byte	0x7e
	.sleb128 1
	.byte	0x9f
	.4byte	0
	.4byte	0
.LVUS40:
	.uleb128 .LVU251
	.uleb128 .LVU259
	.uleb128 .LVU259
	.uleb128 .LVU265
.LLST40:
	.4byte	.LVL52
	.4byte	.LVL53
	.2byte	0x1
	.byte	0x53
	.4byte	.LVL53
	.4byte	.LVL55
	.2byte	0x3
	.byte	0x73
	.sleb128 1
	.byte	0x9f
	.4byte	0
	.4byte	0
.LLST9:
	.4byte	.LFB140
	.4byte	.LCFI0
	.2byte	0x2
	.byte	0x7d
	.sleb128 0
	.4byte	.LCFI0
	.4byte	.LFE140
	.2byte	0x2
	.byte	0x7d
	.sleb128 24
	.4byte	0
	.4byte	0
.LVUS10:
	.uleb128 .LVU83
	.uleb128 0
.LLST10:
	.4byte	.LVL13
	.4byte	.LFE140
	.2byte	0x1
	.byte	0x57
	.4byte	0
	.4byte	0
.LVUS11:
	.uleb128 .LVU89
	.uleb128 .LVU167
	.uleb128 .LVU167
	.uleb128 .LVU168
	.uleb128 .LVU168
	.uleb128 0
.LLST11:
	.4byte	.LVL14
	.4byte	.LVL33
	.2byte	0xa
	.byte	0x77
	.sleb128 0
	.byte	0x74
	.sleb128 0
	.byte	0x33
	.byte	0x1e
	.byte	0x25
	.byte	0x37
	.byte	0x1a
	.byte	0x9f
	.4byte	.LVL33
	.4byte	.LVL34
	.2byte	0xa
	.byte	0x77
	.sleb128 0
	.byte	0x74
	.sleb128 -1
	.byte	0x33
	.byte	0x1e
	.byte	0x25
	.byte	0x37
	.byte	0x1a
	.byte	0x9f
	.4byte	.LVL34
	.4byte	.LFE140
	.2byte	0xa
	.byte	0x77
	.sleb128 0
	.byte	0x74
	.sleb128 0
	.byte	0x33
	.byte	0x1e
	.byte	0x25
	.byte	0x37
	.byte	0x1a
	.byte	0x9f
	.4byte	0
	.4byte	0
.LVUS12:
	.uleb128 .LVU82
	.uleb128 .LVU83
.LLST12:
	.4byte	.LVL13
	.4byte	.LVL13
	.2byte	0x1
	.byte	0x57
	.4byte	0
	.4byte	0
.LVUS13:
	.uleb128 .LVU86
	.uleb128 .LVU88
	.uleb128 .LVU88
	.uleb128 0
.LLST13:
	.4byte	.LVL13
	.4byte	.LVL14
	.2byte	0x2
	.byte	0x30
	.byte	0x9f
	.4byte	.LVL14
	.4byte	.LFE140
	.2byte	0x1
	.byte	0x54
	.4byte	0
	.4byte	0
.LVUS14:
	.uleb128 .LVU95
	.uleb128 .LVU165
	.uleb128 .LVU168
	.uleb128 0
.LLST14:
	.4byte	.LVL15
	.4byte	.LVL32
	.2byte	0x2
	.byte	0x30
	.byte	0x9f
	.4byte	.LVL34
	.4byte	.LFE140
	.2byte	0x2
	.byte	0x30
	.byte	0x9f
	.4byte	0
	.4byte	0
.LVUS15:
	.uleb128 .LVU95
	.uleb128 .LVU165
	.uleb128 .LVU168
	.uleb128 0
.LLST15:
	.4byte	.LVL15
	.4byte	.LVL32
	.2byte	0x1
	.byte	0x54
	.4byte	.LVL34
	.4byte	.LFE140
	.2byte	0x1
	.byte	0x54
	.4byte	0
	.4byte	0
.LVUS16:
	.uleb128 .LVU104
	.uleb128 .LVU147
	.uleb128 .LVU168
	.uleb128 0
.LLST16:
	.4byte	.LVL16
	.4byte	.LVL28
	.2byte	0x1
	.byte	0x55
	.4byte	.LVL34
	.4byte	.LFE140
	.2byte	0x1
	.byte	0x55
	.4byte	0
	.4byte	0
.LVUS17:
	.uleb128 .LVU118
	.uleb128 .LVU144
	.uleb128 .LVU144
	.uleb128 .LVU147
	.uleb128 .LVU168
	.uleb128 0
.LLST17:
	.4byte	.LVL19
	.4byte	.LVL27
	.2byte	0x1
	.byte	0x50
	.4byte	.LVL27
	.4byte	.LVL28
	.2byte	0x3
	.byte	0x7e
	.sleb128 1
	.byte	0x9f
	.4byte	.LVL34
	.4byte	.LFE140
	.2byte	0x1
	.byte	0x50
	.4byte	0
	.4byte	0
.LVUS18:
	.uleb128 .LVU137
	.uleb128 .LVU141
.LLST18:
	.4byte	.LVL25
	.4byte	.LVL26
	.2byte	0x6
	.byte	0x73
	.sleb128 0
	.byte	0x8
	.byte	0xff
	.byte	0x1a
	.byte	0x9f
	.4byte	0
	.4byte	0
.LVUS19:
	.uleb128 .LVU105
	.uleb128 .LVU107
.LLST19:
	.4byte	.LVL16
	.4byte	.LVL17
	.2byte	0x1
	.byte	0x55
	.4byte	0
	.4byte	0
.LVUS20:
	.uleb128 .LVU120
	.uleb128 .LVU137
	.uleb128 .LVU168
	.uleb128 0
.LLST20:
	.4byte	.LVL19
	.4byte	.LVL25
	.2byte	0x1
	.byte	0x50
	.4byte	.LVL34
	.4byte	.LFE140
	.2byte	0x1
	.byte	0x50
	.4byte	0
	.4byte	0
.LVUS21:
	.uleb128 .LVU124
	.uleb128 .LVU125
	.uleb128 .LVU125
	.uleb128 .LVU130
	.uleb128 .LVU130
	.uleb128 .LVU136
	.uleb128 .LVU136
	.uleb128 .LVU137
.LLST21:
	.4byte	.LVL20
	.4byte	.LVL21
	.2byte	0x1
	.byte	0x53
	.4byte	.LVL21
	.4byte	.LVL23
	.2byte	0x1
	.byte	0x51
	.4byte	.LVL23
	.4byte	.LVL24
	.2byte	0x1
	.byte	0x53
	.4byte	.LVL24
	.4byte	.LVL25
	.2byte	0x3
	.byte	0x71
	.sleb128 1
	.byte	0x9f
	.4byte	0
	.4byte	0
.LVUS22:
	.uleb128 .LVU124
	.uleb128 .LVU127
	.uleb128 .LVU131
	.uleb128 .LVU137
.LLST22:
	.4byte	.LVL20
	.4byte	.LVL22
	.2byte	0x1
	.byte	0x52
	.4byte	.LVL23
	.4byte	.LVL25
	.2byte	0x1
	.byte	0x52
	.4byte	0
	.4byte	0
.LVUS23:
	.uleb128 .LVU144
	.uleb128 .LVU147
	.uleb128 .LVU147
	.uleb128 .LVU161
	.uleb128 .LVU161
	.uleb128 .LVU165
.LLST23:
	.4byte	.LVL27
	.4byte	.LVL28
	.2byte	0x9
	.byte	0x78
	.sleb128 0
	.byte	0x33
	.byte	0x25
	.byte	0xa
	.2byte	0x3ff
	.byte	0x1a
	.byte	0x9f
	.4byte	.LVL28
	.4byte	.LVL31
	.2byte	0x1
	.byte	0x5e
	.4byte	.LVL31
	.4byte	.LVL32
	.2byte	0x3
	.byte	0x7e
	.sleb128 1
	.byte	0x9f
	.4byte	0
	.4byte	0
.LVUS24:
	.uleb128 .LVU151
	.uleb128 .LVU159
	.uleb128 .LVU159
	.uleb128 .LVU165
.LLST24:
	.4byte	.LVL29
	.4byte	.LVL30
	.2byte	0x1
	.byte	0x53
	.4byte	.LVL30
	.4byte	.LVL32
	.2byte	0x3
	.byte	0x73
	.sleb128 1
	.byte	0x9f
	.4byte	0
	.4byte	0
.LVUS5:
	.uleb128 .LVU47
	.uleb128 .LVU54
.LLST5:
	.4byte	.LVL7
	.4byte	.LVL9
	.2byte	0x1
	.byte	0x53
	.4byte	0
	.4byte	0
.LVUS6:
	.uleb128 .LVU46
	.uleb128 .LVU47
.LLST6:
	.4byte	.LVL7
	.4byte	.LVL7
	.2byte	0x1
	.byte	0x53
	.4byte	0
	.4byte	0
.LVUS7:
	.uleb128 .LVU51
	.uleb128 .LVU54
	.uleb128 .LVU54
	.uleb128 .LVU55
.LLST7:
	.4byte	.LVL8
	.4byte	.LVL9
	.2byte	0x7
	.byte	0x73
	.sleb128 0
	.byte	0xb
	.2byte	0xefff
	.byte	0x1a
	.byte	0x9f
	.4byte	.LVL9
	.4byte	.LVL10
	.2byte	0x1
	.byte	0x53
	.4byte	0
	.4byte	0
.LVUS8:
	.uleb128 .LVU59
	.uleb128 .LVU61
.LLST8:
	.4byte	.LVL10
	.4byte	.LVL11
	.2byte	0x2
	.byte	0x30
	.byte	0x9f
	.4byte	0
	.4byte	0
.LVUS0:
	.uleb128 .LVU4
	.uleb128 .LVU6
.LLST0:
	.4byte	.LVL0
	.4byte	.LVL1
	.2byte	0x2
	.byte	0x30
	.byte	0x9f
	.4byte	0
	.4byte	0
.LVUS1:
	.uleb128 .LVU20
	.uleb128 .LVU39
.LLST1:
	.4byte	.LVL2
	.4byte	.LVL6
	.2byte	0x1
	.byte	0x53
	.4byte	0
	.4byte	0
.LVUS2:
	.uleb128 .LVU19
	.uleb128 .LVU20
.LLST2:
	.4byte	.LVL2
	.4byte	.LVL2
	.2byte	0x1
	.byte	0x53
	.4byte	0
	.4byte	0
.LVUS3:
	.uleb128 .LVU26
	.uleb128 .LVU28
.LLST3:
	.4byte	.LVL3
	.4byte	.LVL4
	.2byte	0x2
	.byte	0x30
	.byte	0x9f
	.4byte	0
	.4byte	0
.LVUS4:
	.uleb128 .LVU36
	.uleb128 .LVU39
	.uleb128 .LVU39
	.uleb128 0
.LLST4:
	.4byte	.LVL5
	.4byte	.LVL6
	.2byte	0x7
	.byte	0x73
	.sleb128 0
	.byte	0xa
	.2byte	0x1000
	.byte	0x21
	.byte	0x9f
	.4byte	.LVL6
	.4byte	.LFE138
	.2byte	0x1
	.byte	0x53
	.4byte	0
	.4byte	0
	.section	.debug_aranges,info
	.4byte	0x74
	.2byte	0x2
	.4byte	.Ldebug_info0
	.byte	0x4
	.byte	0
	.2byte	0
	.2byte	0
	.4byte	.LFB137
	.4byte	.LFE137-.LFB137
	.4byte	.LFB138
	.4byte	.LFE138-.LFB138
	.4byte	.LFB139
	.4byte	.LFE139-.LFB139
	.4byte	.LFB140
	.4byte	.LFE140-.LFB140
	.4byte	.LFB141
	.4byte	.LFE141-.LFB141
	.4byte	.LFB142
	.4byte	.LFE142-.LFB142
	.4byte	.LFB143
	.4byte	.LFE143-.LFB143
	.4byte	.LFB144
	.4byte	.LFE144-.LFB144
	.4byte	.LFB145
	.4byte	.LFE145-.LFB145
	.4byte	.LFB146
	.4byte	.LFE146-.LFB146
	.4byte	.LFB147
	.4byte	.LFE147-.LFB147
	.4byte	.LFB148
	.4byte	.LFE148-.LFB148
	.4byte	0
	.4byte	0
	.section	.debug_ranges,info
.Ldebug_ranges0:
	.4byte	.LBB343
	.4byte	.LBE343
	.4byte	.LBB350
	.4byte	.LBE350
	.4byte	.LBB351
	.4byte	.LBE351
	.4byte	.LBB352
	.4byte	.LBE352
	.4byte	0
	.4byte	0
	.4byte	.LBB355
	.4byte	.LBE355
	.4byte	.LBB362
	.4byte	.LBE362
	.4byte	.LBB363
	.4byte	.LBE363
	.4byte	.LBB364
	.4byte	.LBE364
	.4byte	0
	.4byte	0
	.4byte	.LBB365
	.4byte	.LBE365
	.4byte	.LBB368
	.4byte	.LBE368
	.4byte	0
	.4byte	0
	.4byte	.LBB371
	.4byte	.LBE371
	.4byte	.LBB374
	.4byte	.LBE374
	.4byte	0
	.4byte	0
	.4byte	.LBB375
	.4byte	.LBE375
	.4byte	.LBB382
	.4byte	.LBE382
	.4byte	.LBB383
	.4byte	.LBE383
	.4byte	.LBB384
	.4byte	.LBE384
	.4byte	0
	.4byte	0
	.4byte	.LBB385
	.4byte	.LBE385
	.4byte	.LBB416
	.4byte	.LBE416
	.4byte	.LBB417
	.4byte	.LBE417
	.4byte	0
	.4byte	0
	.4byte	.LBB388
	.4byte	.LBE388
	.4byte	.LBB391
	.4byte	.LBE391
	.4byte	0
	.4byte	0
	.4byte	.LBB393
	.4byte	.LBE393
	.4byte	.LBB413
	.4byte	.LBE413
	.4byte	0
	.4byte	0
	.4byte	.LBB399
	.4byte	.LBE399
	.4byte	.LBB411
	.4byte	.LBE411
	.4byte	0
	.4byte	0
	.4byte	.LBB402
	.4byte	.LBE402
	.4byte	.LBB408
	.4byte	.LBE408
	.4byte	0
	.4byte	0
	.4byte	.LBB404
	.4byte	.LBE404
	.4byte	.LBB407
	.4byte	.LBE407
	.4byte	0
	.4byte	0
	.4byte	.LBB418
	.4byte	.LBE418
	.4byte	.LBB449
	.4byte	.LBE449
	.4byte	.LBB450
	.4byte	.LBE450
	.4byte	0
	.4byte	0
	.4byte	.LBB421
	.4byte	.LBE421
	.4byte	.LBB424
	.4byte	.LBE424
	.4byte	0
	.4byte	0
	.4byte	.LBB426
	.4byte	.LBE426
	.4byte	.LBB446
	.4byte	.LBE446
	.4byte	0
	.4byte	0
	.4byte	.LBB432
	.4byte	.LBE432
	.4byte	.LBB444
	.4byte	.LBE444
	.4byte	0
	.4byte	0
	.4byte	.LBB435
	.4byte	.LBE435
	.4byte	.LBB441
	.4byte	.LBE441
	.4byte	0
	.4byte	0
	.4byte	.LBB437
	.4byte	.LBE437
	.4byte	.LBB440
	.4byte	.LBE440
	.4byte	0
	.4byte	0
	.4byte	.LBB451
	.4byte	.LBE451
	.4byte	.LBB482
	.4byte	.LBE482
	.4byte	.LBB483
	.4byte	.LBE483
	.4byte	0
	.4byte	0
	.4byte	.LBB454
	.4byte	.LBE454
	.4byte	.LBB457
	.4byte	.LBE457
	.4byte	0
	.4byte	0
	.4byte	.LBB459
	.4byte	.LBE459
	.4byte	.LBB479
	.4byte	.LBE479
	.4byte	0
	.4byte	0
	.4byte	.LBB465
	.4byte	.LBE465
	.4byte	.LBB477
	.4byte	.LBE477
	.4byte	0
	.4byte	0
	.4byte	.LBB468
	.4byte	.LBE468
	.4byte	.LBB474
	.4byte	.LBE474
	.4byte	0
	.4byte	0
	.4byte	.LBB470
	.4byte	.LBE470
	.4byte	.LBB473
	.4byte	.LBE473
	.4byte	0
	.4byte	0
	.4byte	.LBB502
	.4byte	.LBE502
	.4byte	.LBB505
	.4byte	.LBE505
	.4byte	0
	.4byte	0
	.4byte	.LBB506
	.4byte	.LBE506
	.4byte	.LBB536
	.4byte	.LBE536
	.4byte	.LBB541
	.4byte	.LBE541
	.4byte	0
	.4byte	0
	.4byte	.LBB511
	.4byte	.LBE511
	.4byte	.LBB533
	.4byte	.LBE533
	.4byte	0
	.4byte	0
	.4byte	.LBB512
	.4byte	.LBE512
	.4byte	.LBB532
	.4byte	.LBE532
	.4byte	0
	.4byte	0
	.4byte	.LBB518
	.4byte	.LBE518
	.4byte	.LBB530
	.4byte	.LBE530
	.4byte	0
	.4byte	0
	.4byte	.LBB521
	.4byte	.LBE521
	.4byte	.LBB527
	.4byte	.LBE527
	.4byte	0
	.4byte	0
	.4byte	.LBB523
	.4byte	.LBE523
	.4byte	.LBB526
	.4byte	.LBE526
	.4byte	0
	.4byte	0
	.4byte	.LBB537
	.4byte	.LBE537
	.4byte	.LBB540
	.4byte	.LBE540
	.4byte	0
	.4byte	0
	.4byte	.LBB542
	.4byte	.LBE542
	.4byte	.LBB545
	.4byte	.LBE545
	.4byte	0
	.4byte	0
	.4byte	.LBB546
	.4byte	.LBE546
	.4byte	.LBB576
	.4byte	.LBE576
	.4byte	.LBB609
	.4byte	.LBE609
	.4byte	0
	.4byte	0
	.4byte	.LBB551
	.4byte	.LBE551
	.4byte	.LBB573
	.4byte	.LBE573
	.4byte	0
	.4byte	0
	.4byte	.LBB552
	.4byte	.LBE552
	.4byte	.LBB572
	.4byte	.LBE572
	.4byte	0
	.4byte	0
	.4byte	.LBB558
	.4byte	.LBE558
	.4byte	.LBB570
	.4byte	.LBE570
	.4byte	0
	.4byte	0
	.4byte	.LBB561
	.4byte	.LBE561
	.4byte	.LBB567
	.4byte	.LBE567
	.4byte	0
	.4byte	0
	.4byte	.LBB563
	.4byte	.LBE563
	.4byte	.LBB566
	.4byte	.LBE566
	.4byte	0
	.4byte	0
	.4byte	.LBB577
	.4byte	.LBE577
	.4byte	.LBB580
	.4byte	.LBE580
	.4byte	0
	.4byte	0
	.4byte	.LBB581
	.4byte	.LBE581
	.4byte	.LBB608
	.4byte	.LBE608
	.4byte	0
	.4byte	0
	.4byte	.LBB587
	.4byte	.LBE587
	.4byte	.LBB607
	.4byte	.LBE607
	.4byte	0
	.4byte	0
	.4byte	.LBB593
	.4byte	.LBE593
	.4byte	.LBB605
	.4byte	.LBE605
	.4byte	0
	.4byte	0
	.4byte	.LBB596
	.4byte	.LBE596
	.4byte	.LBB602
	.4byte	.LBE602
	.4byte	0
	.4byte	0
	.4byte	.LBB598
	.4byte	.LBE598
	.4byte	.LBB601
	.4byte	.LBE601
	.4byte	0
	.4byte	0
	.4byte	.LBB620
	.4byte	.LBE620
	.4byte	.LBB641
	.4byte	.LBE641
	.4byte	.LBB642
	.4byte	.LBE642
	.4byte	.LBB643
	.4byte	.LBE643
	.4byte	0
	.4byte	0
	.4byte	.LBB624
	.4byte	.LBE624
	.4byte	.LBB631
	.4byte	.LBE631
	.4byte	.LBB632
	.4byte	.LBE632
	.4byte	.LBB633
	.4byte	.LBE633
	.4byte	0
	.4byte	0
	.4byte	.LBB634
	.4byte	.LBE634
	.4byte	.LBB637
	.4byte	.LBE637
	.4byte	0
	.4byte	0
	.4byte	.LBB648
	.4byte	.LBE648
	.4byte	.LBB651
	.4byte	.LBE651
	.4byte	0
	.4byte	0
	.4byte	.LFB137
	.4byte	.LFE137
	.4byte	.LFB138
	.4byte	.LFE138
	.4byte	.LFB139
	.4byte	.LFE139
	.4byte	.LFB140
	.4byte	.LFE140
	.4byte	.LFB141
	.4byte	.LFE141
	.4byte	.LFB142
	.4byte	.LFE142
	.4byte	.LFB143
	.4byte	.LFE143
	.4byte	.LFB144
	.4byte	.LFE144
	.4byte	.LFB145
	.4byte	.LFE145
	.4byte	.LFB146
	.4byte	.LFE146
	.4byte	.LFB147
	.4byte	.LFE147
	.4byte	.LFB148
	.4byte	.LFE148
	.4byte	0
	.4byte	0
	.section	.debug_line,info
.Ldebug_line0:
	.section	.debug_str,info
.LASF27:
	.ascii	"dcache_CleanAll\000"
.LASF24:
	.ascii	"uAddr\000"
.LASF57:
	.ascii	"result\000"
.LASF33:
	.ascii	"L1C_CleanDCacheAll\000"
.LASF51:
	.ascii	"__set_DCCISW\000"
.LASF50:
	.ascii	"L1C_InvalidateICacheAll\000"
.LASF76:
	.ascii	"icache_Enable\000"
.LASF26:
	.ascii	"dcache_CleanInvalidateAll\000"
.LASF30:
	.ascii	"icache_InvalidateAll\000"
.LASF42:
	.ascii	"maint\000"
.LASF3:
	.ascii	"short int\000"
.LASF65:
	.ascii	"__set_SCTLR\000"
.LASF43:
	.ascii	"Dummy\000"
.LASF55:
	.ascii	"__log2_up\000"
.LASF52:
	.ascii	"value\000"
.LASF78:
	.ascii	"__builtin_memset\000"
.LASF18:
	.ascii	"dcache_Enable\000"
.LASF7:
	.ascii	"uint8_t\000"
.LASF67:
	.ascii	"dacr\000"
.LASF38:
	.ascii	"clidr\000"
.LASF34:
	.ascii	"L1C_InvalidateDCacheAll\000"
.LASF60:
	.ascii	"__set_DCCIMVAC\000"
.LASF2:
	.ascii	"signed char\000"
.LASF35:
	.ascii	"mmu_configure\000"
.LASF31:
	.ascii	"MMU_Enable\000"
.LASF5:
	.ascii	"long long int\000"
.LASF54:
	.ascii	"__set_DCISW\000"
.LASF58:
	.ascii	"__get_CCSIDR\000"
.LASF77:
	.ascii	"memset\000"
.LASF4:
	.ascii	"long int\000"
.LASF25:
	.ascii	"dcache_InvalidateByAddr\000"
.LASF14:
	.ascii	"addr\000"
.LASF46:
	.ascii	"num_ways\000"
.LASF17:
	.ascii	"sctlr\000"
.LASF66:
	.ascii	"__set_DACR\000"
.LASF68:
	.ascii	"__set_TTBR0\000"
.LASF63:
	.ascii	"__set_ICIALLU\000"
.LASF28:
	.ascii	"dcache_InvalidateAll\000"
.LASF8:
	.ascii	"unsigned char\000"
.LASF36:
	.ascii	"L1C_CleanInvalidateCache\000"
.LASF71:
	.ascii	"__DSB\000"
.LASF12:
	.ascii	"long long unsigned int\000"
.LASF10:
	.ascii	"uint32_t\000"
.LASF56:
	.ascii	"__get_CLIDR\000"
.LASF1:
	.ascii	"unsigned int\000"
.LASF29:
	.ascii	"icache_Disable\000"
.LASF45:
	.ascii	"num_sets\000"
.LASF69:
	.ascii	"ttbr0\000"
.LASF44:
	.ascii	"ccsidr\000"
.LASF9:
	.ascii	"short unsigned int\000"
.LASF73:
	.ascii	"GNU C17 8.3.1 -mfpu=neon-vfpv4 -mconfig-data-file=C"
	.ascii	":/Program Files/Microchip/MPLABX/v6.25/packs/Microc"
	.ascii	"hip/SAMA5D2_DFP/1.12.233/xc32/ATSAMA5D29/configurat"
	.ascii	"ion.data -marm -mprocessor=ATSAMA5D29 -mdfp=C:/Prog"
	.ascii	"ram Files/Microchip/MPLABX/v6.25/packs/Microchip/SA"
	.ascii	"MA5D2_DFP/1.12.233 -mcpu=cortex-a5 -mfloat-abi=hard"
	.ascii	" -mfpu=neon-vfpv4 -march=armv7-a+mp+sec+neon-vfpv4 "
	.ascii	"-g -O3 -ffunction-sections -fdata-sections -ftoplev"
	.ascii	"el-reorder -fno-common -fno-lto\000"
.LASF49:
	.ascii	"log2_num_ways\000"
.LASF40:
	.ascii	"__L1C_MaintainDCacheSetWay\000"
.LASF13:
	.ascii	"char\000"
.LASF6:
	.ascii	"int32_t\000"
.LASF47:
	.ascii	"shift_way\000"
.LASF48:
	.ascii	"log2_linesize\000"
.LASF62:
	.ascii	"__set_DCCMVAC\000"
.LASF61:
	.ascii	"__set_DCIMVAC\000"
.LASF64:
	.ascii	"__get_SCTLR\000"
.LASF75:
	.ascii	"C:\\\\Workspace\\\\TechSupport\\\\Mantra\\\\uart_ec"
	.ascii	"ho_interrupt_swapna\\\\uart_echo_interrupt_swapna\\"
	.ascii	"\\uart_echo_interrupt\\\\firmware\\\\sama5d29_curio"
	.ascii	"sity.X\000"
.LASF53:
	.ascii	"__set_DCCSW\000"
.LASF37:
	.ascii	"p_tlb\000"
.LASF20:
	.ascii	"pAddr\000"
.LASF11:
	.ascii	"long unsigned int\000"
.LASF0:
	.ascii	"double\000"
.LASF16:
	.ascii	"dcache_Disable\000"
.LASF21:
	.ascii	"size\000"
.LASF74:
	.ascii	"../src/config/sama5d29_curiosity/peripheral/mmu/pli"
	.ascii	"b_mmu.c\000"
.LASF41:
	.ascii	"level\000"
.LASF59:
	.ascii	"__set_CSSELR\000"
.LASF19:
	.ascii	"dcache_CleanInvalidateByAddr\000"
.LASF32:
	.ascii	"L1C_CleanInvalidateDCacheAll\000"
.LASF15:
	.ascii	"MMU_Initialize\000"
.LASF22:
	.ascii	"uSize\000"
.LASF39:
	.ascii	"cache_type\000"
.LASF70:
	.ascii	"__DMB\000"
.LASF72:
	.ascii	"__ISB\000"
.LASF23:
	.ascii	"dcache_CleanByAddr\000"
	.ident	"GCC: (Microchip XC32 Compiler v4.60) 8.3.1"
