	.cpu cortex-a5
	.eabi_attribute 28, 1	@ Tag_ABI_VFP_args
	.eabi_attribute 20, 1	@ Tag_ABI_FP_denormal
	.eabi_attribute 21, 1	@ Tag_ABI_FP_exceptions
	.eabi_attribute 23, 3	@ Tag_ABI_FP_number_model
	.eabi_attribute 24, 1	@ Tag_ABI_align8_needed
	.eabi_attribute 25, 1	@ Tag_ABI_align8_preserved
	.eabi_attribute 26, 1	@ Tag_ABI_enum_size
	.eabi_attribute 30, 2	@ Tag_ABI_optimization_goals
	.eabi_attribute 34, 1	@ Tag_CPU_unaligned_access
	.eabi_attribute 18, 4	@ Tag_ABI_PCS_wchar_t
	.file	"plib_mmu.c"
@ GNU C17 (Microchip XC32 Compiler v4.60) version 8.3.1 (pic32c)
@	compiled by GNU C version 9.3-win32 20200320, GMP version 6.1.0, MPFR version 3.1.4, MPC version 1.0.3, isl version none
@ GGC heuristics: --param ggc-min-expand=100 --param ggc-min-heapsize=131072
@ options passed:  -fpreprocessed plib_mmu.i -D__SAMA5D29__
@ -mfpu=neon-vfpv4 -fverbose-asm
@ -mconfig-data-file=C:/Program Files/Microchip/MPLABX/v6.25/packs/Microchip/SAMA5D2_DFP/1.12.233/xc32/ATSAMA5D29/configuration.data
@ -isystem c:/program files/microchip/xc32/v4.60/bin/bin/../../pic32c/include/CMSIS/Core_A/Include
@ -D__XC32_INCLUDE_MCC
@ -isystem c:/program files/microchip/xc32/v4.60/bin/bin/../../pic32c/include_mcc
@ -marm -mprocessor=ATSAMA5D29
@ -mdfp=C:/Program Files/Microchip/MPLABX/v6.25/packs/Microchip/SAMA5D2_DFP/1.12.233
@ -mcpu=cortex-a5 -mfloat-abi=hard -mfpu=neon-vfpv4
@ -march=armv7-a+mp+sec+neon-vfpv4
@ -auxbase-strip build/sama5d29_curiosity/production/_ext/922293852/plib_mmu.o
@ -g -O3 -Werror -Wall -ffunction-sections -fdata-sections
@ -ftoplevel-reorder -fno-common -fno-lto
@ options enabled:  -faggressive-loop-optimizations -falign-jumps
@ -falign-labels -falign-loops -fauto-inc-dec -fbranch-count-reg
@ -fcaller-saves -fchkp-check-incomplete-type -fchkp-check-read
@ -fchkp-check-write -fchkp-instrument-calls -fchkp-narrow-bounds
@ -fchkp-optimize -fchkp-store-bounds -fchkp-use-static-bounds
@ -fchkp-use-static-const-bounds -fchkp-use-wrappers -fcode-hoisting
@ -fcombine-stack-adjustments -fcompare-elim -fcprop-registers
@ -fcrossjumping -fcse-follow-jumps -fdata-sections -fdebug-types-section
@ -fdefer-pop -fdelete-null-pointer-checks -fdevirtualize
@ -fdevirtualize-speculatively -fdwarf2-cfi-asm -fearly-inlining
@ -feliminate-unused-debug-symbols -feliminate-unused-debug-types
@ -fexpensive-optimizations -fforward-propagate -ffp-int-builtin-inexact
@ -ffunction-cse -ffunction-sections -fgcse -fgcse-after-reload -fgcse-lm
@ -fgnu-runtime -fgnu-unique -fguess-branch-probability
@ -fhoist-adjacent-loads -fident -fif-conversion -fif-conversion2
@ -findirect-inlining -finline -finline-atomics -finline-functions
@ -finline-functions-called-once -finline-small-functions -fipa-bit-cp
@ -fipa-cp -fipa-cp-clone -fipa-icf -fipa-icf-functions -fipa-icf-variables
@ -fipa-profile -fipa-pure-const -fipa-ra -fipa-reference -fipa-sra
@ -fipa-vrp -fira-hoist-pressure -fira-share-save-slots
@ -fira-share-spill-slots -fisolate-erroneous-paths-dereference -fivopts
@ -fkeep-static-consts -fleading-underscore -flifetime-dse
@ -floop-unroll-and-jam -flra-remat -flto-odr-type-merging -fmath-errno
@ -fmerge-constants -fmerge-debug-strings -fmove-loop-invariants
@ -fomit-frame-pointer -foptimize-sibling-calls -foptimize-strlen
@ -fpartial-inlining -fpeel-loops -fpeephole -fpeephole2 -fplt
@ -fpredictive-commoning -fprefetch-loop-arrays -freg-struct-return
@ -freorder-blocks -freorder-functions -frerun-cse-after-loop
@ -fsched-critical-path-heuristic -fsched-dep-count-heuristic
@ -fsched-group-heuristic -fsched-interblock -fsched-last-insn-heuristic
@ -fsched-pressure -fsched-rank-heuristic -fsched-spec
@ -fsched-spec-insn-heuristic -fsched-stalled-insns-dep -fschedule-insns
@ -fschedule-insns2 -fsection-anchors -fsemantic-interposition
@ -fshow-column -fshrink-wrap -fshrink-wrap-separate -fsigned-zeros
@ -fsplit-ivs-in-unroller -fsplit-loops -fsplit-paths -fsplit-wide-types
@ -fssa-backprop -fssa-phiopt -fstdarg-opt -fstore-merging
@ -fstrict-aliasing -fstrict-volatile-bitfields -fsync-libcalls
@ -fthread-jumps -ftoplevel-reorder -ftrapping-math -ftree-bit-ccp
@ -ftree-builtin-call-dce -ftree-ccp -ftree-ch -ftree-coalesce-vars
@ -ftree-copy-prop -ftree-cselim -ftree-dce -ftree-dominator-opts
@ -ftree-dse -ftree-forwprop -ftree-fre -ftree-loop-distribute-patterns
@ -ftree-loop-if-convert -ftree-loop-im -ftree-loop-ivcanon
@ -ftree-loop-optimize -ftree-loop-vectorize -ftree-parallelize-loops=
@ -ftree-partial-pre -ftree-phiprop -ftree-pre -ftree-pta -ftree-reassoc
@ -ftree-scev-cprop -ftree-sink -ftree-slp-vectorize -ftree-slsr -ftree-sra
@ -ftree-switch-conversion -ftree-tail-merge -ftree-ter -ftree-vrp
@ -funit-at-a-time -funswitch-loops -fvar-tracking
@ -fvar-tracking-assignments -fverbose-asm -fzero-initialized-in-bss
@ -madj-exiting-edge-prob -marm -mauto-indexing -mbe32 -mlittle-endian
@ -mloop-rename-registers -mpic-data-is-text-relative -msched-prolog
@ -munaligned-access -mvectorize-with-neon-quad -mvectors-in-tcm

	.section	.text,code
.Ltext0:
	.cfi_sections	.debug_frame
	.section	.text.icache_InvalidateAll,code
	.align	2
	.global	icache_InvalidateAll
	.arch armv7-a
	.arch_extension mp
	.arch_extension sec
	.syntax unified
	.arm
	.fpu neon-vfpv4
	.type	icache_InvalidateAll, %function
icache_InvalidateAll:
.LFB137:
	.file 1 "../src/config/sama5d29_curiosity/peripheral/mmu/plib_mmu.c"
	.loc 1 108 1 view -0
	.cfi_startproc
	@ args = 0, pretend = 0, frame = 0
	@ frame_needed = 0, uses_anonymous_args = 0
	@ link register save eliminated.
	.loc 1 109 5 view .LVU1
.LBB343:
.LBI343:
	.file 2 "C:/Users/M69710/.mchp_packs/ARM/CMSIS/5.9.0/CMSIS/Core_A/Include/core_ca.h"
	.loc 2 886 51 view .LVU2
.LBE343:
	.loc 2 887 3 view .LVU3
.LVL0:
.LBB350:
.LBB344:
.LBI344:
	.file 3 "C:/Users/M69710/.mchp_packs/ARM/CMSIS/5.9.0/CMSIS/Core_A/Include/cmsis_cp15.h"
	.loc 3 408 51 view .LVU4
.LBB345:
	.loc 3 410 3 view .LVU5
	mov	r3, #0	@ tmp110,
	.syntax divided
@ 410 "C:/Users/M69710/.mchp_packs/ARM/CMSIS/5.9.0/CMSIS/Core_A/Include/cmsis_cp15.h" 1
	MCR p15, 0, r3, c7, c5, 0	@ tmp110
@ 0 "" 2
.LVL1:
	.loc 3 410 3 is_stmt 0 view .LVU6
	.arm
	.syntax unified
.LBE345:
.LBE344:
.LBE350:
	.loc 2 888 3 is_stmt 1 view .LVU7
.LBB351:
.LBB346:
.LBI346:
	.file 4 "C:/Users/M69710/.mchp_packs/ARM/CMSIS/5.9.0/CMSIS/Core_A/Include/cmsis_gcc.h"
	.loc 4 364 51 view .LVU8
.LBB347:
	.loc 4 366 3 view .LVU9
	.syntax divided
@ 366 "C:/Users/M69710/.mchp_packs/ARM/CMSIS/5.9.0/CMSIS/Core_A/Include/cmsis_gcc.h" 1
	dsb 0xF	
@ 0 "" 2
	.arm
	.syntax unified
.LBE347:
.LBE346:
.LBE351:
	.loc 2 889 3 view .LVU10
.LBB352:
.LBB348:
.LBI348:
	.loc 4 353 51 view .LVU11
.LBB349:
	.loc 4 355 3 view .LVU12
	.syntax divided
@ 355 "C:/Users/M69710/.mchp_packs/ARM/CMSIS/5.9.0/CMSIS/Core_A/Include/cmsis_gcc.h" 1
	isb 0xF	
@ 0 "" 2
	.arm
	.syntax unified
.LBE349:
.LBE348:
.LBE352:
@ ../src/config/sama5d29_curiosity/peripheral/mmu/plib_mmu.c:110: }
	.loc 1 110 1 is_stmt 0 view .LVU13
	bx	lr	@
	.cfi_endproc
.LFE137:
	.size	icache_InvalidateAll, .-icache_InvalidateAll
	.section	.text.icache_Enable,code
	.align	2
	.global	icache_Enable
	.syntax unified
	.arm
	.fpu neon-vfpv4
	.type	icache_Enable, %function
icache_Enable:
.LFB138:
	.loc 1 113 1 is_stmt 1 view -0
	.cfi_startproc
	@ args = 0, pretend = 0, frame = 0
	@ frame_needed = 0, uses_anonymous_args = 0
	@ link register save eliminated.
	.loc 1 114 5 view .LVU15
.LBB353:
.LBI353:
	.loc 3 188 55 view .LVU16
.LBB354:
	.loc 3 190 3 view .LVU17
	.loc 3 191 3 view .LVU18
	.syntax divided
@ 191 "C:/Users/M69710/.mchp_packs/ARM/CMSIS/5.9.0/CMSIS/Core_A/Include/cmsis_cp15.h" 1
	MRC p15, 0, r3, c1, c0, 0	@ result
@ 0 "" 2
.LVL2:
	.loc 3 192 3 view .LVU19
	.loc 3 192 3 is_stmt 0 view .LVU20
	.arm
	.syntax unified
.LBE354:
.LBE353:
	.loc 1 115 5 is_stmt 1 view .LVU21
@ ../src/config/sama5d29_curiosity/peripheral/mmu/plib_mmu.c:115:     if ((sctlr & SCTLR_I_Msk) == 0U)
	.loc 1 115 8 is_stmt 0 view .LVU22
	ands	r2, r3, #4096	@ tmp114, result,
	bxne	lr	@
	.loc 1 117 9 is_stmt 1 view .LVU23
.LBB355:
.LBI355:
	.loc 2 886 51 view .LVU24
.LBE355:
	.loc 2 887 3 view .LVU25
.LVL3:
.LBB362:
.LBB356:
.LBI356:
	.loc 3 408 51 view .LVU26
.LBB357:
	.loc 3 410 3 view .LVU27
	.syntax divided
@ 410 "C:/Users/M69710/.mchp_packs/ARM/CMSIS/5.9.0/CMSIS/Core_A/Include/cmsis_cp15.h" 1
	MCR p15, 0, r2, c7, c5, 0	@ tmp114
@ 0 "" 2
.LVL4:
	.loc 3 410 3 is_stmt 0 view .LVU28
	.arm
	.syntax unified
.LBE357:
.LBE356:
.LBE362:
	.loc 2 888 3 is_stmt 1 view .LVU29
.LBB363:
.LBB358:
.LBI358:
	.loc 4 364 51 view .LVU30
.LBB359:
	.loc 4 366 3 view .LVU31
	.syntax divided
@ 366 "C:/Users/M69710/.mchp_packs/ARM/CMSIS/5.9.0/CMSIS/Core_A/Include/cmsis_gcc.h" 1
	dsb 0xF	
@ 0 "" 2
	.arm
	.syntax unified
.LBE359:
.LBE358:
.LBE363:
	.loc 2 889 3 view .LVU32
.LBB364:
.LBB360:
.LBI360:
	.loc 4 353 51 view .LVU33
.LBB361:
	.loc 4 355 3 view .LVU34
	.syntax divided
@ 355 "C:/Users/M69710/.mchp_packs/ARM/CMSIS/5.9.0/CMSIS/Core_A/Include/cmsis_gcc.h" 1
	isb 0xF	
@ 0 "" 2
	.arm
	.syntax unified
.LBE361:
.LBE360:
.LBE364:
	.loc 1 118 9 view .LVU35
.LVL5:
.LBB365:
.LBI365:
	.loc 3 180 51 view .LVU36
.LBB366:
	.loc 3 182 3 view .LVU37
.LBE366:
.LBE365:
@ ../src/config/sama5d29_curiosity/peripheral/mmu/plib_mmu.c:118:         __set_SCTLR(sctlr | SCTLR_I_Msk);
	.loc 1 118 9 is_stmt 0 view .LVU38
	orr	r3, r3, #4096	@ tmp116, result,
.LVL6:
.LBB368:
.LBB367:
@ C:/Users/M69710/.mchp_packs/ARM/CMSIS/5.9.0/CMSIS/Core_A/Include/cmsis_cp15.h:182:   __set_CP(15, 0, sctlr, 1, 0, 0);
	.loc 3 182 3 view .LVU39
	.syntax divided
@ 182 "C:/Users/M69710/.mchp_packs/ARM/CMSIS/5.9.0/CMSIS/Core_A/Include/cmsis_cp15.h" 1
	MCR p15, 0, r3, c1, c0, 0	@ tmp116
@ 0 "" 2
	.arm
	.syntax unified
.LBE367:
.LBE368:
@ ../src/config/sama5d29_curiosity/peripheral/mmu/plib_mmu.c:120: }
	.loc 1 120 1 view .LVU40
	bx	lr	@
	.cfi_endproc
.LFE138:
	.size	icache_Enable, .-icache_Enable
	.section	.text.icache_Disable,code
	.align	2
	.global	icache_Disable
	.syntax unified
	.arm
	.fpu neon-vfpv4
	.type	icache_Disable, %function
icache_Disable:
.LFB139:
	.loc 1 123 1 is_stmt 1 view -0
	.cfi_startproc
	@ args = 0, pretend = 0, frame = 0
	@ frame_needed = 0, uses_anonymous_args = 0
	@ link register save eliminated.
	.loc 1 124 5 view .LVU42
.LBB369:
.LBI369:
	.loc 3 188 55 view .LVU43
.LBB370:
	.loc 3 190 3 view .LVU44
	.loc 3 191 3 view .LVU45
	.syntax divided
@ 191 "C:/Users/M69710/.mchp_packs/ARM/CMSIS/5.9.0/CMSIS/Core_A/Include/cmsis_cp15.h" 1
	MRC p15, 0, r3, c1, c0, 0	@ result
@ 0 "" 2
.LVL7:
	.loc 3 192 3 view .LVU46
	.loc 3 192 3 is_stmt 0 view .LVU47
	.arm
	.syntax unified
.LBE370:
.LBE369:
	.loc 1 125 5 is_stmt 1 view .LVU48
@ ../src/config/sama5d29_curiosity/peripheral/mmu/plib_mmu.c:125:     if ((sctlr & SCTLR_I_Msk) != 0U)
	.loc 1 125 8 is_stmt 0 view .LVU49
	tst	r3, #4096	@ result,
	bxeq	lr	@
	.loc 1 127 9 is_stmt 1 view .LVU50
.LVL8:
.LBB371:
.LBI371:
	.loc 3 180 51 view .LVU51
.LBB372:
	.loc 3 182 3 view .LVU52
.LBE372:
.LBE371:
@ ../src/config/sama5d29_curiosity/peripheral/mmu/plib_mmu.c:127:         __set_SCTLR(sctlr & ~SCTLR_I_Msk);
	.loc 1 127 9 is_stmt 0 view .LVU53
	bic	r3, r3, #4096	@ tmp115, result,
.LVL9:
.LBB374:
.LBB373:
@ C:/Users/M69710/.mchp_packs/ARM/CMSIS/5.9.0/CMSIS/Core_A/Include/cmsis_cp15.h:182:   __set_CP(15, 0, sctlr, 1, 0, 0);
	.loc 3 182 3 view .LVU54
	.syntax divided
@ 182 "C:/Users/M69710/.mchp_packs/ARM/CMSIS/5.9.0/CMSIS/Core_A/Include/cmsis_cp15.h" 1
	MCR p15, 0, r3, c1, c0, 0	@ tmp115
@ 0 "" 2
.LVL10:
	.loc 3 182 3 view .LVU55
	.arm
	.syntax unified
.LBE373:
.LBE374:
	.loc 1 128 9 is_stmt 1 view .LVU56
.LBB375:
.LBI375:
	.loc 2 886 51 view .LVU57
.LBE375:
	.loc 2 887 3 view .LVU58
.LBB382:
.LBB376:
.LBI376:
	.loc 3 408 51 view .LVU59
.LBB377:
	.loc 3 410 3 view .LVU60
	mov	r3, #0	@ tmp116,
	.syntax divided
@ 410 "C:/Users/M69710/.mchp_packs/ARM/CMSIS/5.9.0/CMSIS/Core_A/Include/cmsis_cp15.h" 1
	MCR p15, 0, r3, c7, c5, 0	@ tmp116
@ 0 "" 2
.LVL11:
	.loc 3 410 3 is_stmt 0 view .LVU61
	.arm
	.syntax unified
.LBE377:
.LBE376:
.LBE382:
	.loc 2 888 3 is_stmt 1 view .LVU62
.LBB383:
.LBB378:
.LBI378:
	.loc 4 364 51 view .LVU63
.LBB379:
	.loc 4 366 3 view .LVU64
	.syntax divided
@ 366 "C:/Users/M69710/.mchp_packs/ARM/CMSIS/5.9.0/CMSIS/Core_A/Include/cmsis_gcc.h" 1
	dsb 0xF	
@ 0 "" 2
	.arm
	.syntax unified
.LBE379:
.LBE378:
.LBE383:
	.loc 2 889 3 view .LVU65
.LBB384:
.LBB380:
.LBI380:
	.loc 4 353 51 view .LVU66
.LBB381:
	.loc 4 355 3 view .LVU67
	.syntax divided
@ 355 "C:/Users/M69710/.mchp_packs/ARM/CMSIS/5.9.0/CMSIS/Core_A/Include/cmsis_gcc.h" 1
	isb 0xF	
@ 0 "" 2
	.arm
	.syntax unified
.LBE381:
.LBE380:
.LBE384:
@ ../src/config/sama5d29_curiosity/peripheral/mmu/plib_mmu.c:130: }
	.loc 1 130 1 is_stmt 0 view .LVU68
	bx	lr	@
	.cfi_endproc
.LFE139:
	.size	icache_Disable, .-icache_Disable
	.section	.text.dcache_InvalidateAll,code
	.align	2
	.global	dcache_InvalidateAll
	.syntax unified
	.arm
	.fpu neon-vfpv4
	.type	dcache_InvalidateAll, %function
dcache_InvalidateAll:
.LFB140:
	.loc 1 133 1 is_stmt 1 view -0
	.cfi_startproc
	@ args = 0, pretend = 0, frame = 0
	@ frame_needed = 0, uses_anonymous_args = 0
	.loc 1 134 5 view .LVU70
.LBB385:
.LBI385:
	.loc 2 1019 51 view .LVU71
.LBE385:
	.loc 2 1020 3 view .LVU72
.LVL12:
.LBB416:
.LBB386:
.LBI386:
	.loc 2 993 51 view .LVU73
.LBB387:
	.loc 2 994 3 view .LVU74
	.loc 2 995 3 view .LVU75
	.loc 2 996 3 view .LVU76
.LBB388:
.LBI388:
	.loc 3 482 55 view .LVU77
.LBB389:
	.loc 3 484 3 view .LVU78
	.loc 3 486 3 view .LVU79
.LBE389:
.LBE388:
.LBE387:
.LBE386:
.LBE416:
@ ../src/config/sama5d29_curiosity/peripheral/mmu/plib_mmu.c:133: {
	.loc 1 133 1 is_stmt 0 view .LVU80
	push	{r4, r5, r6, r7, r8, lr}	@
.LCFI0:
	.cfi_def_cfa_offset 24
	.cfi_offset 4, -24
	.cfi_offset 5, -20
	.cfi_offset 6, -16
	.cfi_offset 7, -12
	.cfi_offset 8, -8
	.cfi_offset 14, -4
.LBB417:
.LBB415:
.LBB414:
.LBB391:
.LBB390:
@ C:/Users/M69710/.mchp_packs/ARM/CMSIS/5.9.0/CMSIS/Core_A/Include/cmsis_cp15.h:486:   __get_CP(15, 1, result, 0, 0, 1);
	.loc 3 486 3 view .LVU81
	.syntax divided
@ 486 "C:/Users/M69710/.mchp_packs/ARM/CMSIS/5.9.0/CMSIS/Core_A/Include/cmsis_cp15.h" 1
	MRC p15, 1, r7, c0, c0, 1	@ result
@ 0 "" 2
.LVL13:
	.loc 3 487 3 is_stmt 1 view .LVU82
	.loc 3 487 3 is_stmt 0 view .LVU83
	.arm
	.syntax unified
.LBE390:
.LBE391:
	.loc 2 997 3 is_stmt 1 view .LVU84
.LBB392:
	.loc 2 997 7 view .LVU85
@ C:/Users/M69710/.mchp_packs/ARM/CMSIS/5.9.0/CMSIS/Core_A/Include/core_ca.h:997:   for(uint32_t i = 0U; i<7U; i++)
	.loc 2 997 16 is_stmt 0 view .LVU86
	mov	r4, #0	@ i,
@ C:/Users/M69710/.mchp_packs/ARM/CMSIS/5.9.0/CMSIS/Core_A/Include/core_ca.h:999:     cache_type = (clidr >> i*3U) & 0x7UL;
	.loc 2 999 25 view .LVU87
	mov	r6, #3	@ tmp142,
.LVL14:
.L19:
	.loc 2 999 5 is_stmt 1 view .LVU88
	.loc 2 1000 5 view .LVU89
@ C:/Users/M69710/.mchp_packs/ARM/CMSIS/5.9.0/CMSIS/Core_A/Include/core_ca.h:999:     cache_type = (clidr >> i*3U) & 0x7UL;
	.loc 2 999 25 is_stmt 0 view .LVU90
	mul	r3, r6, r4	@ tmp141, tmp142, i
	lsr	r3, r7, r3	@ tmp143, result, tmp141
@ C:/Users/M69710/.mchp_packs/ARM/CMSIS/5.9.0/CMSIS/Core_A/Include/core_ca.h:999:     cache_type = (clidr >> i*3U) & 0x7UL;
	.loc 2 999 16 view .LVU91
	and	r3, r3, #7	@ cache_type, tmp143,
@ C:/Users/M69710/.mchp_packs/ARM/CMSIS/5.9.0/CMSIS/Core_A/Include/core_ca.h:1000:     if ((cache_type >= 2U) && (cache_type <= 4U))
	.loc 2 1000 28 view .LVU92
	sub	r3, r3, #2	@ tmp145, cache_type,
@ C:/Users/M69710/.mchp_packs/ARM/CMSIS/5.9.0/CMSIS/Core_A/Include/core_ca.h:1000:     if ((cache_type >= 2U) && (cache_type <= 4U))
	.loc 2 1000 8 view .LVU93
	cmp	r3, #2	@ tmp145,
	bhi	.L12		@,
	.loc 2 1002 7 is_stmt 1 view .LVU94
.LVL15:
.LBB393:
.LBI393:
	.loc 2 950 51 view .LVU95
.LBB394:
	.loc 2 952 3 view .LVU96
	.loc 2 953 3 view .LVU97
	.loc 2 954 3 view .LVU98
	.loc 2 955 3 view .LVU99
	.loc 2 956 3 view .LVU100
	.loc 2 957 3 view .LVU101
	.loc 2 958 4 view .LVU102
	.loc 2 960 3 view .LVU103
	lsl	r5, r4, #1	@ Dummy, i,
.LVL16:
	.loc 2 962 3 view .LVU104
.LBB395:
.LBI395:
	.loc 3 442 51 view .LVU105
.LBB396:
	.loc 3 445 3 view .LVU106
	.syntax divided
@ 445 "C:/Users/M69710/.mchp_packs/ARM/CMSIS/5.9.0/CMSIS/Core_A/Include/cmsis_cp15.h" 1
	MCR p15, 2, r5, c0, c0, 0	@ Dummy
@ 0 "" 2
.LVL17:
	.loc 3 445 3 is_stmt 0 view .LVU107
	.arm
	.syntax unified
.LBE396:
.LBE395:
	.loc 2 964 3 is_stmt 1 view .LVU108
.LBB397:
.LBI397:
	.loc 3 471 55 view .LVU109
.LBB398:
	.loc 3 473 3 view .LVU110
	.loc 3 475 3 view .LVU111
	.syntax divided
@ 475 "C:/Users/M69710/.mchp_packs/ARM/CMSIS/5.9.0/CMSIS/Core_A/Include/cmsis_cp15.h" 1
	MRC p15, 1, r8, c0, c0, 0	@ result
@ 0 "" 2
.LVL18:
	.loc 3 476 3 view .LVU112
	.loc 3 476 3 is_stmt 0 view .LVU113
	.arm
	.syntax unified
.LBE398:
.LBE397:
	.loc 2 965 3 is_stmt 1 view .LVU114
	.loc 2 966 3 view .LVU115
@ C:/Users/M69710/.mchp_packs/ARM/CMSIS/5.9.0/CMSIS/Core_A/Include/core_ca.h:966:   num_ways = ((ccsidr & 0x00001FF8U) >> 3U) + 1U;
	.loc 2 966 38 is_stmt 0 view .LVU116
	ubfx	lr, r8, #3, #10	@ _13, result,,
@ C:/Users/M69710/.mchp_packs/ARM/CMSIS/5.9.0/CMSIS/Core_A/Include/core_ca.h:966:   num_ways = ((ccsidr & 0x00001FF8U) >> 3U) + 1U;
	.loc 2 966 12 view .LVU117
	add	r0, lr, #1	@ num_ways, _13,
.LVL19:
	.loc 2 967 3 is_stmt 1 view .LVU118
	.loc 2 968 3 view .LVU119
.LBB399:
.LBI399:
	.loc 2 930 54 view .LVU120
.LBB400:
	.loc 2 932 3 view .LVU121
@ C:/Users/M69710/.mchp_packs/ARM/CMSIS/5.9.0/CMSIS/Core_A/Include/core_ca.h:932:   if (n < 2U) {
	.loc 2 932 6 is_stmt 0 view .LVU122
	cmp	r0, #1	@ num_ways,
	beq	.L20		@,
	mov	r2, r0	@ t, num_ways
@ C:/Users/M69710/.mchp_packs/ARM/CMSIS/5.9.0/CMSIS/Core_A/Include/core_ca.h:935:   uint8_t log = 0U;
	.loc 2 935 11 view .LVU123
	mov	r1, #0	@ log,
	b	.L14		@
.LVL20:
.L21:
@ C:/Users/M69710/.mchp_packs/ARM/CMSIS/5.9.0/CMSIS/Core_A/Include/core_ca.h:939:     log++;
	.loc 2 939 8 view .LVU124
	mov	r1, r3	@ log, log
.LVL21:
.L14:
	.loc 2 939 5 is_stmt 1 view .LVU125
@ C:/Users/M69710/.mchp_packs/ARM/CMSIS/5.9.0/CMSIS/Core_A/Include/core_ca.h:940:     t >>= 1U;
	.loc 2 940 7 is_stmt 0 view .LVU126
	lsr	r2, r2, #1	@ t, t,
.LVL22:
@ C:/Users/M69710/.mchp_packs/ARM/CMSIS/5.9.0/CMSIS/Core_A/Include/core_ca.h:939:     log++;
	.loc 2 939 8 view .LVU127
	add	r3, r1, #1	@ tmp149, log,
@ C:/Users/M69710/.mchp_packs/ARM/CMSIS/5.9.0/CMSIS/Core_A/Include/core_ca.h:937:   while(t > 1U)
	.loc 2 937 8 view .LVU128
	cmp	r2, #1	@ t,
@ C:/Users/M69710/.mchp_packs/ARM/CMSIS/5.9.0/CMSIS/Core_A/Include/core_ca.h:939:     log++;
	.loc 2 939 8 view .LVU129
	uxtb	r3, r3	@ log, tmp149
.LVL23:
	.loc 2 940 5 is_stmt 1 view .LVU130
@ C:/Users/M69710/.mchp_packs/ARM/CMSIS/5.9.0/CMSIS/Core_A/Include/core_ca.h:937:   while(t > 1U)
	.loc 2 937 8 is_stmt 0 view .LVU131
	bne	.L21		@,
	.loc 2 942 3 is_stmt 1 view .LVU132
@ C:/Users/M69710/.mchp_packs/ARM/CMSIS/5.9.0/CMSIS/Core_A/Include/core_ca.h:942:   if (n & 1U) { log++; }
	.loc 2 942 6 is_stmt 0 view .LVU133
	tst	r0, #1	@ num_ways,
	beq	.L15		@,
	.loc 2 942 17 is_stmt 1 view .LVU134
@ C:/Users/M69710/.mchp_packs/ARM/CMSIS/5.9.0/CMSIS/Core_A/Include/core_ca.h:942:   if (n & 1U) { log++; }
	.loc 2 942 20 is_stmt 0 view .LVU135
	add	r3, r1, #2	@ tmp151, log,
.LVL24:
	.loc 2 942 20 view .LVU136
	uxtb	r3, r3	@ log, tmp151
.LVL25:
.L15:
	.loc 2 942 20 view .LVU137
.LBE400:
.LBE399:
	.loc 2 969 3 is_stmt 1 view .LVU138
@ C:/Users/M69710/.mchp_packs/ARM/CMSIS/5.9.0/CMSIS/Core_A/Include/core_ca.h:969:   if ((log2_num_ways < 0) || (log2_num_ways > 32)) {
	.loc 2 969 6 is_stmt 0 view .LVU139
	cmp	r3, #32	@ log,
	bhi	.L12		@,
	.loc 2 969 6 view .LVU140
	rsb	ip, r3, #32	@ _78, log,
.LVL26:
.L13:
	.loc 2 972 3 is_stmt 1 view .LVU141
	.loc 2 973 3 view .LVU142
.LBB402:
	.loc 2 973 7 view .LVU143
	and	r0, r8, #7	@ tmp159, result,
.LVL27:
	.loc 2 973 7 is_stmt 0 view .LVU144
.LBE402:
@ C:/Users/M69710/.mchp_packs/ARM/CMSIS/5.9.0/CMSIS/Core_A/Include/core_ca.h:967:   log2_linesize = (ccsidr & 0x00000007U) + 2U + 2U;
	.loc 2 967 17 view .LVU145
	add	r0, r0, #4	@ log2_linesize, tmp159,
@ C:/Users/M69710/.mchp_packs/ARM/CMSIS/5.9.0/CMSIS/Core_A/Include/core_ca.h:965:   num_sets = ((ccsidr & 0x0FFFE000U) >> 13U) + 1U;
	.loc 2 965 38 view .LVU146
	ubfx	r8, r8, #13, #15	@ _80, result,,
.LVL28:
.L18:
.LBB408:
	.loc 2 975 5 is_stmt 1 view .LVU147
.LBB403:
	.loc 2 975 9 view .LVU148
	.loc 2 975 9 is_stmt 0 view .LVU149
	orr	r1, r5, lr, lsl ip	@ _62, Dummy, way,
@ C:/Users/M69710/.mchp_packs/ARM/CMSIS/5.9.0/CMSIS/Core_A/Include/core_ca.h:975:     for(int32_t set = num_sets-1; set >= 0; set--)
	.loc 2 975 17 view .LVU150
	mov	r3, r8	@ set, _80
.L17:
.LVL29:
	.loc 2 977 7 is_stmt 1 view .LVU151
	.loc 2 978 7 view .LVU152
	.loc 2 980 18 view .LVU153
.LBB404:
.LBI404:
	.loc 3 492 51 view .LVU154
.LBB405:
	.loc 3 495 3 view .LVU155
.LBE405:
.LBE404:
@ C:/Users/M69710/.mchp_packs/ARM/CMSIS/5.9.0/CMSIS/Core_A/Include/core_ca.h:977:       Dummy = (level << 1U) | (((uint32_t)set) << log2_linesize) | (((uint32_t)way) << shift_way);
	.loc 2 977 13 is_stmt 0 view .LVU156
	orr	r2, r1, r3, lsl r0	@ Dummy, _62, set,
.LBB407:
.LBB406:
@ C:/Users/M69710/.mchp_packs/ARM/CMSIS/5.9.0/CMSIS/Core_A/Include/cmsis_cp15.h:495:   __set_CP(15, 0, value, 7, 6, 2);
	.loc 3 495 3 view .LVU157
	.syntax divided
@ 495 "C:/Users/M69710/.mchp_packs/ARM/CMSIS/5.9.0/CMSIS/Core_A/Include/cmsis_cp15.h" 1
	MCR p15, 0, r2, c7, c6, 2	@ Dummy
@ 0 "" 2
	.arm
	.syntax unified
.LBE406:
.LBE407:
@ C:/Users/M69710/.mchp_packs/ARM/CMSIS/5.9.0/CMSIS/Core_A/Include/core_ca.h:975:     for(int32_t set = num_sets-1; set >= 0; set--)
	.loc 2 975 5 view .LVU158
	subs	r3, r3, #1	@ set, set,
.LVL30:
	.loc 2 975 5 view .LVU159
	bcs	.L17		@,
.LBE403:
@ C:/Users/M69710/.mchp_packs/ARM/CMSIS/5.9.0/CMSIS/Core_A/Include/core_ca.h:973:   for(int32_t way = num_ways-1; way >= 0; way--)
	.loc 2 973 3 view .LVU160
	subs	lr, lr, #1	@ way, way,
.LVL31:
	.loc 2 973 3 view .LVU161
	bcs	.L18		@,
.LBE408:
	.loc 2 986 3 is_stmt 1 view .LVU162
.LBB409:
.LBI409:
	.loc 4 374 51 view .LVU163
.LBB410:
	.loc 4 376 3 view .LVU164
	.syntax divided
@ 376 "C:/Users/M69710/.mchp_packs/ARM/CMSIS/5.9.0/CMSIS/Core_A/Include/cmsis_gcc.h" 1
	dmb 0xF	
@ 0 "" 2
.LVL32:
	.arm
	.syntax unified
.L12:
	.loc 4 376 3 is_stmt 0 view .LVU165
.LBE410:
.LBE409:
.LBE394:
.LBE393:
@ C:/Users/M69710/.mchp_packs/ARM/CMSIS/5.9.0/CMSIS/Core_A/Include/core_ca.h:997:   for(uint32_t i = 0U; i<7U; i++)
	.loc 2 997 31 view .LVU166
	add	r4, r4, #1	@ i, i,
.LVL33:
@ C:/Users/M69710/.mchp_packs/ARM/CMSIS/5.9.0/CMSIS/Core_A/Include/core_ca.h:997:   for(uint32_t i = 0U; i<7U; i++)
	.loc 2 997 3 view .LVU167
	cmp	r4, #7	@ i,
	bne	.L19		@,
	pop	{r4, r5, r6, r7, r8, pc}	@
.LVL34:
.L20:
.LBB413:
.LBB412:
.LBB411:
.LBB401:
@ C:/Users/M69710/.mchp_packs/ARM/CMSIS/5.9.0/CMSIS/Core_A/Include/core_ca.h:932:   if (n < 2U) {
	.loc 2 932 6 view .LVU168
	mov	ip, #32	@ _78,
	b	.L13		@
.LBE401:
.LBE411:
.LBE412:
.LBE413:
.LBE392:
.LBE414:
.LBE415:
.LBE417:
	.cfi_endproc
.LFE140:
	.size	dcache_InvalidateAll, .-dcache_InvalidateAll
	.section	.text.dcache_CleanAll,code
	.align	2
	.global	dcache_CleanAll
	.syntax unified
	.arm
	.fpu neon-vfpv4
	.type	dcache_CleanAll, %function
dcache_CleanAll:
.LFB141:
	.loc 1 138 1 is_stmt 1 view -0
	.cfi_startproc
	@ args = 0, pretend = 0, frame = 0
	@ frame_needed = 0, uses_anonymous_args = 0
	.loc 1 139 5 view .LVU170
.LBB418:
.LBI418:
	.loc 2 1025 51 view .LVU171
.LBE418:
	.loc 2 1026 3 view .LVU172
.LVL35:
.LBB449:
.LBB419:
.LBI419:
	.loc 2 993 51 view .LVU173
.LBB420:
	.loc 2 994 3 view .LVU174
	.loc 2 995 3 view .LVU175
	.loc 2 996 3 view .LVU176
.LBB421:
.LBI421:
	.loc 3 482 55 view .LVU177
.LBB422:
	.loc 3 484 3 view .LVU178
	.loc 3 486 3 view .LVU179
.LBE422:
.LBE421:
.LBE420:
.LBE419:
.LBE449:
@ ../src/config/sama5d29_curiosity/peripheral/mmu/plib_mmu.c:138: {
	.loc 1 138 1 is_stmt 0 view .LVU180
	push	{r4, r5, r6, r7, r8, lr}	@
.LCFI1:
	.cfi_def_cfa_offset 24
	.cfi_offset 4, -24
	.cfi_offset 5, -20
	.cfi_offset 6, -16
	.cfi_offset 7, -12
	.cfi_offset 8, -8
	.cfi_offset 14, -4
.LBB450:
.LBB448:
.LBB447:
.LBB424:
.LBB423:
@ C:/Users/M69710/.mchp_packs/ARM/CMSIS/5.9.0/CMSIS/Core_A/Include/cmsis_cp15.h:486:   __get_CP(15, 1, result, 0, 0, 1);
	.loc 3 486 3 view .LVU181
	.syntax divided
@ 486 "C:/Users/M69710/.mchp_packs/ARM/CMSIS/5.9.0/CMSIS/Core_A/Include/cmsis_cp15.h" 1
	MRC p15, 1, r7, c0, c0, 1	@ result
@ 0 "" 2
.LVL36:
	.loc 3 487 3 is_stmt 1 view .LVU182
	.loc 3 487 3 is_stmt 0 view .LVU183
	.arm
	.syntax unified
.LBE423:
.LBE424:
	.loc 2 997 3 is_stmt 1 view .LVU184
.LBB425:
	.loc 2 997 7 view .LVU185
@ C:/Users/M69710/.mchp_packs/ARM/CMSIS/5.9.0/CMSIS/Core_A/Include/core_ca.h:997:   for(uint32_t i = 0U; i<7U; i++)
	.loc 2 997 16 is_stmt 0 view .LVU186
	mov	r4, #0	@ i,
@ C:/Users/M69710/.mchp_packs/ARM/CMSIS/5.9.0/CMSIS/Core_A/Include/core_ca.h:999:     cache_type = (clidr >> i*3U) & 0x7UL;
	.loc 2 999 25 view .LVU187
	mov	r6, #3	@ tmp142,
.LVL37:
.L39:
	.loc 2 999 5 is_stmt 1 view .LVU188
	.loc 2 1000 5 view .LVU189
@ C:/Users/M69710/.mchp_packs/ARM/CMSIS/5.9.0/CMSIS/Core_A/Include/core_ca.h:999:     cache_type = (clidr >> i*3U) & 0x7UL;
	.loc 2 999 25 is_stmt 0 view .LVU190
	mul	r3, r6, r4	@ tmp141, tmp142, i
	lsr	r3, r7, r3	@ tmp143, result, tmp141
@ C:/Users/M69710/.mchp_packs/ARM/CMSIS/5.9.0/CMSIS/Core_A/Include/core_ca.h:999:     cache_type = (clidr >> i*3U) & 0x7UL;
	.loc 2 999 16 view .LVU191
	and	r3, r3, #7	@ cache_type, tmp143,
@ C:/Users/M69710/.mchp_packs/ARM/CMSIS/5.9.0/CMSIS/Core_A/Include/core_ca.h:1000:     if ((cache_type >= 2U) && (cache_type <= 4U))
	.loc 2 1000 28 view .LVU192
	sub	r3, r3, #2	@ tmp145, cache_type,
@ C:/Users/M69710/.mchp_packs/ARM/CMSIS/5.9.0/CMSIS/Core_A/Include/core_ca.h:1000:     if ((cache_type >= 2U) && (cache_type <= 4U))
	.loc 2 1000 8 view .LVU193
	cmp	r3, #2	@ tmp145,
	bhi	.L32		@,
	.loc 2 1002 7 is_stmt 1 view .LVU194
.LVL38:
.LBB426:
.LBI426:
	.loc 2 950 51 view .LVU195
.LBB427:
	.loc 2 952 3 view .LVU196
	.loc 2 953 3 view .LVU197
	.loc 2 954 3 view .LVU198
	.loc 2 955 3 view .LVU199
	.loc 2 956 3 view .LVU200
	.loc 2 957 3 view .LVU201
	.loc 2 958 4 view .LVU202
	.loc 2 960 3 view .LVU203
	lsl	r5, r4, #1	@ Dummy, i,
.LVL39:
	.loc 2 962 3 view .LVU204
.LBB428:
.LBI428:
	.loc 3 442 51 view .LVU205
.LBB429:
	.loc 3 445 3 view .LVU206
	.syntax divided
@ 445 "C:/Users/M69710/.mchp_packs/ARM/CMSIS/5.9.0/CMSIS/Core_A/Include/cmsis_cp15.h" 1
	MCR p15, 2, r5, c0, c0, 0	@ Dummy
@ 0 "" 2
.LVL40:
	.loc 3 445 3 is_stmt 0 view .LVU207
	.arm
	.syntax unified
.LBE429:
.LBE428:
	.loc 2 964 3 is_stmt 1 view .LVU208
.LBB430:
.LBI430:
	.loc 3 471 55 view .LVU209
.LBB431:
	.loc 3 473 3 view .LVU210
	.loc 3 475 3 view .LVU211
	.syntax divided
@ 475 "C:/Users/M69710/.mchp_packs/ARM/CMSIS/5.9.0/CMSIS/Core_A/Include/cmsis_cp15.h" 1
	MRC p15, 1, r8, c0, c0, 0	@ result
@ 0 "" 2
.LVL41:
	.loc 3 476 3 view .LVU212
	.loc 3 476 3 is_stmt 0 view .LVU213
	.arm
	.syntax unified
.LBE431:
.LBE430:
	.loc 2 965 3 is_stmt 1 view .LVU214
	.loc 2 966 3 view .LVU215
@ C:/Users/M69710/.mchp_packs/ARM/CMSIS/5.9.0/CMSIS/Core_A/Include/core_ca.h:966:   num_ways = ((ccsidr & 0x00001FF8U) >> 3U) + 1U;
	.loc 2 966 38 is_stmt 0 view .LVU216
	ubfx	lr, r8, #3, #10	@ _13, result,,
@ C:/Users/M69710/.mchp_packs/ARM/CMSIS/5.9.0/CMSIS/Core_A/Include/core_ca.h:966:   num_ways = ((ccsidr & 0x00001FF8U) >> 3U) + 1U;
	.loc 2 966 12 view .LVU217
	add	r0, lr, #1	@ num_ways, _13,
.LVL42:
	.loc 2 967 3 is_stmt 1 view .LVU218
	.loc 2 968 3 view .LVU219
.LBB432:
.LBI432:
	.loc 2 930 54 view .LVU220
.LBB433:
	.loc 2 932 3 view .LVU221
@ C:/Users/M69710/.mchp_packs/ARM/CMSIS/5.9.0/CMSIS/Core_A/Include/core_ca.h:932:   if (n < 2U) {
	.loc 2 932 6 is_stmt 0 view .LVU222
	cmp	r0, #1	@ num_ways,
	beq	.L40		@,
	mov	r2, r0	@ t, num_ways
@ C:/Users/M69710/.mchp_packs/ARM/CMSIS/5.9.0/CMSIS/Core_A/Include/core_ca.h:935:   uint8_t log = 0U;
	.loc 2 935 11 view .LVU223
	mov	r1, #0	@ log,
	b	.L34		@
.LVL43:
.L41:
@ C:/Users/M69710/.mchp_packs/ARM/CMSIS/5.9.0/CMSIS/Core_A/Include/core_ca.h:939:     log++;
	.loc 2 939 8 view .LVU224
	mov	r1, r3	@ log, log
.LVL44:
.L34:
	.loc 2 939 5 is_stmt 1 view .LVU225
@ C:/Users/M69710/.mchp_packs/ARM/CMSIS/5.9.0/CMSIS/Core_A/Include/core_ca.h:940:     t >>= 1U;
	.loc 2 940 7 is_stmt 0 view .LVU226
	lsr	r2, r2, #1	@ t, t,
.LVL45:
@ C:/Users/M69710/.mchp_packs/ARM/CMSIS/5.9.0/CMSIS/Core_A/Include/core_ca.h:939:     log++;
	.loc 2 939 8 view .LVU227
	add	r3, r1, #1	@ tmp149, log,
@ C:/Users/M69710/.mchp_packs/ARM/CMSIS/5.9.0/CMSIS/Core_A/Include/core_ca.h:937:   while(t > 1U)
	.loc 2 937 8 view .LVU228
	cmp	r2, #1	@ t,
@ C:/Users/M69710/.mchp_packs/ARM/CMSIS/5.9.0/CMSIS/Core_A/Include/core_ca.h:939:     log++;
	.loc 2 939 8 view .LVU229
	uxtb	r3, r3	@ log, tmp149
.LVL46:
	.loc 2 940 5 is_stmt 1 view .LVU230
@ C:/Users/M69710/.mchp_packs/ARM/CMSIS/5.9.0/CMSIS/Core_A/Include/core_ca.h:937:   while(t > 1U)
	.loc 2 937 8 is_stmt 0 view .LVU231
	bne	.L41		@,
	.loc 2 942 3 is_stmt 1 view .LVU232
@ C:/Users/M69710/.mchp_packs/ARM/CMSIS/5.9.0/CMSIS/Core_A/Include/core_ca.h:942:   if (n & 1U) { log++; }
	.loc 2 942 6 is_stmt 0 view .LVU233
	tst	r0, #1	@ num_ways,
	beq	.L35		@,
	.loc 2 942 17 is_stmt 1 view .LVU234
@ C:/Users/M69710/.mchp_packs/ARM/CMSIS/5.9.0/CMSIS/Core_A/Include/core_ca.h:942:   if (n & 1U) { log++; }
	.loc 2 942 20 is_stmt 0 view .LVU235
	add	r3, r1, #2	@ tmp151, log,
.LVL47:
	.loc 2 942 20 view .LVU236
	uxtb	r3, r3	@ log, tmp151
.LVL48:
.L35:
	.loc 2 942 20 view .LVU237
.LBE433:
.LBE432:
	.loc 2 969 3 is_stmt 1 view .LVU238
@ C:/Users/M69710/.mchp_packs/ARM/CMSIS/5.9.0/CMSIS/Core_A/Include/core_ca.h:969:   if ((log2_num_ways < 0) || (log2_num_ways > 32)) {
	.loc 2 969 6 is_stmt 0 view .LVU239
	cmp	r3, #32	@ log,
	bhi	.L32		@,
	.loc 2 969 6 view .LVU240
	rsb	ip, r3, #32	@ _78, log,
.LVL49:
.L33:
	.loc 2 972 3 is_stmt 1 view .LVU241
	.loc 2 973 3 view .LVU242
.LBB435:
	.loc 2 973 7 view .LVU243
	and	r0, r8, #7	@ tmp159, result,
.LVL50:
	.loc 2 973 7 is_stmt 0 view .LVU244
.LBE435:
@ C:/Users/M69710/.mchp_packs/ARM/CMSIS/5.9.0/CMSIS/Core_A/Include/core_ca.h:967:   log2_linesize = (ccsidr & 0x00000007U) + 2U + 2U;
	.loc 2 967 17 view .LVU245
	add	r0, r0, #4	@ log2_linesize, tmp159,
@ C:/Users/M69710/.mchp_packs/ARM/CMSIS/5.9.0/CMSIS/Core_A/Include/core_ca.h:965:   num_sets = ((ccsidr & 0x0FFFE000U) >> 13U) + 1U;
	.loc 2 965 38 view .LVU246
	ubfx	r8, r8, #13, #15	@ _80, result,,
.LVL51:
.L38:
.LBB441:
	.loc 2 975 5 is_stmt 1 view .LVU247
.LBB436:
	.loc 2 975 9 view .LVU248
	.loc 2 975 9 is_stmt 0 view .LVU249
	orr	r1, r5, lr, lsl ip	@ _62, Dummy, way,
@ C:/Users/M69710/.mchp_packs/ARM/CMSIS/5.9.0/CMSIS/Core_A/Include/core_ca.h:975:     for(int32_t set = num_sets-1; set >= 0; set--)
	.loc 2 975 17 view .LVU250
	mov	r3, r8	@ set, _80
.L37:
.LVL52:
	.loc 2 977 7 is_stmt 1 view .LVU251
	.loc 2 978 7 view .LVU252
	.loc 2 981 18 view .LVU253
.LBB437:
.LBI437:
	.loc 3 500 51 view .LVU254
.LBB438:
	.loc 3 503 3 view .LVU255
.LBE438:
.LBE437:
@ C:/Users/M69710/.mchp_packs/ARM/CMSIS/5.9.0/CMSIS/Core_A/Include/core_ca.h:977:       Dummy = (level << 1U) | (((uint32_t)set) << log2_linesize) | (((uint32_t)way) << shift_way);
	.loc 2 977 13 is_stmt 0 view .LVU256
	orr	r2, r1, r3, lsl r0	@ Dummy, _62, set,
.LBB440:
.LBB439:
@ C:/Users/M69710/.mchp_packs/ARM/CMSIS/5.9.0/CMSIS/Core_A/Include/cmsis_cp15.h:503:   __set_CP(15, 0, value, 7, 10, 2);
	.loc 3 503 3 view .LVU257
	.syntax divided
@ 503 "C:/Users/M69710/.mchp_packs/ARM/CMSIS/5.9.0/CMSIS/Core_A/Include/cmsis_cp15.h" 1
	MCR p15, 0, r2, c7, c10, 2	@ Dummy
@ 0 "" 2
	.arm
	.syntax unified
.LBE439:
.LBE440:
@ C:/Users/M69710/.mchp_packs/ARM/CMSIS/5.9.0/CMSIS/Core_A/Include/core_ca.h:975:     for(int32_t set = num_sets-1; set >= 0; set--)
	.loc 2 975 5 view .LVU258
	subs	r3, r3, #1	@ set, set,
.LVL53:
	.loc 2 975 5 view .LVU259
	bcs	.L37		@,
.LBE436:
@ C:/Users/M69710/.mchp_packs/ARM/CMSIS/5.9.0/CMSIS/Core_A/Include/core_ca.h:973:   for(int32_t way = num_ways-1; way >= 0; way--)
	.loc 2 973 3 view .LVU260
	subs	lr, lr, #1	@ way, way,
.LVL54:
	.loc 2 973 3 view .LVU261
	bcs	.L38		@,
.LBE441:
	.loc 2 986 3 is_stmt 1 view .LVU262
.LBB442:
.LBI442:
	.loc 4 374 51 view .LVU263
.LBB443:
	.loc 4 376 3 view .LVU264
	.syntax divided
@ 376 "C:/Users/M69710/.mchp_packs/ARM/CMSIS/5.9.0/CMSIS/Core_A/Include/cmsis_gcc.h" 1
	dmb 0xF	
@ 0 "" 2
.LVL55:
	.arm
	.syntax unified
.L32:
	.loc 4 376 3 is_stmt 0 view .LVU265
.LBE443:
.LBE442:
.LBE427:
.LBE426:
@ C:/Users/M69710/.mchp_packs/ARM/CMSIS/5.9.0/CMSIS/Core_A/Include/core_ca.h:997:   for(uint32_t i = 0U; i<7U; i++)
	.loc 2 997 31 view .LVU266
	add	r4, r4, #1	@ i, i,
.LVL56:
@ C:/Users/M69710/.mchp_packs/ARM/CMSIS/5.9.0/CMSIS/Core_A/Include/core_ca.h:997:   for(uint32_t i = 0U; i<7U; i++)
	.loc 2 997 3 view .LVU267
	cmp	r4, #7	@ i,
	bne	.L39		@,
	pop	{r4, r5, r6, r7, r8, pc}	@
.LVL57:
.L40:
.LBB446:
.LBB445:
.LBB444:
.LBB434:
@ C:/Users/M69710/.mchp_packs/ARM/CMSIS/5.9.0/CMSIS/Core_A/Include/core_ca.h:932:   if (n < 2U) {
	.loc 2 932 6 view .LVU268
	mov	ip, #32	@ _78,
	b	.L33		@
.LBE434:
.LBE444:
.LBE445:
.LBE446:
.LBE425:
.LBE447:
.LBE448:
.LBE450:
	.cfi_endproc
.LFE141:
	.size	dcache_CleanAll, .-dcache_CleanAll
	.section	.text.dcache_CleanInvalidateAll,code
	.align	2
	.global	dcache_CleanInvalidateAll
	.syntax unified
	.arm
	.fpu neon-vfpv4
	.type	dcache_CleanInvalidateAll, %function
dcache_CleanInvalidateAll:
.LFB142:
	.loc 1 143 1 is_stmt 1 view -0
	.cfi_startproc
	@ args = 0, pretend = 0, frame = 0
	@ frame_needed = 0, uses_anonymous_args = 0
	.loc 1 144 5 view .LVU270
.LBB451:
.LBI451:
	.loc 2 1031 51 view .LVU271
.LBE451:
	.loc 2 1032 3 view .LVU272
.LVL58:
.LBB482:
.LBB452:
.LBI452:
	.loc 2 993 51 view .LVU273
.LBB453:
	.loc 2 994 3 view .LVU274
	.loc 2 995 3 view .LVU275
	.loc 2 996 3 view .LVU276
.LBB454:
.LBI454:
	.loc 3 482 55 view .LVU277
.LBB455:
	.loc 3 484 3 view .LVU278
	.loc 3 486 3 view .LVU279
.LBE455:
.LBE454:
.LBE453:
.LBE452:
.LBE482:
@ ../src/config/sama5d29_curiosity/peripheral/mmu/plib_mmu.c:143: {
	.loc 1 143 1 is_stmt 0 view .LVU280
	push	{r4, r5, r6, r7, r8, lr}	@
.LCFI2:
	.cfi_def_cfa_offset 24
	.cfi_offset 4, -24
	.cfi_offset 5, -20
	.cfi_offset 6, -16
	.cfi_offset 7, -12
	.cfi_offset 8, -8
	.cfi_offset 14, -4
.LBB483:
.LBB481:
.LBB480:
.LBB457:
.LBB456:
@ C:/Users/M69710/.mchp_packs/ARM/CMSIS/5.9.0/CMSIS/Core_A/Include/cmsis_cp15.h:486:   __get_CP(15, 1, result, 0, 0, 1);
	.loc 3 486 3 view .LVU281
	.syntax divided
@ 486 "C:/Users/M69710/.mchp_packs/ARM/CMSIS/5.9.0/CMSIS/Core_A/Include/cmsis_cp15.h" 1
	MRC p15, 1, r7, c0, c0, 1	@ result
@ 0 "" 2
.LVL59:
	.loc 3 487 3 is_stmt 1 view .LVU282
	.loc 3 487 3 is_stmt 0 view .LVU283
	.arm
	.syntax unified
.LBE456:
.LBE457:
	.loc 2 997 3 is_stmt 1 view .LVU284
.LBB458:
	.loc 2 997 7 view .LVU285
@ C:/Users/M69710/.mchp_packs/ARM/CMSIS/5.9.0/CMSIS/Core_A/Include/core_ca.h:997:   for(uint32_t i = 0U; i<7U; i++)
	.loc 2 997 16 is_stmt 0 view .LVU286
	mov	r4, #0	@ i,
@ C:/Users/M69710/.mchp_packs/ARM/CMSIS/5.9.0/CMSIS/Core_A/Include/core_ca.h:999:     cache_type = (clidr >> i*3U) & 0x7UL;
	.loc 2 999 25 view .LVU287
	mov	r6, #3	@ tmp142,
.LVL60:
.L59:
	.loc 2 999 5 is_stmt 1 view .LVU288
	.loc 2 1000 5 view .LVU289
@ C:/Users/M69710/.mchp_packs/ARM/CMSIS/5.9.0/CMSIS/Core_A/Include/core_ca.h:999:     cache_type = (clidr >> i*3U) & 0x7UL;
	.loc 2 999 25 is_stmt 0 view .LVU290
	mul	r3, r6, r4	@ tmp141, tmp142, i
	lsr	r3, r7, r3	@ tmp143, result, tmp141
@ C:/Users/M69710/.mchp_packs/ARM/CMSIS/5.9.0/CMSIS/Core_A/Include/core_ca.h:999:     cache_type = (clidr >> i*3U) & 0x7UL;
	.loc 2 999 16 view .LVU291
	and	r3, r3, #7	@ cache_type, tmp143,
@ C:/Users/M69710/.mchp_packs/ARM/CMSIS/5.9.0/CMSIS/Core_A/Include/core_ca.h:1000:     if ((cache_type >= 2U) && (cache_type <= 4U))
	.loc 2 1000 28 view .LVU292
	sub	r3, r3, #2	@ tmp145, cache_type,
@ C:/Users/M69710/.mchp_packs/ARM/CMSIS/5.9.0/CMSIS/Core_A/Include/core_ca.h:1000:     if ((cache_type >= 2U) && (cache_type <= 4U))
	.loc 2 1000 8 view .LVU293
	cmp	r3, #2	@ tmp145,
	bhi	.L52		@,
	.loc 2 1002 7 is_stmt 1 view .LVU294
.LVL61:
.LBB459:
.LBI459:
	.loc 2 950 51 view .LVU295
.LBB460:
	.loc 2 952 3 view .LVU296
	.loc 2 953 3 view .LVU297
	.loc 2 954 3 view .LVU298
	.loc 2 955 3 view .LVU299
	.loc 2 956 3 view .LVU300
	.loc 2 957 3 view .LVU301
	.loc 2 958 4 view .LVU302
	.loc 2 960 3 view .LVU303
	lsl	r5, r4, #1	@ Dummy, i,
.LVL62:
	.loc 2 962 3 view .LVU304
.LBB461:
.LBI461:
	.loc 3 442 51 view .LVU305
.LBB462:
	.loc 3 445 3 view .LVU306
	.syntax divided
@ 445 "C:/Users/M69710/.mchp_packs/ARM/CMSIS/5.9.0/CMSIS/Core_A/Include/cmsis_cp15.h" 1
	MCR p15, 2, r5, c0, c0, 0	@ Dummy
@ 0 "" 2
.LVL63:
	.loc 3 445 3 is_stmt 0 view .LVU307
	.arm
	.syntax unified
.LBE462:
.LBE461:
	.loc 2 964 3 is_stmt 1 view .LVU308
.LBB463:
.LBI463:
	.loc 3 471 55 view .LVU309
.LBB464:
	.loc 3 473 3 view .LVU310
	.loc 3 475 3 view .LVU311
	.syntax divided
@ 475 "C:/Users/M69710/.mchp_packs/ARM/CMSIS/5.9.0/CMSIS/Core_A/Include/cmsis_cp15.h" 1
	MRC p15, 1, r8, c0, c0, 0	@ result
@ 0 "" 2
.LVL64:
	.loc 3 476 3 view .LVU312
	.loc 3 476 3 is_stmt 0 view .LVU313
	.arm
	.syntax unified
.LBE464:
.LBE463:
	.loc 2 965 3 is_stmt 1 view .LVU314
	.loc 2 966 3 view .LVU315
@ C:/Users/M69710/.mchp_packs/ARM/CMSIS/5.9.0/CMSIS/Core_A/Include/core_ca.h:966:   num_ways = ((ccsidr & 0x00001FF8U) >> 3U) + 1U;
	.loc 2 966 38 is_stmt 0 view .LVU316
	ubfx	lr, r8, #3, #10	@ _13, result,,
@ C:/Users/M69710/.mchp_packs/ARM/CMSIS/5.9.0/CMSIS/Core_A/Include/core_ca.h:966:   num_ways = ((ccsidr & 0x00001FF8U) >> 3U) + 1U;
	.loc 2 966 12 view .LVU317
	add	r0, lr, #1	@ num_ways, _13,
.LVL65:
	.loc 2 967 3 is_stmt 1 view .LVU318
	.loc 2 968 3 view .LVU319
.LBB465:
.LBI465:
	.loc 2 930 54 view .LVU320
.LBB466:
	.loc 2 932 3 view .LVU321
@ C:/Users/M69710/.mchp_packs/ARM/CMSIS/5.9.0/CMSIS/Core_A/Include/core_ca.h:932:   if (n < 2U) {
	.loc 2 932 6 is_stmt 0 view .LVU322
	cmp	r0, #1	@ num_ways,
	beq	.L60		@,
	mov	r2, r0	@ t, num_ways
@ C:/Users/M69710/.mchp_packs/ARM/CMSIS/5.9.0/CMSIS/Core_A/Include/core_ca.h:935:   uint8_t log = 0U;
	.loc 2 935 11 view .LVU323
	mov	r1, #0	@ log,
	b	.L54		@
.LVL66:
.L61:
@ C:/Users/M69710/.mchp_packs/ARM/CMSIS/5.9.0/CMSIS/Core_A/Include/core_ca.h:939:     log++;
	.loc 2 939 8 view .LVU324
	mov	r1, r3	@ log, log
.LVL67:
.L54:
	.loc 2 939 5 is_stmt 1 view .LVU325
@ C:/Users/M69710/.mchp_packs/ARM/CMSIS/5.9.0/CMSIS/Core_A/Include/core_ca.h:940:     t >>= 1U;
	.loc 2 940 7 is_stmt 0 view .LVU326
	lsr	r2, r2, #1	@ t, t,
.LVL68:
@ C:/Users/M69710/.mchp_packs/ARM/CMSIS/5.9.0/CMSIS/Core_A/Include/core_ca.h:939:     log++;
	.loc 2 939 8 view .LVU327
	add	r3, r1, #1	@ tmp149, log,
@ C:/Users/M69710/.mchp_packs/ARM/CMSIS/5.9.0/CMSIS/Core_A/Include/core_ca.h:937:   while(t > 1U)
	.loc 2 937 8 view .LVU328
	cmp	r2, #1	@ t,
@ C:/Users/M69710/.mchp_packs/ARM/CMSIS/5.9.0/CMSIS/Core_A/Include/core_ca.h:939:     log++;
	.loc 2 939 8 view .LVU329
	uxtb	r3, r3	@ log, tmp149
.LVL69:
	.loc 2 940 5 is_stmt 1 view .LVU330
@ C:/Users/M69710/.mchp_packs/ARM/CMSIS/5.9.0/CMSIS/Core_A/Include/core_ca.h:937:   while(t > 1U)
	.loc 2 937 8 is_stmt 0 view .LVU331
	bne	.L61		@,
	.loc 2 942 3 is_stmt 1 view .LVU332
@ C:/Users/M69710/.mchp_packs/ARM/CMSIS/5.9.0/CMSIS/Core_A/Include/core_ca.h:942:   if (n & 1U) { log++; }
	.loc 2 942 6 is_stmt 0 view .LVU333
	tst	r0, #1	@ num_ways,
	beq	.L55		@,
	.loc 2 942 17 is_stmt 1 view .LVU334
@ C:/Users/M69710/.mchp_packs/ARM/CMSIS/5.9.0/CMSIS/Core_A/Include/core_ca.h:942:   if (n & 1U) { log++; }
	.loc 2 942 20 is_stmt 0 view .LVU335
	add	r3, r1, #2	@ tmp151, log,
.LVL70:
	.loc 2 942 20 view .LVU336
	uxtb	r3, r3	@ log, tmp151
.LVL71:
.L55:
	.loc 2 942 20 view .LVU337
.LBE466:
.LBE465:
	.loc 2 969 3 is_stmt 1 view .LVU338
@ C:/Users/M69710/.mchp_packs/ARM/CMSIS/5.9.0/CMSIS/Core_A/Include/core_ca.h:969:   if ((log2_num_ways < 0) || (log2_num_ways > 32)) {
	.loc 2 969 6 is_stmt 0 view .LVU339
	cmp	r3, #32	@ log,
	bhi	.L52		@,
	.loc 2 969 6 view .LVU340
	rsb	ip, r3, #32	@ _78, log,
.LVL72:
.L53:
	.loc 2 972 3 is_stmt 1 view .LVU341
	.loc 2 973 3 view .LVU342
.LBB468:
	.loc 2 973 7 view .LVU343
	and	r0, r8, #7	@ tmp159, result,
.LVL73:
	.loc 2 973 7 is_stmt 0 view .LVU344
.LBE468:
@ C:/Users/M69710/.mchp_packs/ARM/CMSIS/5.9.0/CMSIS/Core_A/Include/core_ca.h:967:   log2_linesize = (ccsidr & 0x00000007U) + 2U + 2U;
	.loc 2 967 17 view .LVU345
	add	r0, r0, #4	@ log2_linesize, tmp159,
@ C:/Users/M69710/.mchp_packs/ARM/CMSIS/5.9.0/CMSIS/Core_A/Include/core_ca.h:965:   num_sets = ((ccsidr & 0x0FFFE000U) >> 13U) + 1U;
	.loc 2 965 38 view .LVU346
	ubfx	r8, r8, #13, #15	@ _80, result,,
.LVL74:
.L58:
.LBB474:
	.loc 2 975 5 is_stmt 1 view .LVU347
.LBB469:
	.loc 2 975 9 view .LVU348
	.loc 2 975 9 is_stmt 0 view .LVU349
	orr	r1, r5, lr, lsl ip	@ _62, Dummy, way,
@ C:/Users/M69710/.mchp_packs/ARM/CMSIS/5.9.0/CMSIS/Core_A/Include/core_ca.h:975:     for(int32_t set = num_sets-1; set >= 0; set--)
	.loc 2 975 17 view .LVU350
	mov	r3, r8	@ set, _80
.L57:
.LVL75:
	.loc 2 977 7 is_stmt 1 view .LVU351
	.loc 2 978 7 view .LVU352
	.loc 2 982 18 view .LVU353
.LBB470:
.LBI470:
	.loc 3 508 51 view .LVU354
.LBB471:
	.loc 3 511 3 view .LVU355
.LBE471:
.LBE470:
@ C:/Users/M69710/.mchp_packs/ARM/CMSIS/5.9.0/CMSIS/Core_A/Include/core_ca.h:977:       Dummy = (level << 1U) | (((uint32_t)set) << log2_linesize) | (((uint32_t)way) << shift_way);
	.loc 2 977 13 is_stmt 0 view .LVU356
	orr	r2, r1, r3, lsl r0	@ Dummy, _62, set,
.LBB473:
.LBB472:
@ C:/Users/M69710/.mchp_packs/ARM/CMSIS/5.9.0/CMSIS/Core_A/Include/cmsis_cp15.h:511:   __set_CP(15, 0, value, 7, 14, 2);
	.loc 3 511 3 view .LVU357
	.syntax divided
@ 511 "C:/Users/M69710/.mchp_packs/ARM/CMSIS/5.9.0/CMSIS/Core_A/Include/cmsis_cp15.h" 1
	MCR p15, 0, r2, c7, c14, 2	@ Dummy
@ 0 "" 2
	.arm
	.syntax unified
.LBE472:
.LBE473:
@ C:/Users/M69710/.mchp_packs/ARM/CMSIS/5.9.0/CMSIS/Core_A/Include/core_ca.h:975:     for(int32_t set = num_sets-1; set >= 0; set--)
	.loc 2 975 5 view .LVU358
	subs	r3, r3, #1	@ set, set,
.LVL76:
	.loc 2 975 5 view .LVU359
	bcs	.L57		@,
.LBE469:
@ C:/Users/M69710/.mchp_packs/ARM/CMSIS/5.9.0/CMSIS/Core_A/Include/core_ca.h:973:   for(int32_t way = num_ways-1; way >= 0; way--)
	.loc 2 973 3 view .LVU360
	subs	lr, lr, #1	@ way, way,
.LVL77:
	.loc 2 973 3 view .LVU361
	bcs	.L58		@,
.LBE474:
	.loc 2 986 3 is_stmt 1 view .LVU362
.LBB475:
.LBI475:
	.loc 4 374 51 view .LVU363
.LBB476:
	.loc 4 376 3 view .LVU364
	.syntax divided
@ 376 "C:/Users/M69710/.mchp_packs/ARM/CMSIS/5.9.0/CMSIS/Core_A/Include/cmsis_gcc.h" 1
	dmb 0xF	
@ 0 "" 2
.LVL78:
	.arm
	.syntax unified
.L52:
	.loc 4 376 3 is_stmt 0 view .LVU365
.LBE476:
.LBE475:
.LBE460:
.LBE459:
@ C:/Users/M69710/.mchp_packs/ARM/CMSIS/5.9.0/CMSIS/Core_A/Include/core_ca.h:997:   for(uint32_t i = 0U; i<7U; i++)
	.loc 2 997 31 view .LVU366
	add	r4, r4, #1	@ i, i,
.LVL79:
@ C:/Users/M69710/.mchp_packs/ARM/CMSIS/5.9.0/CMSIS/Core_A/Include/core_ca.h:997:   for(uint32_t i = 0U; i<7U; i++)
	.loc 2 997 3 view .LVU367
	cmp	r4, #7	@ i,
	bne	.L59		@,
	pop	{r4, r5, r6, r7, r8, pc}	@
.LVL80:
.L60:
.LBB479:
.LBB478:
.LBB477:
.LBB467:
@ C:/Users/M69710/.mchp_packs/ARM/CMSIS/5.9.0/CMSIS/Core_A/Include/core_ca.h:932:   if (n < 2U) {
	.loc 2 932 6 view .LVU368
	mov	ip, #32	@ _78,
	b	.L53		@
.LBE467:
.LBE477:
.LBE478:
.LBE479:
.LBE458:
.LBE480:
.LBE481:
.LBE483:
	.cfi_endproc
.LFE142:
	.size	dcache_CleanInvalidateAll, .-dcache_CleanInvalidateAll
	.section	.text.dcache_InvalidateByAddr,code
	.align	2
	.global	dcache_InvalidateByAddr
	.syntax unified
	.arm
	.fpu neon-vfpv4
	.type	dcache_InvalidateByAddr, %function
dcache_InvalidateByAddr:
.LVL81:
.LFB143:
	.loc 1 148 1 is_stmt 1 view -0
	.cfi_startproc
	@ args = 0, pretend = 0, frame = 8
	@ frame_needed = 0, uses_anonymous_args = 0
	@ link register save eliminated.
	.loc 1 149 5 view .LVU370
@ ../src/config/sama5d29_curiosity/peripheral/mmu/plib_mmu.c:148: {
	.loc 1 148 1 is_stmt 0 view .LVU371
	sub	sp, sp, #8	@,,
.LCFI3:
	.cfi_def_cfa_offset 8
@ ../src/config/sama5d29_curiosity/peripheral/mmu/plib_mmu.c:149:     volatile uint32_t uAddr = (volatile uint32_t)((volatile uint32_t*)pAddr);
	.loc 1 149 23 view .LVU372
	str	r0, [sp, #4]	@ pAddr, uAddr
	.loc 1 150 5 is_stmt 1 view .LVU373
.LVL82:
	.loc 1 151 5 view .LVU374
@ ../src/config/sama5d29_curiosity/peripheral/mmu/plib_mmu.c:151:     uint32_t mva = uAddr & ~(L1_DATA_CACHE_BYTES - 1U);
	.loc 1 151 26 is_stmt 0 view .LVU375
	ldr	r3, [sp, #4]	@ uAddr.7_2, uAddr
@ ../src/config/sama5d29_curiosity/peripheral/mmu/plib_mmu.c:153:     while(mva < (uAddr + uSize))
	.loc 1 153 24 view .LVU376
	ldr	r2, [sp, #4]	@ uAddr.8_19, uAddr
@ ../src/config/sama5d29_curiosity/peripheral/mmu/plib_mmu.c:151:     uint32_t mva = uAddr & ~(L1_DATA_CACHE_BYTES - 1U);
	.loc 1 151 14 view .LVU377
	bic	r3, r3, #31	@ mva, uAddr.7_2,
.LVL83:
	.loc 1 153 5 is_stmt 1 view .LVU378
@ ../src/config/sama5d29_curiosity/peripheral/mmu/plib_mmu.c:153:     while(mva < (uAddr + uSize))
	.loc 1 153 24 is_stmt 0 view .LVU379
	add	r2, r1, r2	@ tmp120, size, uAddr.8_19
@ ../src/config/sama5d29_curiosity/peripheral/mmu/plib_mmu.c:153:     while(mva < (uAddr + uSize))
	.loc 1 153 10 view .LVU380
	cmp	r3, r2	@ mva, tmp120
	bcs	.L71		@,
.L72:
	.loc 1 155 9 is_stmt 1 view .LVU381
.LVL84:
.LBB484:
.LBI484:
	.loc 3 426 51 view .LVU382
.LBB485:
	.loc 3 428 3 view .LVU383
	.syntax divided
@ 428 "C:/Users/M69710/.mchp_packs/ARM/CMSIS/5.9.0/CMSIS/Core_A/Include/cmsis_cp15.h" 1
	MCR p15, 0, r3, c7, c6, 1	@ mva
@ 0 "" 2
.LVL85:
	.loc 3 428 3 is_stmt 0 view .LVU384
	.arm
	.syntax unified
.LBE485:
.LBE484:
	.loc 1 156 9 is_stmt 1 view .LVU385
.LBB486:
.LBI486:
	.loc 4 374 51 view .LVU386
.LBB487:
	.loc 4 376 3 view .LVU387
	.syntax divided
@ 376 "C:/Users/M69710/.mchp_packs/ARM/CMSIS/5.9.0/CMSIS/Core_A/Include/cmsis_gcc.h" 1
	dmb 0xF	
@ 0 "" 2
	.arm
	.syntax unified
.LBE487:
.LBE486:
	.loc 1 157 9 view .LVU388
@ ../src/config/sama5d29_curiosity/peripheral/mmu/plib_mmu.c:153:     while(mva < (uAddr + uSize))
	.loc 1 153 24 is_stmt 0 view .LVU389
	ldr	r2, [sp, #4]	@ uAddr.8_3, uAddr
@ ../src/config/sama5d29_curiosity/peripheral/mmu/plib_mmu.c:157:         mva += L1_DATA_CACHE_BYTES;
	.loc 1 157 13 view .LVU390
	add	r3, r3, #32	@ mva, mva,
.LVL86:
@ ../src/config/sama5d29_curiosity/peripheral/mmu/plib_mmu.c:153:     while(mva < (uAddr + uSize))
	.loc 1 153 24 view .LVU391
	add	r2, r2, r1	@ tmp121, uAddr.8_3, size
@ ../src/config/sama5d29_curiosity/peripheral/mmu/plib_mmu.c:153:     while(mva < (uAddr + uSize))
	.loc 1 153 10 view .LVU392
	cmp	r2, r3	@ tmp121, mva
	bhi	.L72		@,
.L71:
	.loc 1 159 5 is_stmt 1 view .LVU393
.LBB488:
.LBI488:
	.loc 4 364 51 view .LVU394
.LBB489:
	.loc 4 366 3 view .LVU395
	.syntax divided
@ 366 "C:/Users/M69710/.mchp_packs/ARM/CMSIS/5.9.0/CMSIS/Core_A/Include/cmsis_gcc.h" 1
	dsb 0xF	
@ 0 "" 2
	.arm
	.syntax unified
.LBE489:
.LBE488:
@ ../src/config/sama5d29_curiosity/peripheral/mmu/plib_mmu.c:160: }
	.loc 1 160 1 is_stmt 0 view .LVU396
	add	sp, sp, #8	@,,
.LCFI4:
	.cfi_def_cfa_offset 0
	@ sp needed	@
	bx	lr	@
	.cfi_endproc
.LFE143:
	.size	dcache_InvalidateByAddr, .-dcache_InvalidateByAddr
	.section	.text.dcache_CleanByAddr,code
	.align	2
	.global	dcache_CleanByAddr
	.syntax unified
	.arm
	.fpu neon-vfpv4
	.type	dcache_CleanByAddr, %function
dcache_CleanByAddr:
.LVL87:
.LFB144:
	.loc 1 163 1 is_stmt 1 view -0
	.cfi_startproc
	@ args = 0, pretend = 0, frame = 8
	@ frame_needed = 0, uses_anonymous_args = 0
	@ link register save eliminated.
	.loc 1 164 5 view .LVU398
@ ../src/config/sama5d29_curiosity/peripheral/mmu/plib_mmu.c:163: {
	.loc 1 163 1 is_stmt 0 view .LVU399
	sub	sp, sp, #8	@,,
.LCFI5:
	.cfi_def_cfa_offset 8
@ ../src/config/sama5d29_curiosity/peripheral/mmu/plib_mmu.c:164:     volatile uint32_t uAddr = (volatile uint32_t)((volatile uint32_t*)pAddr);
	.loc 1 164 23 view .LVU400
	str	r0, [sp, #4]	@ pAddr, uAddr
	.loc 1 165 5 is_stmt 1 view .LVU401
.LVL88:
	.loc 1 166 5 view .LVU402
@ ../src/config/sama5d29_curiosity/peripheral/mmu/plib_mmu.c:166:     uint32_t mva = uAddr & ~(L1_DATA_CACHE_BYTES - 1U);
	.loc 1 166 26 is_stmt 0 view .LVU403
	ldr	r3, [sp, #4]	@ uAddr.10_2, uAddr
@ ../src/config/sama5d29_curiosity/peripheral/mmu/plib_mmu.c:168:     while(mva < (uAddr + uSize))
	.loc 1 168 24 view .LVU404
	ldr	r2, [sp, #4]	@ uAddr.11_19, uAddr
@ ../src/config/sama5d29_curiosity/peripheral/mmu/plib_mmu.c:166:     uint32_t mva = uAddr & ~(L1_DATA_CACHE_BYTES - 1U);
	.loc 1 166 14 view .LVU405
	bic	r3, r3, #31	@ mva, uAddr.10_2,
.LVL89:
	.loc 1 168 5 is_stmt 1 view .LVU406
@ ../src/config/sama5d29_curiosity/peripheral/mmu/plib_mmu.c:168:     while(mva < (uAddr + uSize))
	.loc 1 168 24 is_stmt 0 view .LVU407
	add	r2, r1, r2	@ tmp120, size, uAddr.11_19
@ ../src/config/sama5d29_curiosity/peripheral/mmu/plib_mmu.c:168:     while(mva < (uAddr + uSize))
	.loc 1 168 10 view .LVU408
	cmp	r3, r2	@ mva, tmp120
	bcs	.L76		@,
.L77:
	.loc 1 170 9 is_stmt 1 view .LVU409
.LVL90:
.LBB490:
.LBI490:
	.loc 3 417 51 view .LVU410
.LBB491:
	.loc 3 419 3 view .LVU411
	.syntax divided
@ 419 "C:/Users/M69710/.mchp_packs/ARM/CMSIS/5.9.0/CMSIS/Core_A/Include/cmsis_cp15.h" 1
	MCR p15, 0, r3, c7, c10, 1	@ mva
@ 0 "" 2
.LVL91:
	.loc 3 419 3 is_stmt 0 view .LVU412
	.arm
	.syntax unified
.LBE491:
.LBE490:
	.loc 1 171 9 is_stmt 1 view .LVU413
.LBB492:
.LBI492:
	.loc 4 374 51 view .LVU414
.LBB493:
	.loc 4 376 3 view .LVU415
	.syntax divided
@ 376 "C:/Users/M69710/.mchp_packs/ARM/CMSIS/5.9.0/CMSIS/Core_A/Include/cmsis_gcc.h" 1
	dmb 0xF	
@ 0 "" 2
	.arm
	.syntax unified
.LBE493:
.LBE492:
	.loc 1 172 9 view .LVU416
@ ../src/config/sama5d29_curiosity/peripheral/mmu/plib_mmu.c:168:     while(mva < (uAddr + uSize))
	.loc 1 168 24 is_stmt 0 view .LVU417
	ldr	r2, [sp, #4]	@ uAddr.11_3, uAddr
@ ../src/config/sama5d29_curiosity/peripheral/mmu/plib_mmu.c:172:         mva += L1_DATA_CACHE_BYTES;
	.loc 1 172 13 view .LVU418
	add	r3, r3, #32	@ mva, mva,
.LVL92:
@ ../src/config/sama5d29_curiosity/peripheral/mmu/plib_mmu.c:168:     while(mva < (uAddr + uSize))
	.loc 1 168 24 view .LVU419
	add	r2, r2, r1	@ tmp121, uAddr.11_3, size
@ ../src/config/sama5d29_curiosity/peripheral/mmu/plib_mmu.c:168:     while(mva < (uAddr + uSize))
	.loc 1 168 10 view .LVU420
	cmp	r2, r3	@ tmp121, mva
	bhi	.L77		@,
.L76:
	.loc 1 174 5 is_stmt 1 view .LVU421
.LBB494:
.LBI494:
	.loc 4 364 51 view .LVU422
.LBB495:
	.loc 4 366 3 view .LVU423
	.syntax divided
@ 366 "C:/Users/M69710/.mchp_packs/ARM/CMSIS/5.9.0/CMSIS/Core_A/Include/cmsis_gcc.h" 1
	dsb 0xF	
@ 0 "" 2
	.arm
	.syntax unified
.LBE495:
.LBE494:
@ ../src/config/sama5d29_curiosity/peripheral/mmu/plib_mmu.c:175: }
	.loc 1 175 1 is_stmt 0 view .LVU424
	add	sp, sp, #8	@,,
.LCFI6:
	.cfi_def_cfa_offset 0
	@ sp needed	@
	bx	lr	@
	.cfi_endproc
.LFE144:
	.size	dcache_CleanByAddr, .-dcache_CleanByAddr
	.section	.text.dcache_CleanInvalidateByAddr,code
	.align	2
	.global	dcache_CleanInvalidateByAddr
	.syntax unified
	.arm
	.fpu neon-vfpv4
	.type	dcache_CleanInvalidateByAddr, %function
dcache_CleanInvalidateByAddr:
.LVL93:
.LFB145:
	.loc 1 178 1 is_stmt 1 view -0
	.cfi_startproc
	@ args = 0, pretend = 0, frame = 8
	@ frame_needed = 0, uses_anonymous_args = 0
	@ link register save eliminated.
	.loc 1 179 5 view .LVU426
@ ../src/config/sama5d29_curiosity/peripheral/mmu/plib_mmu.c:178: {
	.loc 1 178 1 is_stmt 0 view .LVU427
	sub	sp, sp, #8	@,,
.LCFI7:
	.cfi_def_cfa_offset 8
@ ../src/config/sama5d29_curiosity/peripheral/mmu/plib_mmu.c:179:     volatile uint32_t uAddr = (volatile uint32_t)((volatile uint32_t*)pAddr);
	.loc 1 179 23 view .LVU428
	str	r0, [sp, #4]	@ pAddr, uAddr
	.loc 1 180 5 is_stmt 1 view .LVU429
.LVL94:
	.loc 1 181 5 view .LVU430
@ ../src/config/sama5d29_curiosity/peripheral/mmu/plib_mmu.c:181:     uint32_t mva = uAddr & ~(L1_DATA_CACHE_BYTES - 1U);
	.loc 1 181 26 is_stmt 0 view .LVU431
	ldr	r3, [sp, #4]	@ uAddr.13_2, uAddr
@ ../src/config/sama5d29_curiosity/peripheral/mmu/plib_mmu.c:183:     while(mva < (uAddr + uSize))
	.loc 1 183 24 view .LVU432
	ldr	r2, [sp, #4]	@ uAddr.14_19, uAddr
@ ../src/config/sama5d29_curiosity/peripheral/mmu/plib_mmu.c:181:     uint32_t mva = uAddr & ~(L1_DATA_CACHE_BYTES - 1U);
	.loc 1 181 14 view .LVU433
	bic	r3, r3, #31	@ mva, uAddr.13_2,
.LVL95:
	.loc 1 183 5 is_stmt 1 view .LVU434
@ ../src/config/sama5d29_curiosity/peripheral/mmu/plib_mmu.c:183:     while(mva < (uAddr + uSize))
	.loc 1 183 24 is_stmt 0 view .LVU435
	add	r2, r1, r2	@ tmp120, size, uAddr.14_19
@ ../src/config/sama5d29_curiosity/peripheral/mmu/plib_mmu.c:183:     while(mva < (uAddr + uSize))
	.loc 1 183 10 view .LVU436
	cmp	r3, r2	@ mva, tmp120
	bcs	.L81		@,
.L82:
	.loc 1 185 9 is_stmt 1 view .LVU437
.LVL96:
.LBB496:
.LBI496:
	.loc 3 435 51 view .LVU438
.LBB497:
	.loc 3 437 3 view .LVU439
	.syntax divided
@ 437 "C:/Users/M69710/.mchp_packs/ARM/CMSIS/5.9.0/CMSIS/Core_A/Include/cmsis_cp15.h" 1
	MCR p15, 0, r3, c7, c14, 1	@ mva
@ 0 "" 2
.LVL97:
	.loc 3 437 3 is_stmt 0 view .LVU440
	.arm
	.syntax unified
.LBE497:
.LBE496:
	.loc 1 186 9 is_stmt 1 view .LVU441
.LBB498:
.LBI498:
	.loc 4 374 51 view .LVU442
.LBB499:
	.loc 4 376 3 view .LVU443
	.syntax divided
@ 376 "C:/Users/M69710/.mchp_packs/ARM/CMSIS/5.9.0/CMSIS/Core_A/Include/cmsis_gcc.h" 1
	dmb 0xF	
@ 0 "" 2
	.arm
	.syntax unified
.LBE499:
.LBE498:
	.loc 1 187 9 view .LVU444
@ ../src/config/sama5d29_curiosity/peripheral/mmu/plib_mmu.c:183:     while(mva < (uAddr + uSize))
	.loc 1 183 24 is_stmt 0 view .LVU445
	ldr	r2, [sp, #4]	@ uAddr.14_3, uAddr
@ ../src/config/sama5d29_curiosity/peripheral/mmu/plib_mmu.c:187:         mva += L1_DATA_CACHE_BYTES;
	.loc 1 187 13 view .LVU446
	add	r3, r3, #32	@ mva, mva,
.LVL98:
@ ../src/config/sama5d29_curiosity/peripheral/mmu/plib_mmu.c:183:     while(mva < (uAddr + uSize))
	.loc 1 183 24 view .LVU447
	add	r2, r2, r1	@ tmp121, uAddr.14_3, size
@ ../src/config/sama5d29_curiosity/peripheral/mmu/plib_mmu.c:183:     while(mva < (uAddr + uSize))
	.loc 1 183 10 view .LVU448
	cmp	r2, r3	@ tmp121, mva
	bhi	.L82		@,
.L81:
	.loc 1 189 5 is_stmt 1 view .LVU449
.LBB500:
.LBI500:
	.loc 4 364 51 view .LVU450
.LBB501:
	.loc 4 366 3 view .LVU451
	.syntax divided
@ 366 "C:/Users/M69710/.mchp_packs/ARM/CMSIS/5.9.0/CMSIS/Core_A/Include/cmsis_gcc.h" 1
	dsb 0xF	
@ 0 "" 2
	.arm
	.syntax unified
.LBE501:
.LBE500:
@ ../src/config/sama5d29_curiosity/peripheral/mmu/plib_mmu.c:190: }
	.loc 1 190 1 is_stmt 0 view .LVU452
	add	sp, sp, #8	@,,
.LCFI8:
	.cfi_def_cfa_offset 0
	@ sp needed	@
	bx	lr	@
	.cfi_endproc
.LFE145:
	.size	dcache_CleanInvalidateByAddr, .-dcache_CleanInvalidateByAddr
	.section	.text.dcache_Enable,code
	.align	2
	.global	dcache_Enable
	.syntax unified
	.arm
	.fpu neon-vfpv4
	.type	dcache_Enable, %function
dcache_Enable:
.LFB146:
	.loc 1 193 1 is_stmt 1 view -0
	.cfi_startproc
	@ args = 0, pretend = 0, frame = 0
	@ frame_needed = 0, uses_anonymous_args = 0
	.loc 1 194 5 view .LVU454
.LBB502:
.LBI502:
	.loc 3 188 55 view .LVU455
.LBB503:
	.loc 3 190 3 view .LVU456
	.loc 3 191 3 view .LVU457
.LBE503:
.LBE502:
@ ../src/config/sama5d29_curiosity/peripheral/mmu/plib_mmu.c:193: {
	.loc 1 193 1 is_stmt 0 view .LVU458
	push	{r4, r5, r6, r7, r8, r9, lr}	@
.LCFI9:
	.cfi_def_cfa_offset 28
	.cfi_offset 4, -28
	.cfi_offset 5, -24
	.cfi_offset 6, -20
	.cfi_offset 7, -16
	.cfi_offset 8, -12
	.cfi_offset 9, -8
	.cfi_offset 14, -4
.LBB505:
.LBB504:
@ C:/Users/M69710/.mchp_packs/ARM/CMSIS/5.9.0/CMSIS/Core_A/Include/cmsis_cp15.h:191:   __get_CP(15, 0, result, 1, 0, 0);
	.loc 3 191 3 view .LVU459
	.syntax divided
@ 191 "C:/Users/M69710/.mchp_packs/ARM/CMSIS/5.9.0/CMSIS/Core_A/Include/cmsis_cp15.h" 1
	MRC p15, 0, r5, c1, c0, 0	@ result
@ 0 "" 2
.LVL99:
	.loc 3 192 3 is_stmt 1 view .LVU460
	.loc 3 192 3 is_stmt 0 view .LVU461
	.arm
	.syntax unified
.LBE504:
.LBE505:
	.loc 1 195 5 is_stmt 1 view .LVU462
@ ../src/config/sama5d29_curiosity/peripheral/mmu/plib_mmu.c:195:     if ((sctlr & SCTLR_C_Msk) == 0U)
	.loc 1 195 8 is_stmt 0 view .LVU463
	ands	lr, r5, #4	@ i, result,
	popne	{r4, r5, r6, r7, r8, r9, pc}	@
	.loc 1 197 9 is_stmt 1 view .LVU464
.LBB506:
.LBI506:
	.loc 2 1019 51 view .LVU465
.LBE506:
	.loc 2 1020 3 view .LVU466
.LVL100:
.LBB536:
.LBB507:
.LBI507:
	.loc 2 993 51 view .LVU467
.LBB508:
	.loc 2 994 3 view .LVU468
	.loc 2 995 3 view .LVU469
	.loc 2 996 3 view .LVU470
.LBB509:
.LBI509:
	.loc 3 482 55 view .LVU471
.LBB510:
	.loc 3 484 3 view .LVU472
	.loc 3 486 3 view .LVU473
	.syntax divided
@ 486 "C:/Users/M69710/.mchp_packs/ARM/CMSIS/5.9.0/CMSIS/Core_A/Include/cmsis_cp15.h" 1
	MRC p15, 1, r7, c0, c0, 1	@ result
@ 0 "" 2
.LVL101:
	.loc 3 487 3 view .LVU474
	.loc 3 487 3 is_stmt 0 view .LVU475
	.arm
	.syntax unified
.LBE510:
.LBE509:
	.loc 2 997 3 is_stmt 1 view .LVU476
.LBB511:
	.loc 2 997 7 view .LVU477
@ C:/Users/M69710/.mchp_packs/ARM/CMSIS/5.9.0/CMSIS/Core_A/Include/core_ca.h:999:     cache_type = (clidr >> i*3U) & 0x7UL;
	.loc 2 999 25 is_stmt 0 view .LVU478
	mov	r6, #3	@ tmp145,
.LVL102:
.L95:
	.loc 2 999 5 is_stmt 1 view .LVU479
	.loc 2 1000 5 view .LVU480
@ C:/Users/M69710/.mchp_packs/ARM/CMSIS/5.9.0/CMSIS/Core_A/Include/core_ca.h:999:     cache_type = (clidr >> i*3U) & 0x7UL;
	.loc 2 999 25 is_stmt 0 view .LVU481
	mul	r3, r6, lr	@ tmp144, tmp145, i
	lsr	r3, r7, r3	@ tmp146, result, tmp144
@ C:/Users/M69710/.mchp_packs/ARM/CMSIS/5.9.0/CMSIS/Core_A/Include/core_ca.h:999:     cache_type = (clidr >> i*3U) & 0x7UL;
	.loc 2 999 16 view .LVU482
	and	r3, r3, #7	@ cache_type, tmp146,
@ C:/Users/M69710/.mchp_packs/ARM/CMSIS/5.9.0/CMSIS/Core_A/Include/core_ca.h:1000:     if ((cache_type >= 2U) && (cache_type <= 4U))
	.loc 2 1000 28 view .LVU483
	sub	r3, r3, #2	@ tmp148, cache_type,
@ C:/Users/M69710/.mchp_packs/ARM/CMSIS/5.9.0/CMSIS/Core_A/Include/core_ca.h:1000:     if ((cache_type >= 2U) && (cache_type <= 4U))
	.loc 2 1000 8 view .LVU484
	cmp	r3, #2	@ tmp148,
	bhi	.L88		@,
	.loc 2 1002 7 is_stmt 1 view .LVU485
.LVL103:
.LBB512:
.LBI512:
	.loc 2 950 51 view .LVU486
.LBB513:
	.loc 2 952 3 view .LVU487
	.loc 2 953 3 view .LVU488
	.loc 2 954 3 view .LVU489
	.loc 2 955 3 view .LVU490
	.loc 2 956 3 view .LVU491
	.loc 2 957 3 view .LVU492
	.loc 2 958 4 view .LVU493
	.loc 2 960 3 view .LVU494
	lsl	r4, lr, #1	@ Dummy, i,
.LVL104:
	.loc 2 962 3 view .LVU495
.LBB514:
.LBI514:
	.loc 3 442 51 view .LVU496
.LBB515:
	.loc 3 445 3 view .LVU497
	.syntax divided
@ 445 "C:/Users/M69710/.mchp_packs/ARM/CMSIS/5.9.0/CMSIS/Core_A/Include/cmsis_cp15.h" 1
	MCR p15, 2, r4, c0, c0, 0	@ Dummy
@ 0 "" 2
.LVL105:
	.loc 3 445 3 is_stmt 0 view .LVU498
	.arm
	.syntax unified
.LBE515:
.LBE514:
	.loc 2 964 3 is_stmt 1 view .LVU499
.LBB516:
.LBI516:
	.loc 3 471 55 view .LVU500
.LBB517:
	.loc 3 473 3 view .LVU501
	.loc 3 475 3 view .LVU502
	.syntax divided
@ 475 "C:/Users/M69710/.mchp_packs/ARM/CMSIS/5.9.0/CMSIS/Core_A/Include/cmsis_cp15.h" 1
	MRC p15, 1, r1, c0, c0, 0	@ result
@ 0 "" 2
.LVL106:
	.loc 3 476 3 view .LVU503
	.loc 3 476 3 is_stmt 0 view .LVU504
	.arm
	.syntax unified
.LBE517:
.LBE516:
	.loc 2 965 3 is_stmt 1 view .LVU505
	.loc 2 966 3 view .LVU506
@ C:/Users/M69710/.mchp_packs/ARM/CMSIS/5.9.0/CMSIS/Core_A/Include/core_ca.h:966:   num_ways = ((ccsidr & 0x00001FF8U) >> 3U) + 1U;
	.loc 2 966 38 is_stmt 0 view .LVU507
	ubfx	ip, r1, #3, #10	@ _17, result,,
@ C:/Users/M69710/.mchp_packs/ARM/CMSIS/5.9.0/CMSIS/Core_A/Include/core_ca.h:966:   num_ways = ((ccsidr & 0x00001FF8U) >> 3U) + 1U;
	.loc 2 966 12 view .LVU508
	add	r8, ip, #1	@ num_ways, _17,
.LVL107:
	.loc 2 967 3 is_stmt 1 view .LVU509
	.loc 2 968 3 view .LVU510
.LBB518:
.LBI518:
	.loc 2 930 54 view .LVU511
.LBB519:
	.loc 2 932 3 view .LVU512
@ C:/Users/M69710/.mchp_packs/ARM/CMSIS/5.9.0/CMSIS/Core_A/Include/core_ca.h:932:   if (n < 2U) {
	.loc 2 932 6 is_stmt 0 view .LVU513
	cmp	r8, #1	@ num_ways,
	beq	.L96		@,
	mov	r2, r8	@ t, num_ways
@ C:/Users/M69710/.mchp_packs/ARM/CMSIS/5.9.0/CMSIS/Core_A/Include/core_ca.h:935:   uint8_t log = 0U;
	.loc 2 935 11 view .LVU514
	mov	r0, #0	@ log,
	b	.L90		@
.LVL108:
.L97:
@ C:/Users/M69710/.mchp_packs/ARM/CMSIS/5.9.0/CMSIS/Core_A/Include/core_ca.h:939:     log++;
	.loc 2 939 8 view .LVU515
	mov	r0, r3	@ log, log
.LVL109:
.L90:
	.loc 2 939 5 is_stmt 1 view .LVU516
@ C:/Users/M69710/.mchp_packs/ARM/CMSIS/5.9.0/CMSIS/Core_A/Include/core_ca.h:940:     t >>= 1U;
	.loc 2 940 7 is_stmt 0 view .LVU517
	lsr	r2, r2, #1	@ t, t,
.LVL110:
@ C:/Users/M69710/.mchp_packs/ARM/CMSIS/5.9.0/CMSIS/Core_A/Include/core_ca.h:939:     log++;
	.loc 2 939 8 view .LVU518
	add	r3, r0, #1	@ tmp152, log,
@ C:/Users/M69710/.mchp_packs/ARM/CMSIS/5.9.0/CMSIS/Core_A/Include/core_ca.h:937:   while(t > 1U)
	.loc 2 937 8 view .LVU519
	cmp	r2, #1	@ t,
@ C:/Users/M69710/.mchp_packs/ARM/CMSIS/5.9.0/CMSIS/Core_A/Include/core_ca.h:939:     log++;
	.loc 2 939 8 view .LVU520
	uxtb	r3, r3	@ log, tmp152
.LVL111:
	.loc 2 940 5 is_stmt 1 view .LVU521
@ C:/Users/M69710/.mchp_packs/ARM/CMSIS/5.9.0/CMSIS/Core_A/Include/core_ca.h:937:   while(t > 1U)
	.loc 2 937 8 is_stmt 0 view .LVU522
	bne	.L97		@,
	.loc 2 942 3 is_stmt 1 view .LVU523
@ C:/Users/M69710/.mchp_packs/ARM/CMSIS/5.9.0/CMSIS/Core_A/Include/core_ca.h:942:   if (n & 1U) { log++; }
	.loc 2 942 6 is_stmt 0 view .LVU524
	tst	r8, #1	@ num_ways,
	beq	.L91		@,
	.loc 2 942 17 is_stmt 1 view .LVU525
@ C:/Users/M69710/.mchp_packs/ARM/CMSIS/5.9.0/CMSIS/Core_A/Include/core_ca.h:942:   if (n & 1U) { log++; }
	.loc 2 942 20 is_stmt 0 view .LVU526
	add	r3, r0, #2	@ tmp154, log,
.LVL112:
	.loc 2 942 20 view .LVU527
	uxtb	r3, r3	@ log, tmp154
.LVL113:
.L91:
	.loc 2 942 20 view .LVU528
.LBE519:
.LBE518:
	.loc 2 969 3 is_stmt 1 view .LVU529
@ C:/Users/M69710/.mchp_packs/ARM/CMSIS/5.9.0/CMSIS/Core_A/Include/core_ca.h:969:   if ((log2_num_ways < 0) || (log2_num_ways > 32)) {
	.loc 2 969 6 is_stmt 0 view .LVU530
	cmp	r3, #32	@ log,
	bhi	.L88		@,
	.loc 2 969 6 view .LVU531
	rsb	r8, r3, #32	@ _84, log,
.LVL114:
.L89:
	.loc 2 972 3 is_stmt 1 view .LVU532
	.loc 2 973 3 view .LVU533
.LBB521:
	.loc 2 973 7 view .LVU534
	and	r0, r1, #7	@ tmp163, result,
.LVL115:
	.loc 2 973 7 is_stmt 0 view .LVU535
.LBE521:
@ C:/Users/M69710/.mchp_packs/ARM/CMSIS/5.9.0/CMSIS/Core_A/Include/core_ca.h:967:   log2_linesize = (ccsidr & 0x00000007U) + 2U + 2U;
	.loc 2 967 17 view .LVU536
	add	r0, r0, #4	@ log2_linesize, tmp163,
@ C:/Users/M69710/.mchp_packs/ARM/CMSIS/5.9.0/CMSIS/Core_A/Include/core_ca.h:965:   num_sets = ((ccsidr & 0x0FFFE000U) >> 13U) + 1U;
	.loc 2 965 38 view .LVU537
	ubfx	r9, r1, #13, #15	@ _86, result,,
.LVL116:
.L94:
.LBB527:
	.loc 2 975 5 is_stmt 1 view .LVU538
.LBB522:
	.loc 2 975 9 view .LVU539
	.loc 2 975 9 is_stmt 0 view .LVU540
	orr	r1, r4, ip, lsl r8	@ _69, Dummy, way,
@ C:/Users/M69710/.mchp_packs/ARM/CMSIS/5.9.0/CMSIS/Core_A/Include/core_ca.h:975:     for(int32_t set = num_sets-1; set >= 0; set--)
	.loc 2 975 17 view .LVU541
	mov	r3, r9	@ set, _86
.L93:
.LVL117:
	.loc 2 977 7 is_stmt 1 view .LVU542
	.loc 2 978 7 view .LVU543
	.loc 2 980 18 view .LVU544
.LBB523:
.LBI523:
	.loc 3 492 51 view .LVU545
.LBB524:
	.loc 3 495 3 view .LVU546
.LBE524:
.LBE523:
@ C:/Users/M69710/.mchp_packs/ARM/CMSIS/5.9.0/CMSIS/Core_A/Include/core_ca.h:977:       Dummy = (level << 1U) | (((uint32_t)set) << log2_linesize) | (((uint32_t)way) << shift_way);
	.loc 2 977 13 is_stmt 0 view .LVU547
	orr	r2, r1, r3, lsl r0	@ Dummy, _69, set,
.LBB526:
.LBB525:
@ C:/Users/M69710/.mchp_packs/ARM/CMSIS/5.9.0/CMSIS/Core_A/Include/cmsis_cp15.h:495:   __set_CP(15, 0, value, 7, 6, 2);
	.loc 3 495 3 view .LVU548
	.syntax divided
@ 495 "C:/Users/M69710/.mchp_packs/ARM/CMSIS/5.9.0/CMSIS/Core_A/Include/cmsis_cp15.h" 1
	MCR p15, 0, r2, c7, c6, 2	@ Dummy
@ 0 "" 2
	.arm
	.syntax unified
.LBE525:
.LBE526:
@ C:/Users/M69710/.mchp_packs/ARM/CMSIS/5.9.0/CMSIS/Core_A/Include/core_ca.h:975:     for(int32_t set = num_sets-1; set >= 0; set--)
	.loc 2 975 5 view .LVU549
	subs	r3, r3, #1	@ set, set,
.LVL118:
	.loc 2 975 5 view .LVU550
	bcs	.L93		@,
.LBE522:
@ C:/Users/M69710/.mchp_packs/ARM/CMSIS/5.9.0/CMSIS/Core_A/Include/core_ca.h:973:   for(int32_t way = num_ways-1; way >= 0; way--)
	.loc 2 973 3 view .LVU551
	subs	ip, ip, #1	@ way, way,
.LVL119:
	.loc 2 973 3 view .LVU552
	bcs	.L94		@,
.LBE527:
	.loc 2 986 3 is_stmt 1 view .LVU553
.LBB528:
.LBI528:
	.loc 4 374 51 view .LVU554
.LBB529:
	.loc 4 376 3 view .LVU555
	.syntax divided
@ 376 "C:/Users/M69710/.mchp_packs/ARM/CMSIS/5.9.0/CMSIS/Core_A/Include/cmsis_gcc.h" 1
	dmb 0xF	
@ 0 "" 2
.LVL120:
	.arm
	.syntax unified
.L88:
	.loc 4 376 3 is_stmt 0 view .LVU556
.LBE529:
.LBE528:
.LBE513:
.LBE512:
@ C:/Users/M69710/.mchp_packs/ARM/CMSIS/5.9.0/CMSIS/Core_A/Include/core_ca.h:997:   for(uint32_t i = 0U; i<7U; i++)
	.loc 2 997 31 view .LVU557
	add	lr, lr, #1	@ i, i,
.LVL121:
@ C:/Users/M69710/.mchp_packs/ARM/CMSIS/5.9.0/CMSIS/Core_A/Include/core_ca.h:997:   for(uint32_t i = 0U; i<7U; i++)
	.loc 2 997 3 view .LVU558
	cmp	lr, #7	@ i,
	bne	.L95		@,
.LVL122:
	.loc 2 997 3 view .LVU559
.LBE511:
.LBE508:
.LBE507:
.LBE536:
	.loc 1 198 9 is_stmt 1 view .LVU560
.LBB537:
.LBI537:
	.loc 3 180 51 view .LVU561
.LBB538:
	.loc 3 182 3 view .LVU562
.LBE538:
.LBE537:
@ ../src/config/sama5d29_curiosity/peripheral/mmu/plib_mmu.c:198:         __set_SCTLR(sctlr | SCTLR_C_Msk);
	.loc 1 198 9 is_stmt 0 view .LVU563
	orr	r5, r5, #4	@ tmp162, result,
.LVL123:
.LBB540:
.LBB539:
@ C:/Users/M69710/.mchp_packs/ARM/CMSIS/5.9.0/CMSIS/Core_A/Include/cmsis_cp15.h:182:   __set_CP(15, 0, sctlr, 1, 0, 0);
	.loc 3 182 3 view .LVU564
	.syntax divided
@ 182 "C:/Users/M69710/.mchp_packs/ARM/CMSIS/5.9.0/CMSIS/Core_A/Include/cmsis_cp15.h" 1
	MCR p15, 0, r5, c1, c0, 0	@ tmp162
@ 0 "" 2
	.arm
	.syntax unified
.LBE539:
.LBE540:
@ ../src/config/sama5d29_curiosity/peripheral/mmu/plib_mmu.c:200: }
	.loc 1 200 1 view .LVU565
	pop	{r4, r5, r6, r7, r8, r9, pc}	@
.LVL124:
.L96:
.LBB541:
.LBB535:
.LBB534:
.LBB533:
.LBB532:
.LBB531:
.LBB530:
.LBB520:
@ C:/Users/M69710/.mchp_packs/ARM/CMSIS/5.9.0/CMSIS/Core_A/Include/core_ca.h:932:   if (n < 2U) {
	.loc 2 932 6 view .LVU566
	mov	r8, #32	@ _84,
.LVL125:
	.loc 2 932 6 view .LVU567
	b	.L89		@
.LBE520:
.LBE530:
.LBE531:
.LBE532:
.LBE533:
.LBE534:
.LBE535:
.LBE541:
	.cfi_endproc
.LFE146:
	.size	dcache_Enable, .-dcache_Enable
	.section	.text.dcache_Disable,code
	.align	2
	.global	dcache_Disable
	.syntax unified
	.arm
	.fpu neon-vfpv4
	.type	dcache_Disable, %function
dcache_Disable:
.LFB147:
	.loc 1 203 1 is_stmt 1 view -0
	.cfi_startproc
	@ args = 0, pretend = 0, frame = 0
	@ frame_needed = 0, uses_anonymous_args = 0
	.loc 1 204 5 view .LVU569
.LBB542:
.LBI542:
	.loc 3 188 55 view .LVU570
.LBB543:
	.loc 3 190 3 view .LVU571
	.loc 3 191 3 view .LVU572
.LBE543:
.LBE542:
@ ../src/config/sama5d29_curiosity/peripheral/mmu/plib_mmu.c:203: {
	.loc 1 203 1 is_stmt 0 view .LVU573
	push	{r4, r5, r6, r7, r8, r9, lr}	@
.LCFI10:
	.cfi_def_cfa_offset 28
	.cfi_offset 4, -28
	.cfi_offset 5, -24
	.cfi_offset 6, -20
	.cfi_offset 7, -16
	.cfi_offset 8, -12
	.cfi_offset 9, -8
	.cfi_offset 14, -4
.LBB545:
.LBB544:
@ C:/Users/M69710/.mchp_packs/ARM/CMSIS/5.9.0/CMSIS/Core_A/Include/cmsis_cp15.h:191:   __get_CP(15, 0, result, 1, 0, 0);
	.loc 3 191 3 view .LVU574
	.syntax divided
@ 191 "C:/Users/M69710/.mchp_packs/ARM/CMSIS/5.9.0/CMSIS/Core_A/Include/cmsis_cp15.h" 1
	MRC p15, 0, r7, c1, c0, 0	@ result
@ 0 "" 2
.LVL126:
	.loc 3 192 3 is_stmt 1 view .LVU575
	.loc 3 192 3 is_stmt 0 view .LVU576
	.arm
	.syntax unified
.LBE544:
.LBE545:
	.loc 1 205 5 is_stmt 1 view .LVU577
@ ../src/config/sama5d29_curiosity/peripheral/mmu/plib_mmu.c:205:     if ((sctlr & SCTLR_C_Msk) != 0U)
	.loc 1 205 8 is_stmt 0 view .LVU578
	tst	r7, #4	@ result,
	popeq	{r4, r5, r6, r7, r8, r9, pc}	@
	.loc 1 207 9 is_stmt 1 view .LVU579
.LBB546:
.LBI546:
	.loc 2 1025 51 view .LVU580
.LBE546:
	.loc 2 1026 3 view .LVU581
.LVL127:
.LBB576:
.LBB547:
.LBI547:
	.loc 2 993 51 view .LVU582
.LBB548:
	.loc 2 994 3 view .LVU583
	.loc 2 995 3 view .LVU584
	.loc 2 996 3 view .LVU585
.LBB549:
.LBI549:
	.loc 3 482 55 view .LVU586
.LBB550:
	.loc 3 484 3 view .LVU587
	.loc 3 486 3 view .LVU588
	.syntax divided
@ 486 "C:/Users/M69710/.mchp_packs/ARM/CMSIS/5.9.0/CMSIS/Core_A/Include/cmsis_cp15.h" 1
	MRC p15, 1, r6, c0, c0, 1	@ result
@ 0 "" 2
.LVL128:
	.loc 3 487 3 view .LVU589
	.loc 3 487 3 is_stmt 0 view .LVU590
	.arm
	.syntax unified
.LBE550:
.LBE549:
	.loc 2 997 3 is_stmt 1 view .LVU591
.LBB551:
	.loc 2 997 7 view .LVU592
@ C:/Users/M69710/.mchp_packs/ARM/CMSIS/5.9.0/CMSIS/Core_A/Include/core_ca.h:997:   for(uint32_t i = 0U; i<7U; i++)
	.loc 2 997 16 is_stmt 0 view .LVU593
	mov	lr, #0	@ i,
@ C:/Users/M69710/.mchp_packs/ARM/CMSIS/5.9.0/CMSIS/Core_A/Include/core_ca.h:999:     cache_type = (clidr >> i*3U) & 0x7UL;
	.loc 2 999 25 view .LVU594
	mov	r5, #3	@ tmp177,
.LVL129:
.L115:
	.loc 2 999 5 is_stmt 1 view .LVU595
	.loc 2 1000 5 view .LVU596
@ C:/Users/M69710/.mchp_packs/ARM/CMSIS/5.9.0/CMSIS/Core_A/Include/core_ca.h:999:     cache_type = (clidr >> i*3U) & 0x7UL;
	.loc 2 999 25 is_stmt 0 view .LVU597
	mul	r3, r5, lr	@ tmp176, tmp177, i
	lsr	r3, r6, r3	@ tmp178, result, tmp176
@ C:/Users/M69710/.mchp_packs/ARM/CMSIS/5.9.0/CMSIS/Core_A/Include/core_ca.h:999:     cache_type = (clidr >> i*3U) & 0x7UL;
	.loc 2 999 16 view .LVU598
	and	r3, r3, #7	@ cache_type, tmp178,
@ C:/Users/M69710/.mchp_packs/ARM/CMSIS/5.9.0/CMSIS/Core_A/Include/core_ca.h:1000:     if ((cache_type >= 2U) && (cache_type <= 4U))
	.loc 2 1000 28 view .LVU599
	sub	r3, r3, #2	@ tmp180, cache_type,
@ C:/Users/M69710/.mchp_packs/ARM/CMSIS/5.9.0/CMSIS/Core_A/Include/core_ca.h:1000:     if ((cache_type >= 2U) && (cache_type <= 4U))
	.loc 2 1000 8 view .LVU600
	cmp	r3, #2	@ tmp180,
	bhi	.L108		@,
	.loc 2 1002 7 is_stmt 1 view .LVU601
.LVL130:
.LBB552:
.LBI552:
	.loc 2 950 51 view .LVU602
.LBB553:
	.loc 2 952 3 view .LVU603
	.loc 2 953 3 view .LVU604
	.loc 2 954 3 view .LVU605
	.loc 2 955 3 view .LVU606
	.loc 2 956 3 view .LVU607
	.loc 2 957 3 view .LVU608
	.loc 2 958 4 view .LVU609
	.loc 2 960 3 view .LVU610
	lsl	r4, lr, #1	@ Dummy, i,
.LVL131:
	.loc 2 962 3 view .LVU611
.LBB554:
.LBI554:
	.loc 3 442 51 view .LVU612
.LBB555:
	.loc 3 445 3 view .LVU613
	.syntax divided
@ 445 "C:/Users/M69710/.mchp_packs/ARM/CMSIS/5.9.0/CMSIS/Core_A/Include/cmsis_cp15.h" 1
	MCR p15, 2, r4, c0, c0, 0	@ Dummy
@ 0 "" 2
.LVL132:
	.loc 3 445 3 is_stmt 0 view .LVU614
	.arm
	.syntax unified
.LBE555:
.LBE554:
	.loc 2 964 3 is_stmt 1 view .LVU615
.LBB556:
.LBI556:
	.loc 3 471 55 view .LVU616
.LBB557:
	.loc 3 473 3 view .LVU617
	.loc 3 475 3 view .LVU618
	.syntax divided
@ 475 "C:/Users/M69710/.mchp_packs/ARM/CMSIS/5.9.0/CMSIS/Core_A/Include/cmsis_cp15.h" 1
	MRC p15, 1, r1, c0, c0, 0	@ result
@ 0 "" 2
.LVL133:
	.loc 3 476 3 view .LVU619
	.loc 3 476 3 is_stmt 0 view .LVU620
	.arm
	.syntax unified
.LBE557:
.LBE556:
	.loc 2 965 3 is_stmt 1 view .LVU621
	.loc 2 966 3 view .LVU622
@ C:/Users/M69710/.mchp_packs/ARM/CMSIS/5.9.0/CMSIS/Core_A/Include/core_ca.h:966:   num_ways = ((ccsidr & 0x00001FF8U) >> 3U) + 1U;
	.loc 2 966 38 is_stmt 0 view .LVU623
	ubfx	ip, r1, #3, #10	@ _56, result,,
@ C:/Users/M69710/.mchp_packs/ARM/CMSIS/5.9.0/CMSIS/Core_A/Include/core_ca.h:966:   num_ways = ((ccsidr & 0x00001FF8U) >> 3U) + 1U;
	.loc 2 966 12 view .LVU624
	add	r8, ip, #1	@ num_ways, _56,
.LVL134:
	.loc 2 967 3 is_stmt 1 view .LVU625
	.loc 2 968 3 view .LVU626
.LBB558:
.LBI558:
	.loc 2 930 54 view .LVU627
.LBB559:
	.loc 2 932 3 view .LVU628
@ C:/Users/M69710/.mchp_packs/ARM/CMSIS/5.9.0/CMSIS/Core_A/Include/core_ca.h:932:   if (n < 2U) {
	.loc 2 932 6 is_stmt 0 view .LVU629
	cmp	r8, #1	@ num_ways,
	beq	.L126		@,
	mov	r2, r8	@ t, num_ways
@ C:/Users/M69710/.mchp_packs/ARM/CMSIS/5.9.0/CMSIS/Core_A/Include/core_ca.h:935:   uint8_t log = 0U;
	.loc 2 935 11 view .LVU630
	mov	r0, #0	@ log,
	b	.L110		@
.LVL135:
.L127:
@ C:/Users/M69710/.mchp_packs/ARM/CMSIS/5.9.0/CMSIS/Core_A/Include/core_ca.h:939:     log++;
	.loc 2 939 8 view .LVU631
	mov	r0, r3	@ log, log
.LVL136:
.L110:
	.loc 2 939 5 is_stmt 1 view .LVU632
@ C:/Users/M69710/.mchp_packs/ARM/CMSIS/5.9.0/CMSIS/Core_A/Include/core_ca.h:940:     t >>= 1U;
	.loc 2 940 7 is_stmt 0 view .LVU633
	lsr	r2, r2, #1	@ t, t,
.LVL137:
@ C:/Users/M69710/.mchp_packs/ARM/CMSIS/5.9.0/CMSIS/Core_A/Include/core_ca.h:939:     log++;
	.loc 2 939 8 view .LVU634
	add	r3, r0, #1	@ tmp184, log,
@ C:/Users/M69710/.mchp_packs/ARM/CMSIS/5.9.0/CMSIS/Core_A/Include/core_ca.h:937:   while(t > 1U)
	.loc 2 937 8 view .LVU635
	cmp	r2, #1	@ t,
@ C:/Users/M69710/.mchp_packs/ARM/CMSIS/5.9.0/CMSIS/Core_A/Include/core_ca.h:939:     log++;
	.loc 2 939 8 view .LVU636
	uxtb	r3, r3	@ log, tmp184
.LVL138:
	.loc 2 940 5 is_stmt 1 view .LVU637
@ C:/Users/M69710/.mchp_packs/ARM/CMSIS/5.9.0/CMSIS/Core_A/Include/core_ca.h:937:   while(t > 1U)
	.loc 2 937 8 is_stmt 0 view .LVU638
	bne	.L127		@,
	.loc 2 942 3 is_stmt 1 view .LVU639
@ C:/Users/M69710/.mchp_packs/ARM/CMSIS/5.9.0/CMSIS/Core_A/Include/core_ca.h:942:   if (n & 1U) { log++; }
	.loc 2 942 6 is_stmt 0 view .LVU640
	tst	r8, #1	@ num_ways,
	beq	.L111		@,
	.loc 2 942 17 is_stmt 1 view .LVU641
@ C:/Users/M69710/.mchp_packs/ARM/CMSIS/5.9.0/CMSIS/Core_A/Include/core_ca.h:942:   if (n & 1U) { log++; }
	.loc 2 942 20 is_stmt 0 view .LVU642
	add	r3, r0, #2	@ tmp186, log,
.LVL139:
	.loc 2 942 20 view .LVU643
	uxtb	r3, r3	@ log, tmp186
.LVL140:
.L111:
	.loc 2 942 20 view .LVU644
.LBE559:
.LBE558:
	.loc 2 969 3 is_stmt 1 view .LVU645
@ C:/Users/M69710/.mchp_packs/ARM/CMSIS/5.9.0/CMSIS/Core_A/Include/core_ca.h:969:   if ((log2_num_ways < 0) || (log2_num_ways > 32)) {
	.loc 2 969 6 is_stmt 0 view .LVU646
	cmp	r3, #32	@ log,
	bhi	.L108		@,
	.loc 2 969 6 view .LVU647
	rsb	r8, r3, #32	@ _168, log,
.LVL141:
.L109:
	.loc 2 972 3 is_stmt 1 view .LVU648
	.loc 2 973 3 view .LVU649
.LBB561:
	.loc 2 973 7 view .LVU650
	and	r0, r1, #7	@ tmp215, result,
.LVL142:
	.loc 2 973 7 is_stmt 0 view .LVU651
.LBE561:
@ C:/Users/M69710/.mchp_packs/ARM/CMSIS/5.9.0/CMSIS/Core_A/Include/core_ca.h:967:   log2_linesize = (ccsidr & 0x00000007U) + 2U + 2U;
	.loc 2 967 17 view .LVU652
	add	r0, r0, #4	@ log2_linesize, tmp215,
@ C:/Users/M69710/.mchp_packs/ARM/CMSIS/5.9.0/CMSIS/Core_A/Include/core_ca.h:965:   num_sets = ((ccsidr & 0x0FFFE000U) >> 13U) + 1U;
	.loc 2 965 38 view .LVU653
	ubfx	r9, r1, #13, #15	@ _170, result,,
.LVL143:
.L114:
.LBB567:
	.loc 2 975 5 is_stmt 1 view .LVU654
.LBB562:
	.loc 2 975 9 view .LVU655
	.loc 2 975 9 is_stmt 0 view .LVU656
	orr	r1, r4, ip, lsl r8	@ _135, Dummy, way,
@ C:/Users/M69710/.mchp_packs/ARM/CMSIS/5.9.0/CMSIS/Core_A/Include/core_ca.h:975:     for(int32_t set = num_sets-1; set >= 0; set--)
	.loc 2 975 17 view .LVU657
	mov	r3, r9	@ set, _170
.L113:
.LVL144:
	.loc 2 977 7 is_stmt 1 view .LVU658
	.loc 2 978 7 view .LVU659
	.loc 2 981 18 view .LVU660
.LBB563:
.LBI563:
	.loc 3 500 51 view .LVU661
.LBB564:
	.loc 3 503 3 view .LVU662
.LBE564:
.LBE563:
@ C:/Users/M69710/.mchp_packs/ARM/CMSIS/5.9.0/CMSIS/Core_A/Include/core_ca.h:977:       Dummy = (level << 1U) | (((uint32_t)set) << log2_linesize) | (((uint32_t)way) << shift_way);
	.loc 2 977 13 is_stmt 0 view .LVU663
	orr	r2, r1, r3, lsl r0	@ Dummy, _135, set,
.LBB566:
.LBB565:
@ C:/Users/M69710/.mchp_packs/ARM/CMSIS/5.9.0/CMSIS/Core_A/Include/cmsis_cp15.h:503:   __set_CP(15, 0, value, 7, 10, 2);
	.loc 3 503 3 view .LVU664
	.syntax divided
@ 503 "C:/Users/M69710/.mchp_packs/ARM/CMSIS/5.9.0/CMSIS/Core_A/Include/cmsis_cp15.h" 1
	MCR p15, 0, r2, c7, c10, 2	@ Dummy
@ 0 "" 2
	.arm
	.syntax unified
.LBE565:
.LBE566:
@ C:/Users/M69710/.mchp_packs/ARM/CMSIS/5.9.0/CMSIS/Core_A/Include/core_ca.h:975:     for(int32_t set = num_sets-1; set >= 0; set--)
	.loc 2 975 5 view .LVU665
	subs	r3, r3, #1	@ set, set,
.LVL145:
	.loc 2 975 5 view .LVU666
	bcs	.L113		@,
.LBE562:
@ C:/Users/M69710/.mchp_packs/ARM/CMSIS/5.9.0/CMSIS/Core_A/Include/core_ca.h:973:   for(int32_t way = num_ways-1; way >= 0; way--)
	.loc 2 973 3 view .LVU667
	subs	ip, ip, #1	@ way, way,
.LVL146:
	.loc 2 973 3 view .LVU668
	bcs	.L114		@,
.LBE567:
	.loc 2 986 3 is_stmt 1 view .LVU669
.LBB568:
.LBI568:
	.loc 4 374 51 view .LVU670
.LBB569:
	.loc 4 376 3 view .LVU671
	.syntax divided
@ 376 "C:/Users/M69710/.mchp_packs/ARM/CMSIS/5.9.0/CMSIS/Core_A/Include/cmsis_gcc.h" 1
	dmb 0xF	
@ 0 "" 2
.LVL147:
	.arm
	.syntax unified
.L108:
	.loc 4 376 3 is_stmt 0 view .LVU672
.LBE569:
.LBE568:
.LBE553:
.LBE552:
@ C:/Users/M69710/.mchp_packs/ARM/CMSIS/5.9.0/CMSIS/Core_A/Include/core_ca.h:997:   for(uint32_t i = 0U; i<7U; i++)
	.loc 2 997 31 view .LVU673
	add	lr, lr, #1	@ i, i,
.LVL148:
@ C:/Users/M69710/.mchp_packs/ARM/CMSIS/5.9.0/CMSIS/Core_A/Include/core_ca.h:997:   for(uint32_t i = 0U; i<7U; i++)
	.loc 2 997 3 view .LVU674
	cmp	lr, #7	@ i,
	bne	.L115		@,
.LVL149:
	.loc 2 997 3 view .LVU675
.LBE551:
.LBE548:
.LBE547:
.LBE576:
	.loc 1 208 9 is_stmt 1 view .LVU676
.LBB577:
.LBI577:
	.loc 3 180 51 view .LVU677
.LBB578:
	.loc 3 182 3 view .LVU678
.LBE578:
.LBE577:
@ ../src/config/sama5d29_curiosity/peripheral/mmu/plib_mmu.c:208:         __set_SCTLR(sctlr & ~SCTLR_C_Msk);
	.loc 1 208 9 is_stmt 0 view .LVU679
	bic	r7, r7, #4	@ tmp194, result,
.LVL150:
.LBB580:
.LBB579:
@ C:/Users/M69710/.mchp_packs/ARM/CMSIS/5.9.0/CMSIS/Core_A/Include/cmsis_cp15.h:182:   __set_CP(15, 0, sctlr, 1, 0, 0);
	.loc 3 182 3 view .LVU680
	.syntax divided
@ 182 "C:/Users/M69710/.mchp_packs/ARM/CMSIS/5.9.0/CMSIS/Core_A/Include/cmsis_cp15.h" 1
	MCR p15, 0, r7, c1, c0, 0	@ tmp194
@ 0 "" 2
.LVL151:
	.loc 3 182 3 view .LVU681
	.arm
	.syntax unified
.LBE579:
.LBE580:
	.loc 1 209 9 is_stmt 1 view .LVU682
.LBB581:
.LBI581:
	.loc 2 1019 51 view .LVU683
.LBE581:
	.loc 2 1020 3 view .LVU684
.LBB608:
.LBB582:
.LBI582:
	.loc 2 993 51 view .LVU685
.LBB583:
	.loc 2 994 3 view .LVU686
	.loc 2 995 3 view .LVU687
	.loc 2 996 3 view .LVU688
.LBB584:
.LBI584:
	.loc 3 482 55 view .LVU689
.LBB585:
	.loc 3 484 3 view .LVU690
	.loc 3 486 3 view .LVU691
	.syntax divided
@ 486 "C:/Users/M69710/.mchp_packs/ARM/CMSIS/5.9.0/CMSIS/Core_A/Include/cmsis_cp15.h" 1
	MRC p15, 1, r7, c0, c0, 1	@ result
@ 0 "" 2
.LVL152:
	.loc 3 487 3 view .LVU692
	.loc 3 487 3 is_stmt 0 view .LVU693
	.arm
	.syntax unified
.LBE585:
.LBE584:
	.loc 2 997 3 is_stmt 1 view .LVU694
.LBB586:
	.loc 2 997 7 view .LVU695
@ C:/Users/M69710/.mchp_packs/ARM/CMSIS/5.9.0/CMSIS/Core_A/Include/core_ca.h:997:   for(uint32_t i = 0U; i<7U; i++)
	.loc 2 997 16 is_stmt 0 view .LVU696
	mov	r4, #0	@ i,
@ C:/Users/M69710/.mchp_packs/ARM/CMSIS/5.9.0/CMSIS/Core_A/Include/core_ca.h:999:     cache_type = (clidr >> i*3U) & 0x7UL;
	.loc 2 999 25 view .LVU697
	mov	r6, #3	@ tmp197,
.LVL153:
.L124:
	.loc 2 999 5 is_stmt 1 view .LVU698
	.loc 2 1000 5 view .LVU699
@ C:/Users/M69710/.mchp_packs/ARM/CMSIS/5.9.0/CMSIS/Core_A/Include/core_ca.h:999:     cache_type = (clidr >> i*3U) & 0x7UL;
	.loc 2 999 25 is_stmt 0 view .LVU700
	mul	r3, r6, r4	@ tmp196, tmp197, i
	lsr	r3, r7, r3	@ tmp198, result, tmp196
@ C:/Users/M69710/.mchp_packs/ARM/CMSIS/5.9.0/CMSIS/Core_A/Include/core_ca.h:999:     cache_type = (clidr >> i*3U) & 0x7UL;
	.loc 2 999 16 view .LVU701
	and	r3, r3, #7	@ cache_type, tmp198,
@ C:/Users/M69710/.mchp_packs/ARM/CMSIS/5.9.0/CMSIS/Core_A/Include/core_ca.h:1000:     if ((cache_type >= 2U) && (cache_type <= 4U))
	.loc 2 1000 28 view .LVU702
	sub	r3, r3, #2	@ tmp200, cache_type,
@ C:/Users/M69710/.mchp_packs/ARM/CMSIS/5.9.0/CMSIS/Core_A/Include/core_ca.h:1000:     if ((cache_type >= 2U) && (cache_type <= 4U))
	.loc 2 1000 8 view .LVU703
	cmp	r3, #2	@ tmp200,
	bhi	.L117		@,
	.loc 2 1002 7 is_stmt 1 view .LVU704
.LVL154:
.LBB587:
.LBI587:
	.loc 2 950 51 view .LVU705
.LBB588:
	.loc 2 952 3 view .LVU706
	.loc 2 953 3 view .LVU707
	.loc 2 954 3 view .LVU708
	.loc 2 955 3 view .LVU709
	.loc 2 956 3 view .LVU710
	.loc 2 957 3 view .LVU711
	.loc 2 958 4 view .LVU712
	.loc 2 960 3 view .LVU713
	lsl	r5, r4, #1	@ Dummy, i,
.LVL155:
	.loc 2 962 3 view .LVU714
.LBB589:
.LBI589:
	.loc 3 442 51 view .LVU715
.LBB590:
	.loc 3 445 3 view .LVU716
	.syntax divided
@ 445 "C:/Users/M69710/.mchp_packs/ARM/CMSIS/5.9.0/CMSIS/Core_A/Include/cmsis_cp15.h" 1
	MCR p15, 2, r5, c0, c0, 0	@ Dummy
@ 0 "" 2
.LVL156:
	.loc 3 445 3 is_stmt 0 view .LVU717
	.arm
	.syntax unified
.LBE590:
.LBE589:
	.loc 2 964 3 is_stmt 1 view .LVU718
.LBB591:
.LBI591:
	.loc 3 471 55 view .LVU719
.LBB592:
	.loc 3 473 3 view .LVU720
	.loc 3 475 3 view .LVU721
	.syntax divided
@ 475 "C:/Users/M69710/.mchp_packs/ARM/CMSIS/5.9.0/CMSIS/Core_A/Include/cmsis_cp15.h" 1
	MRC p15, 1, r8, c0, c0, 0	@ result
@ 0 "" 2
.LVL157:
	.loc 3 476 3 view .LVU722
	.loc 3 476 3 is_stmt 0 view .LVU723
	.arm
	.syntax unified
.LBE592:
.LBE591:
	.loc 2 965 3 is_stmt 1 view .LVU724
	.loc 2 966 3 view .LVU725
@ C:/Users/M69710/.mchp_packs/ARM/CMSIS/5.9.0/CMSIS/Core_A/Include/core_ca.h:966:   num_ways = ((ccsidr & 0x00001FF8U) >> 3U) + 1U;
	.loc 2 966 38 is_stmt 0 view .LVU726
	ubfx	lr, r8, #3, #10	@ _17, result,,
@ C:/Users/M69710/.mchp_packs/ARM/CMSIS/5.9.0/CMSIS/Core_A/Include/core_ca.h:966:   num_ways = ((ccsidr & 0x00001FF8U) >> 3U) + 1U;
	.loc 2 966 12 view .LVU727
	add	r0, lr, #1	@ num_ways, _17,
.LVL158:
	.loc 2 967 3 is_stmt 1 view .LVU728
	.loc 2 968 3 view .LVU729
.LBB593:
.LBI593:
	.loc 2 930 54 view .LVU730
.LBB594:
	.loc 2 932 3 view .LVU731
@ C:/Users/M69710/.mchp_packs/ARM/CMSIS/5.9.0/CMSIS/Core_A/Include/core_ca.h:932:   if (n < 2U) {
	.loc 2 932 6 is_stmt 0 view .LVU732
	cmp	r0, #1	@ num_ways,
	beq	.L128		@,
	mov	r2, r0	@ t, num_ways
@ C:/Users/M69710/.mchp_packs/ARM/CMSIS/5.9.0/CMSIS/Core_A/Include/core_ca.h:935:   uint8_t log = 0U;
	.loc 2 935 11 view .LVU733
	mov	r1, #0	@ log,
	b	.L119		@
.LVL159:
.L129:
@ C:/Users/M69710/.mchp_packs/ARM/CMSIS/5.9.0/CMSIS/Core_A/Include/core_ca.h:939:     log++;
	.loc 2 939 8 view .LVU734
	mov	r1, r3	@ log, log
.LVL160:
.L119:
	.loc 2 939 5 is_stmt 1 view .LVU735
@ C:/Users/M69710/.mchp_packs/ARM/CMSIS/5.9.0/CMSIS/Core_A/Include/core_ca.h:940:     t >>= 1U;
	.loc 2 940 7 is_stmt 0 view .LVU736
	lsr	r2, r2, #1	@ t, t,
.LVL161:
@ C:/Users/M69710/.mchp_packs/ARM/CMSIS/5.9.0/CMSIS/Core_A/Include/core_ca.h:939:     log++;
	.loc 2 939 8 view .LVU737
	add	r3, r1, #1	@ tmp204, log,
@ C:/Users/M69710/.mchp_packs/ARM/CMSIS/5.9.0/CMSIS/Core_A/Include/core_ca.h:937:   while(t > 1U)
	.loc 2 937 8 view .LVU738
	cmp	r2, #1	@ t,
@ C:/Users/M69710/.mchp_packs/ARM/CMSIS/5.9.0/CMSIS/Core_A/Include/core_ca.h:939:     log++;
	.loc 2 939 8 view .LVU739
	uxtb	r3, r3	@ log, tmp204
.LVL162:
	.loc 2 940 5 is_stmt 1 view .LVU740
@ C:/Users/M69710/.mchp_packs/ARM/CMSIS/5.9.0/CMSIS/Core_A/Include/core_ca.h:937:   while(t > 1U)
	.loc 2 937 8 is_stmt 0 view .LVU741
	bne	.L129		@,
	.loc 2 942 3 is_stmt 1 view .LVU742
@ C:/Users/M69710/.mchp_packs/ARM/CMSIS/5.9.0/CMSIS/Core_A/Include/core_ca.h:942:   if (n & 1U) { log++; }
	.loc 2 942 6 is_stmt 0 view .LVU743
	tst	r0, #1	@ num_ways,
	beq	.L120		@,
	.loc 2 942 17 is_stmt 1 view .LVU744
@ C:/Users/M69710/.mchp_packs/ARM/CMSIS/5.9.0/CMSIS/Core_A/Include/core_ca.h:942:   if (n & 1U) { log++; }
	.loc 2 942 20 is_stmt 0 view .LVU745
	add	r3, r1, #2	@ tmp206, log,
.LVL163:
	.loc 2 942 20 view .LVU746
	uxtb	r3, r3	@ log, tmp206
.LVL164:
.L120:
	.loc 2 942 20 view .LVU747
.LBE594:
.LBE593:
	.loc 2 969 3 is_stmt 1 view .LVU748
@ C:/Users/M69710/.mchp_packs/ARM/CMSIS/5.9.0/CMSIS/Core_A/Include/core_ca.h:969:   if ((log2_num_ways < 0) || (log2_num_ways > 32)) {
	.loc 2 969 6 is_stmt 0 view .LVU749
	cmp	r3, #32	@ log,
	bhi	.L117		@,
	.loc 2 969 6 view .LVU750
	rsb	ip, r3, #32	@ prephitmp_104, log,
.LVL165:
.L118:
	.loc 2 972 3 is_stmt 1 view .LVU751
	.loc 2 973 3 view .LVU752
.LBB596:
	.loc 2 973 7 view .LVU753
	and	r0, r8, #7	@ tmp214, result,
.LVL166:
	.loc 2 973 7 is_stmt 0 view .LVU754
.LBE596:
@ C:/Users/M69710/.mchp_packs/ARM/CMSIS/5.9.0/CMSIS/Core_A/Include/core_ca.h:967:   log2_linesize = (ccsidr & 0x00000007U) + 2U + 2U;
	.loc 2 967 17 view .LVU755
	add	r0, r0, #4	@ log2_linesize, tmp214,
@ C:/Users/M69710/.mchp_packs/ARM/CMSIS/5.9.0/CMSIS/Core_A/Include/core_ca.h:965:   num_sets = ((ccsidr & 0x0FFFE000U) >> 13U) + 1U;
	.loc 2 965 38 view .LVU756
	ubfx	r8, r8, #13, #15	@ _154, result,,
.LVL167:
.L123:
.LBB602:
	.loc 2 975 5 is_stmt 1 view .LVU757
.LBB597:
	.loc 2 975 9 view .LVU758
	.loc 2 975 9 is_stmt 0 view .LVU759
	orr	r1, r5, lr, lsl ip	@ _134, Dummy, way,
@ C:/Users/M69710/.mchp_packs/ARM/CMSIS/5.9.0/CMSIS/Core_A/Include/core_ca.h:975:     for(int32_t set = num_sets-1; set >= 0; set--)
	.loc 2 975 17 view .LVU760
	mov	r3, r8	@ set, _154
.L122:
.LVL168:
	.loc 2 977 7 is_stmt 1 view .LVU761
	.loc 2 978 7 view .LVU762
	.loc 2 980 18 view .LVU763
.LBB598:
.LBI598:
	.loc 3 492 51 view .LVU764
.LBB599:
	.loc 3 495 3 view .LVU765
.LBE599:
.LBE598:
@ C:/Users/M69710/.mchp_packs/ARM/CMSIS/5.9.0/CMSIS/Core_A/Include/core_ca.h:977:       Dummy = (level << 1U) | (((uint32_t)set) << log2_linesize) | (((uint32_t)way) << shift_way);
	.loc 2 977 13 is_stmt 0 view .LVU766
	orr	r2, r1, r3, lsl r0	@ Dummy, _134, set,
.LBB601:
.LBB600:
@ C:/Users/M69710/.mchp_packs/ARM/CMSIS/5.9.0/CMSIS/Core_A/Include/cmsis_cp15.h:495:   __set_CP(15, 0, value, 7, 6, 2);
	.loc 3 495 3 view .LVU767
	.syntax divided
@ 495 "C:/Users/M69710/.mchp_packs/ARM/CMSIS/5.9.0/CMSIS/Core_A/Include/cmsis_cp15.h" 1
	MCR p15, 0, r2, c7, c6, 2	@ Dummy
@ 0 "" 2
	.arm
	.syntax unified
.LBE600:
.LBE601:
@ C:/Users/M69710/.mchp_packs/ARM/CMSIS/5.9.0/CMSIS/Core_A/Include/core_ca.h:975:     for(int32_t set = num_sets-1; set >= 0; set--)
	.loc 2 975 5 view .LVU768
	subs	r3, r3, #1	@ set, set,
.LVL169:
	.loc 2 975 5 view .LVU769
	bcs	.L122		@,
.LBE597:
@ C:/Users/M69710/.mchp_packs/ARM/CMSIS/5.9.0/CMSIS/Core_A/Include/core_ca.h:973:   for(int32_t way = num_ways-1; way >= 0; way--)
	.loc 2 973 3 view .LVU770
	subs	lr, lr, #1	@ way, way,
.LVL170:
	.loc 2 973 3 view .LVU771
	bcs	.L123		@,
.LBE602:
	.loc 2 986 3 is_stmt 1 view .LVU772
.LBB603:
.LBI603:
	.loc 4 374 51 view .LVU773
.LBB604:
	.loc 4 376 3 view .LVU774
	.syntax divided
@ 376 "C:/Users/M69710/.mchp_packs/ARM/CMSIS/5.9.0/CMSIS/Core_A/Include/cmsis_gcc.h" 1
	dmb 0xF	
@ 0 "" 2
.LVL171:
	.arm
	.syntax unified
.L117:
	.loc 4 376 3 is_stmt 0 view .LVU775
.LBE604:
.LBE603:
.LBE588:
.LBE587:
@ C:/Users/M69710/.mchp_packs/ARM/CMSIS/5.9.0/CMSIS/Core_A/Include/core_ca.h:997:   for(uint32_t i = 0U; i<7U; i++)
	.loc 2 997 31 view .LVU776
	add	r4, r4, #1	@ i, i,
.LVL172:
@ C:/Users/M69710/.mchp_packs/ARM/CMSIS/5.9.0/CMSIS/Core_A/Include/core_ca.h:997:   for(uint32_t i = 0U; i<7U; i++)
	.loc 2 997 3 view .LVU777
	cmp	r4, #7	@ i,
	bne	.L124		@,
	pop	{r4, r5, r6, r7, r8, r9, pc}	@
.LVL173:
.L128:
.LBB607:
.LBB606:
.LBB605:
.LBB595:
@ C:/Users/M69710/.mchp_packs/ARM/CMSIS/5.9.0/CMSIS/Core_A/Include/core_ca.h:932:   if (n < 2U) {
	.loc 2 932 6 view .LVU778
	mov	ip, #32	@ prephitmp_104,
	b	.L118		@
.LVL174:
.L126:
	.loc 2 932 6 view .LVU779
.LBE595:
.LBE605:
.LBE606:
.LBE607:
.LBE586:
.LBE583:
.LBE582:
.LBE608:
.LBB609:
.LBB575:
.LBB574:
.LBB573:
.LBB572:
.LBB571:
.LBB570:
.LBB560:
	mov	r8, #32	@ _168,
.LVL175:
	.loc 2 932 6 view .LVU780
	b	.L109		@
.LBE560:
.LBE570:
.LBE571:
.LBE572:
.LBE573:
.LBE574:
.LBE575:
.LBE609:
	.cfi_endproc
.LFE147:
	.size	dcache_Disable, .-dcache_Disable
	.section	.text.MMU_Initialize,code
	.align	2
	.global	MMU_Initialize
	.syntax unified
	.arm
	.fpu neon-vfpv4
	.type	MMU_Initialize, %function
MMU_Initialize:
.LFB148:
	.loc 1 235 1 is_stmt 1 view -0
	.cfi_startproc
	@ args = 0, pretend = 0, frame = 0
	@ frame_needed = 0, uses_anonymous_args = 0
	.loc 1 236 5 view .LVU782
	.loc 1 239 5 view .LVU783
.LVL176:
@ ../src/config/sama5d29_curiosity/peripheral/mmu/plib_mmu.c:235: {
	.loc 1 235 1 is_stmt 0 view .LVU784
	push	{r4, lr}	@
.LCFI11:
	.cfi_def_cfa_offset 8
	.cfi_offset 4, -8
	.cfi_offset 14, -4
	movw	r4, #:lower16:tlb	@ tmp305,
	movt	r4, #:upper16:tlb	@ tmp305,
	mov	r2, #16384	@,
	mov	r1, #0	@,
	mov	r0, r4	@, tmp305
	bl	memset		@
.LVL177:
	.loc 1 246 5 is_stmt 1 view .LVU785
	.loc 1 254 5 view .LVU786
	.loc 1 262 5 view .LVU787
	.loc 1 270 5 view .LVU788
	.loc 1 278 5 view .LVU789
	.loc 1 286 5 view .LVU790
	.loc 1 294 5 view .LVU791
	.loc 1 302 5 view .LVU792
@ ../src/config/sama5d29_curiosity/peripheral/mmu/plib_mmu.c:310:     tlb[0x008] = TTB_SECT_ADDR(0x00800000U)
	.loc 1 310 16 is_stmt 0 view .LVU793
	movw	ip, #3574	@ tmp174,
@ ../src/config/sama5d29_curiosity/peripheral/mmu/plib_mmu.c:320:         tlb[addr] = TTB_SECT_ADDR(addr << 20U)
	.loc 1 320 19 view .LVU794
	mov	r0, ip	@ tmp176, tmp174
@ ../src/config/sama5d29_curiosity/peripheral/mmu/plib_mmu.c:246:     tlb[0x000] = TTB_SECT_ADDR(0x00000000U)
	.loc 1 246 16 view .LVU795
	vldr	d16, .L168	@,
	vldr	d17, .L168+8	@,
@ ../src/config/sama5d29_curiosity/peripheral/mmu/plib_mmu.c:320:         tlb[addr] = TTB_SECT_ADDR(addr << 20U)
	.loc 1 320 19 view .LVU796
	mov	r1, ip	@ tmp178, tmp176
@ ../src/config/sama5d29_curiosity/peripheral/mmu/plib_mmu.c:246:     tlb[0x000] = TTB_SECT_ADDR(0x00000000U)
	.loc 1 246 16 view .LVU797
	vst1.64	{d16-d17}, [r4:128]	@ tmp170, MEM[(long unsigned int *)&tlb]
@ ../src/config/sama5d29_curiosity/peripheral/mmu/plib_mmu.c:310:     tlb[0x008] = TTB_SECT_ADDR(0x00800000U)
	.loc 1 310 16 view .LVU798
	movt	ip, 128	@ tmp174,
@ ../src/config/sama5d29_curiosity/peripheral/mmu/plib_mmu.c:246:     tlb[0x000] = TTB_SECT_ADDR(0x00000000U)
	.loc 1 246 16 view .LVU799
	vldr	d16, .L168+16	@,
	vldr	d17, .L168+24	@,
@ ../src/config/sama5d29_curiosity/peripheral/mmu/plib_mmu.c:320:         tlb[addr] = TTB_SECT_ADDR(addr << 20U)
	.loc 1 320 19 view .LVU800
	movt	r0, 160	@ tmp176,
@ ../src/config/sama5d29_curiosity/peripheral/mmu/plib_mmu.c:246:     tlb[0x000] = TTB_SECT_ADDR(0x00000000U)
	.loc 1 246 16 view .LVU801
	vstr	d16, [r4, #16]	@, MEM[(long unsigned int *)&tlb + 16B]
	vstr	d17, [r4, #24]	@, MEM[(long unsigned int *)&tlb + 16B]
	.loc 1 310 5 is_stmt 1 view .LVU802
@ ../src/config/sama5d29_curiosity/peripheral/mmu/plib_mmu.c:320:         tlb[addr] = TTB_SECT_ADDR(addr << 20U)
	.loc 1 320 19 is_stmt 0 view .LVU803
	movt	r1, 176	@ tmp178,
	vldr	d18, .L168+32	@,
	vldr	d19, .L168+40	@,
	add	r3, r4, #1024	@ vectp_tlb.195, tmp305,
	vmov.i32	q11, #4  @ v4si	@ tmp179,
	add	r2, r4, #2048	@ tmp299, tmp305,
@ ../src/config/sama5d29_curiosity/peripheral/mmu/plib_mmu.c:336:                     | TTB_TYPE_SECT;
	.loc 1 336 21 view .LVU804
	vldr	d20, .L168+48	@,
	vldr	d21, .L168+56	@,
@ ../src/config/sama5d29_curiosity/peripheral/mmu/plib_mmu.c:310:     tlb[0x008] = TTB_SECT_ADDR(0x00800000U)
	.loc 1 310 16 view .LVU805
	str	ip, [r4, #32]	@ tmp174, tlb
	.loc 1 318 5 is_stmt 1 view .LVU806
.LVL178:
	.loc 1 320 9 view .LVU807
@ ../src/config/sama5d29_curiosity/peripheral/mmu/plib_mmu.c:320:         tlb[addr] = TTB_SECT_ADDR(addr << 20U)
	.loc 1 320 19 is_stmt 0 view .LVU808
	strd	r0, [r4, #40]	@, tmp305,
.LVL179:
.L144:
	.loc 1 331 9 is_stmt 1 discriminator 3 view .LVU809
@ ../src/config/sama5d29_curiosity/peripheral/mmu/plib_mmu.c:331:         tlb[addr] = TTB_SECT_ADDR(addr << 20U)
	.loc 1 331 28 is_stmt 0 discriminator 3 view .LVU810
	vshl.i32	q8, q9, #20	@ vect__3.193, vect_vec_iv_.192,
@ ../src/config/sama5d29_curiosity/peripheral/mmu/plib_mmu.c:336:                     | TTB_TYPE_SECT;
	.loc 1 336 21 discriminator 3 view .LVU811
	vorr	q8, q8, q10	@ vect__4.194, vect__3.193, tmp182
@ ../src/config/sama5d29_curiosity/peripheral/mmu/plib_mmu.c:331:         tlb[addr] = TTB_SECT_ADDR(addr << 20U)
	.loc 1 331 19 discriminator 3 view .LVU812
	vst1.64	{d16-d17}, [r3:64]!	@ vect__4.194, MEM[base: vectp_tlb.195_287, offset: 0B]
	.loc 1 331 19 discriminator 3 view .LVU813
	cmp	r3, r2	@ vectp_tlb.195, tmp299
	vadd.i32	q9, q9, q11	@ vect_vec_iv_.192, vect_vec_iv_.192, tmp179
	bne	.L144		@,
	add	r1, r3, #2048	@ tmp296, vectp_tlb.195,
	vldr	d18, .L168+64	@,
	vldr	d19, .L168+72	@,
	mov	r3, r1	@ vectp_tlb.190, tmp296
	vmov.i32	q11, #4  @ v4si	@ tmp185,
	add	r2, r1, #2048	@ tmp295, tmp296,
@ ../src/config/sama5d29_curiosity/peripheral/mmu/plib_mmu.c:347:                     | TTB_TYPE_SECT;
	.loc 1 347 21 view .LVU814
	vldr	d20, .L168+80	@,
	vldr	d21, .L168+88	@,
.L145:
	.loc 1 342 9 is_stmt 1 discriminator 3 view .LVU815
@ ../src/config/sama5d29_curiosity/peripheral/mmu/plib_mmu.c:342:         tlb[addr] = TTB_SECT_ADDR(addr << 20U)
	.loc 1 342 28 is_stmt 0 discriminator 3 view .LVU816
	vshl.i32	q8, q9, #20	@ vect__5.188, vect_vec_iv_.187,
@ ../src/config/sama5d29_curiosity/peripheral/mmu/plib_mmu.c:347:                     | TTB_TYPE_SECT;
	.loc 1 347 21 discriminator 3 view .LVU817
	vorr	q8, q8, q10	@ vect__6.189, vect__5.188, tmp188
@ ../src/config/sama5d29_curiosity/peripheral/mmu/plib_mmu.c:342:         tlb[addr] = TTB_SECT_ADDR(addr << 20U)
	.loc 1 342 19 discriminator 3 view .LVU818
	vst1.64	{d16-d17}, [r3:64]!	@ vect__6.189, MEM[base: vectp_tlb.190_274, offset: 0B]
	.loc 1 342 19 discriminator 3 view .LVU819
	cmp	r3, r2	@ vectp_tlb.190, tmp295
	vadd.i32	q9, q9, q11	@ vect_vec_iv_.187, vect_vec_iv_.187, tmp185
	bne	.L145		@,
	ldr	r2, .L168+320	@ tmp301,
	vldr	d18, .L168+96	@,
	vldr	d19, .L168+104	@,
	vmov.i32	q11, #4  @ v4si	@ tmp191,
@ ../src/config/sama5d29_curiosity/peripheral/mmu/plib_mmu.c:358:                     | TTB_TYPE_SECT;
	.loc 1 358 21 view .LVU820
	vldr	d20, .L168+48	@,
	vldr	d21, .L168+56	@,
.L146:
	.loc 1 353 9 is_stmt 1 discriminator 3 view .LVU821
@ ../src/config/sama5d29_curiosity/peripheral/mmu/plib_mmu.c:353:         tlb[addr] = TTB_SECT_ADDR(addr << 20U)
	.loc 1 353 28 is_stmt 0 discriminator 3 view .LVU822
	vshl.i32	q8, q9, #20	@ vect__7.183, vect_vec_iv_.182,
@ ../src/config/sama5d29_curiosity/peripheral/mmu/plib_mmu.c:358:                     | TTB_TYPE_SECT;
	.loc 1 358 21 discriminator 3 view .LVU823
	vorr	q8, q8, q10	@ vect__8.184, vect__7.183, tmp194
@ ../src/config/sama5d29_curiosity/peripheral/mmu/plib_mmu.c:353:         tlb[addr] = TTB_SECT_ADDR(addr << 20U)
	.loc 1 353 19 discriminator 3 view .LVU824
	vst1.64	{d16-d17}, [r3:64]!	@ vect__8.184, MEM[base: vectp_tlb.185_261, offset: 0B]
	.loc 1 353 19 discriminator 3 view .LVU825
	cmp	r3, r2	@ vectp_tlb.190, tmp301
	vadd.i32	q9, q9, q11	@ vect_vec_iv_.182, vect_vec_iv_.182, tmp191
	bne	.L146		@,
	ldr	r2, .L168+324	@ tmp304,
	vldr	d18, .L168+112	@,
	vldr	d19, .L168+120	@,
	vmov.i32	q11, #4  @ v4si	@ tmp197,
@ ../src/config/sama5d29_curiosity/peripheral/mmu/plib_mmu.c:369:                     | TTB_TYPE_SECT;
	.loc 1 369 21 view .LVU826
	vldr	d20, .L168+48	@,
	vldr	d21, .L168+56	@,
.L147:
	.loc 1 364 9 is_stmt 1 discriminator 3 view .LVU827
@ ../src/config/sama5d29_curiosity/peripheral/mmu/plib_mmu.c:364:         tlb[addr] = TTB_SECT_ADDR(addr << 20U)
	.loc 1 364 28 is_stmt 0 discriminator 3 view .LVU828
	vshl.i32	q8, q9, #20	@ vect__9.178, vect_vec_iv_.177,
@ ../src/config/sama5d29_curiosity/peripheral/mmu/plib_mmu.c:369:                     | TTB_TYPE_SECT;
	.loc 1 369 21 discriminator 3 view .LVU829
	vorr	q8, q8, q10	@ vect__10.179, vect__9.178, tmp200
@ ../src/config/sama5d29_curiosity/peripheral/mmu/plib_mmu.c:364:         tlb[addr] = TTB_SECT_ADDR(addr << 20U)
	.loc 1 364 19 discriminator 3 view .LVU830
	vst1.64	{d16-d17}, [r3:64]!	@ vect__10.179, MEM[base: vectp_tlb.180_248, offset: 0B]
	.loc 1 364 19 discriminator 3 view .LVU831
	cmp	r3, r2	@ vectp_tlb.190, tmp304
	vadd.i32	q9, q9, q11	@ vect_vec_iv_.177, vect_vec_iv_.177, tmp197
	bne	.L147		@,
	ldr	r2, .L168+328	@ tmp298,
	vldr	d18, .L168+128	@,
	vldr	d19, .L168+136	@,
	vmov.i32	q11, #4  @ v4si	@ tmp203,
@ ../src/config/sama5d29_curiosity/peripheral/mmu/plib_mmu.c:380:                     | TTB_TYPE_SECT;
	.loc 1 380 21 view .LVU832
	vldr	d20, .L168+48	@,
	vldr	d21, .L168+56	@,
.L148:
	.loc 1 375 9 is_stmt 1 discriminator 3 view .LVU833
@ ../src/config/sama5d29_curiosity/peripheral/mmu/plib_mmu.c:375:         tlb[addr] = TTB_SECT_ADDR(addr << 20U)
	.loc 1 375 28 is_stmt 0 discriminator 3 view .LVU834
	vshl.i32	q8, q9, #20	@ vect__11.173, vect_vec_iv_.172,
@ ../src/config/sama5d29_curiosity/peripheral/mmu/plib_mmu.c:380:                     | TTB_TYPE_SECT;
	.loc 1 380 21 discriminator 3 view .LVU835
	vorr	q8, q8, q10	@ vect__12.174, vect__11.173, tmp206
@ ../src/config/sama5d29_curiosity/peripheral/mmu/plib_mmu.c:375:         tlb[addr] = TTB_SECT_ADDR(addr << 20U)
	.loc 1 375 19 discriminator 3 view .LVU836
	vst1.64	{d16-d17}, [r3:64]!	@ vect__12.174, MEM[base: vectp_tlb.175_235, offset: 0B]
	.loc 1 375 19 discriminator 3 view .LVU837
	cmp	r3, r2	@ vectp_tlb.190, tmp298
	vadd.i32	q9, q9, q11	@ vect_vec_iv_.172, vect_vec_iv_.172, tmp203
	bne	.L148		@,
	ldr	r2, .L168+332	@ tmp302,
	vldr	d18, .L168+144	@,
	vldr	d19, .L168+152	@,
	vmov.i32	q11, #4  @ v4si	@ tmp209,
@ ../src/config/sama5d29_curiosity/peripheral/mmu/plib_mmu.c:391:                     | TTB_TYPE_SECT;
	.loc 1 391 21 view .LVU838
	vldr	d20, .L168+160	@,
	vldr	d21, .L168+168	@,
.L149:
	.loc 1 386 9 is_stmt 1 discriminator 3 view .LVU839
@ ../src/config/sama5d29_curiosity/peripheral/mmu/plib_mmu.c:386:         tlb[addr] = TTB_SECT_ADDR(addr << 20U)
	.loc 1 386 28 is_stmt 0 discriminator 3 view .LVU840
	vshl.i32	q8, q9, #20	@ vect__13.168, vect_vec_iv_.167,
@ ../src/config/sama5d29_curiosity/peripheral/mmu/plib_mmu.c:391:                     | TTB_TYPE_SECT;
	.loc 1 391 21 discriminator 3 view .LVU841
	vorr	q8, q8, q10	@ vect__14.169, vect__13.168, tmp212
@ ../src/config/sama5d29_curiosity/peripheral/mmu/plib_mmu.c:386:         tlb[addr] = TTB_SECT_ADDR(addr << 20U)
	.loc 1 386 19 discriminator 3 view .LVU842
	vst1.64	{d16-d17}, [r3:64]!	@ vect__14.169, MEM[base: vectp_tlb.170_222, offset: 0B]
	.loc 1 386 19 discriminator 3 view .LVU843
	cmp	r3, r2	@ vectp_tlb.190, tmp302
	vadd.i32	q9, q9, q11	@ vect_vec_iv_.167, vect_vec_iv_.167, tmp209
	bne	.L149		@,
	ldr	r2, .L168+336	@ tmp303,
	vldr	d18, .L168+176	@,
	vldr	d19, .L168+184	@,
	vmov.i32	q11, #4  @ v4si	@ tmp215,
@ ../src/config/sama5d29_curiosity/peripheral/mmu/plib_mmu.c:402:                     | TTB_TYPE_SECT;
	.loc 1 402 21 view .LVU844
	vldr	d20, .L168+160	@,
	vldr	d21, .L168+168	@,
.L150:
	.loc 1 397 9 is_stmt 1 discriminator 3 view .LVU845
@ ../src/config/sama5d29_curiosity/peripheral/mmu/plib_mmu.c:397:         tlb[addr] = TTB_SECT_ADDR(addr << 20U)
	.loc 1 397 28 is_stmt 0 discriminator 3 view .LVU846
	vshl.i32	q8, q9, #20	@ vect__15.163, vect_vec_iv_.162,
@ ../src/config/sama5d29_curiosity/peripheral/mmu/plib_mmu.c:402:                     | TTB_TYPE_SECT;
	.loc 1 402 21 discriminator 3 view .LVU847
	vorr	q8, q8, q10	@ vect__16.164, vect__15.163, tmp218
@ ../src/config/sama5d29_curiosity/peripheral/mmu/plib_mmu.c:397:         tlb[addr] = TTB_SECT_ADDR(addr << 20U)
	.loc 1 397 19 discriminator 3 view .LVU848
	vst1.64	{d16-d17}, [r3:64]!	@ vect__16.164, MEM[base: vectp_tlb.165_209, offset: 0B]
	.loc 1 397 19 discriminator 3 view .LVU849
	cmp	r3, r2	@ vectp_tlb.190, tmp303
	vadd.i32	q9, q9, q11	@ vect_vec_iv_.162, vect_vec_iv_.162, tmp215
	bne	.L150		@,
	.loc 1 406 5 is_stmt 1 view .LVU850
@ ../src/config/sama5d29_curiosity/peripheral/mmu/plib_mmu.c:406:     tlb[0xA00] = TTB_SECT_ADDR(0xA0000000U)
	.loc 1 406 16 is_stmt 0 view .LVU851
	movw	r0, #3570	@ tmp224,
@ ../src/config/sama5d29_curiosity/peripheral/mmu/plib_mmu.c:414:     tlb[0xB00] = TTB_SECT_ADDR(0xB0000000U)
	.loc 1 414 16 view .LVU852
	vldr	d18, .L168+192	@,
	vldr	d19, .L168+200	@,
	mov	ip, r0	@ tmp228, tmp224
	vmov.i32	q11, #4  @ v4si	@ tmp229,
@ ../src/config/sama5d29_curiosity/peripheral/mmu/plib_mmu.c:406:     tlb[0xA00] = TTB_SECT_ADDR(0xA0000000U)
	.loc 1 406 16 view .LVU853
	movt	r0, 40960	@ tmp224,
@ ../src/config/sama5d29_curiosity/peripheral/mmu/plib_mmu.c:429:                     | TTB_TYPE_SECT;
	.loc 1 429 21 view .LVU854
	vldr	d20, .L168+48	@,
	vldr	d21, .L168+56	@,
@ ../src/config/sama5d29_curiosity/peripheral/mmu/plib_mmu.c:414:     tlb[0xB00] = TTB_SECT_ADDR(0xB0000000U)
	.loc 1 414 16 view .LVU855
	ldr	r2, .L168+340	@ vectp_tlb.160,
@ ../src/config/sama5d29_curiosity/peripheral/mmu/plib_mmu.c:406:     tlb[0xA00] = TTB_SECT_ADDR(0xA0000000U)
	.loc 1 406 16 view .LVU856
	str	r0, [r3], #-2048	@ tmp224, tlb
	.loc 1 414 5 is_stmt 1 view .LVU857
@ ../src/config/sama5d29_curiosity/peripheral/mmu/plib_mmu.c:414:     tlb[0xB00] = TTB_SECT_ADDR(0xB0000000U)
	.loc 1 414 16 is_stmt 0 view .LVU858
	movt	ip, 45056	@ tmp228,
	add	r0, r2, #1024	@ tmp294, vectp_tlb.160,
	str	ip, [r3, #3072]	@ tmp228, tlb
	.loc 1 422 5 is_stmt 1 view .LVU859
.LVL180:
.L151:
	.loc 1 424 9 discriminator 3 view .LVU860
@ ../src/config/sama5d29_curiosity/peripheral/mmu/plib_mmu.c:424:         tlb[addr] = TTB_SECT_ADDR(addr << 20U)
	.loc 1 424 28 is_stmt 0 discriminator 3 view .LVU861
	vshl.i32	q8, q9, #20	@ vect__17.158, vect_vec_iv_.157,
@ ../src/config/sama5d29_curiosity/peripheral/mmu/plib_mmu.c:429:                     | TTB_TYPE_SECT;
	.loc 1 429 21 discriminator 3 view .LVU862
	vorr	q8, q8, q10	@ vect__18.159, vect__17.158, tmp232
@ ../src/config/sama5d29_curiosity/peripheral/mmu/plib_mmu.c:424:         tlb[addr] = TTB_SECT_ADDR(addr << 20U)
	.loc 1 424 19 discriminator 3 view .LVU863
	vst1.64	{d16-d17}, [r2:64]!	@ vect__18.159, MEM[base: vectp_tlb.160_196, offset: 0B]
	.loc 1 424 19 discriminator 3 view .LVU864
	cmp	r2, r0	@ vectp_tlb.160, tmp294
	vadd.i32	q9, q9, q11	@ vect_vec_iv_.157, vect_vec_iv_.157, tmp229
	bne	.L151		@,
	ldr	r3, .L168+344	@ tmp297,
	vldr	d18, .L168+208	@,
	vldr	d19, .L168+216	@,
	vmov.i32	q11, #4  @ v4si	@ tmp235,
@ ../src/config/sama5d29_curiosity/peripheral/mmu/plib_mmu.c:440:                     | TTB_TYPE_SECT;
	.loc 1 440 21 view .LVU865
	vldr	d20, .L168+160	@,
	vldr	d21, .L168+168	@,
.L152:
	.loc 1 435 9 is_stmt 1 discriminator 3 view .LVU866
@ ../src/config/sama5d29_curiosity/peripheral/mmu/plib_mmu.c:435:         tlb[addr] = TTB_SECT_ADDR(addr << 20U)
	.loc 1 435 28 is_stmt 0 discriminator 3 view .LVU867
	vshl.i32	q8, q9, #20	@ vect__19.153, vect_vec_iv_.152,
@ ../src/config/sama5d29_curiosity/peripheral/mmu/plib_mmu.c:440:                     | TTB_TYPE_SECT;
	.loc 1 440 21 discriminator 3 view .LVU868
	vorr	q8, q8, q10	@ vect__20.154, vect__19.153, tmp238
@ ../src/config/sama5d29_curiosity/peripheral/mmu/plib_mmu.c:435:         tlb[addr] = TTB_SECT_ADDR(addr << 20U)
	.loc 1 435 19 discriminator 3 view .LVU869
	vst1.64	{d16-d17}, [r2:64]!	@ vect__20.154, MEM[base: vectp_tlb.155_183, offset: 0B]
	.loc 1 435 19 discriminator 3 view .LVU870
	cmp	r2, r3	@ vectp_tlb.160, tmp297
	vadd.i32	q9, q9, q11	@ vect_vec_iv_.152, vect_vec_iv_.152, tmp235
	bne	.L152		@,
	ldr	r3, .L168+348	@ tmp300,
	vldr	d18, .L168+224	@,
	vldr	d19, .L168+232	@,
	vmov.i32	q11, #4  @ v4si	@ tmp241,
@ ../src/config/sama5d29_curiosity/peripheral/mmu/plib_mmu.c:451:                     | TTB_TYPE_SECT;
	.loc 1 451 21 view .LVU871
	vldr	d20, .L168+160	@,
	vldr	d21, .L168+168	@,
.L153:
	.loc 1 446 9 is_stmt 1 discriminator 3 view .LVU872
@ ../src/config/sama5d29_curiosity/peripheral/mmu/plib_mmu.c:446:         tlb[addr] = TTB_SECT_ADDR(addr << 20U)
	.loc 1 446 28 is_stmt 0 discriminator 3 view .LVU873
	vshl.i32	q8, q9, #20	@ vect__21.148, vect_vec_iv_.147,
@ ../src/config/sama5d29_curiosity/peripheral/mmu/plib_mmu.c:451:                     | TTB_TYPE_SECT;
	.loc 1 451 21 discriminator 3 view .LVU874
	vorr	q8, q8, q10	@ vect__22.149, vect__21.148, tmp244
@ ../src/config/sama5d29_curiosity/peripheral/mmu/plib_mmu.c:446:         tlb[addr] = TTB_SECT_ADDR(addr << 20U)
	.loc 1 446 19 discriminator 3 view .LVU875
	vst1.64	{d16-d17}, [r2:64]!	@ vect__22.149, MEM[base: vectp_tlb.150_36, offset: 0B]
	.loc 1 446 19 discriminator 3 view .LVU876
	cmp	r2, r3	@ vectp_tlb.160, tmp300
	vadd.i32	q9, q9, q11	@ vect_vec_iv_.147, vect_vec_iv_.147, tmp241
	bne	.L153		@,
	.loc 1 455 5 is_stmt 1 view .LVU877
@ ../src/config/sama5d29_curiosity/peripheral/mmu/plib_mmu.c:455:     tlb[0xF00] = TTB_SECT_ADDR(0xF0000000U)
	.loc 1 455 16 is_stmt 0 view .LVU878
	movw	r3, #3570	@ tmp250,
@ ../src/config/sama5d29_curiosity/peripheral/mmu/plib_mmu.c:482:         tlb[addr] = TTB_SECT_ADDR(addr << 20)
	.loc 1 482 19 view .LVU879
	vldr	d28, .L168+240	@,
	vldr	d29, .L168+248	@,
@ ../src/config/sama5d29_curiosity/peripheral/mmu/plib_mmu.c:455:     tlb[0xF00] = TTB_SECT_ADDR(0xF0000000U)
	.loc 1 455 16 view .LVU880
	sub	r0, r2, #2048	@ tmp249, vectp_tlb.160,
@ ../src/config/sama5d29_curiosity/peripheral/mmu/plib_mmu.c:482:         tlb[addr] = TTB_SECT_ADDR(addr << 20)
	.loc 1 482 19 view .LVU881
	vldr	d26, .L168+256	@,
	vldr	d27, .L168+264	@,
@ ../src/config/sama5d29_curiosity/peripheral/mmu/plib_mmu.c:463:     tlb[0xF80] = TTB_SECT_ADDR(0xF8000000U)
	.loc 1 463 16 view .LVU882
	mov	lr, r3	@ tmp254, tmp250
@ ../src/config/sama5d29_curiosity/peripheral/mmu/plib_mmu.c:482:         tlb[addr] = TTB_SECT_ADDR(addr << 20)
	.loc 1 482 19 view .LVU883
	vldr	d24, .L168+272	@,
	vldr	d25, .L168+280	@,
@ ../src/config/sama5d29_curiosity/peripheral/mmu/plib_mmu.c:455:     tlb[0xF00] = TTB_SECT_ADDR(0xF0000000U)
	.loc 1 455 16 view .LVU884
	movt	r3, 61440	@ tmp250,
@ ../src/config/sama5d29_curiosity/peripheral/mmu/plib_mmu.c:482:         tlb[addr] = TTB_SECT_ADDR(addr << 20)
	.loc 1 482 19 view .LVU885
	vldr	d16, .L168+288	@,
	vldr	d17, .L168+296	@,
@ ../src/config/sama5d29_curiosity/peripheral/mmu/plib_mmu.c:471:     tlb[0xFC0] = TTB_SECT_ADDR(0xFC000000U)
	.loc 1 471 16 view .LVU886
	movw	ip, #3570	@ tmp258,
@ ../src/config/sama5d29_curiosity/peripheral/mmu/plib_mmu.c:482:         tlb[addr] = TTB_SECT_ADDR(addr << 20)
	.loc 1 482 19 view .LVU887
	vldr	d18, .L168+304	@,
	vldr	d19, .L168+312	@,
@ ../src/config/sama5d29_curiosity/peripheral/mmu/plib_mmu.c:463:     tlb[0xF80] = TTB_SECT_ADDR(0xF8000000U)
	.loc 1 463 16 view .LVU888
	movt	lr, 63488	@ tmp254,
	vmov.i32	q11, #4  @ v4si	@ tmp279,
@ ../src/config/sama5d29_curiosity/peripheral/mmu/plib_mmu.c:471:     tlb[0xFC0] = TTB_SECT_ADDR(0xFC000000U)
	.loc 1 471 16 view .LVU889
	movt	ip, 64512	@ tmp258,
@ ../src/config/sama5d29_curiosity/peripheral/mmu/plib_mmu.c:498:                     | TTB_TYPE_SECT;
	.loc 1 498 21 view .LVU890
	vldr	d20, .L168+80	@,
	vldr	d21, .L168+88	@,
@ ../src/config/sama5d29_curiosity/peripheral/mmu/plib_mmu.c:455:     tlb[0xF00] = TTB_SECT_ADDR(0xF0000000U)
	.loc 1 455 16 view .LVU891
	str	r3, [r0, #3072]	@ tmp250, tlb
	.loc 1 463 5 is_stmt 1 view .LVU892
@ ../src/config/sama5d29_curiosity/peripheral/mmu/plib_mmu.c:482:         tlb[addr] = TTB_SECT_ADDR(addr << 20)
	.loc 1 482 19 is_stmt 0 view .LVU893
	ldr	r3, .L168+352	@ vectp_tlb.140,
	sub	r2, r2, #12288	@ tmp262, vectp_tlb.160,
	vst1.64	{d28-d29}, [r2:128]	@ tmp263, MEM[(long unsigned int *)&tlb + 2048B]
@ ../src/config/sama5d29_curiosity/peripheral/mmu/plib_mmu.c:463:     tlb[0xF80] = TTB_SECT_ADDR(0xF8000000U)
	.loc 1 463 16 view .LVU894
	str	lr, [r0, #3584]	@ tmp254, tlb
	.loc 1 471 5 is_stmt 1 view .LVU895
@ ../src/config/sama5d29_curiosity/peripheral/mmu/plib_mmu.c:482:         tlb[addr] = TTB_SECT_ADDR(addr << 20)
	.loc 1 482 19 is_stmt 0 view .LVU896
	add	r2, r4, #2064	@ tmp267, tmp305,
	vst1.64	{d26-d27}, [r2:128]	@ tmp268, MEM[(long unsigned int *)&tlb + 2064B]
@ ../src/config/sama5d29_curiosity/peripheral/mmu/plib_mmu.c:471:     tlb[0xFC0] = TTB_SECT_ADDR(0xFC000000U)
	.loc 1 471 16 view .LVU897
	str	ip, [r0, #3840]	@ tmp258, tlb
	.loc 1 480 5 is_stmt 1 view .LVU898
	.loc 1 482 9 view .LVU899
	.loc 1 482 9 view .LVU900
	.loc 1 482 9 view .LVU901
@ ../src/config/sama5d29_curiosity/peripheral/mmu/plib_mmu.c:482:         tlb[addr] = TTB_SECT_ADDR(addr << 20)
	.loc 1 482 19 is_stmt 0 view .LVU902
	add	r2, r4, #2080	@ tmp272, tmp305,
	vst1.64	{d24-d25}, [r2:128]	@ tmp273, MEM[(long unsigned int *)&tlb + 2080B]
	.loc 1 482 9 is_stmt 1 view .LVU903
@ ../src/config/sama5d29_curiosity/peripheral/mmu/plib_mmu.c:482:         tlb[addr] = TTB_SECT_ADDR(addr << 20)
	.loc 1 482 19 is_stmt 0 view .LVU904
	add	r2, r4, #2096	@ tmp277, tmp305,
	vst1.64	{d16-d17}, [r2:128]	@ tmp278, MEM[(long unsigned int *)&tlb + 2096B]
.L154:
	.loc 1 493 9 is_stmt 1 discriminator 3 view .LVU905
@ ../src/config/sama5d29_curiosity/peripheral/mmu/plib_mmu.c:493:         tlb[addr] = TTB_SECT_ADDR(addr << 20)
	.loc 1 493 28 is_stmt 0 discriminator 3 view .LVU906
	vshl.i32	q8, q9, #20	@ vect__25.138, vect_vec_iv_.137,
@ ../src/config/sama5d29_curiosity/peripheral/mmu/plib_mmu.c:498:                     | TTB_TYPE_SECT;
	.loc 1 498 21 discriminator 3 view .LVU907
	vorr	q8, q8, q10	@ vect__26.139, vect__25.138, tmp282
@ ../src/config/sama5d29_curiosity/peripheral/mmu/plib_mmu.c:493:         tlb[addr] = TTB_SECT_ADDR(addr << 20)
	.loc 1 493 19 discriminator 3 view .LVU908
	vst1.64	{d16-d17}, [r3:64]!	@ vect__26.139, MEM[base: vectp_tlb.140_140, offset: 0B]
	.loc 1 493 19 discriminator 3 view .LVU909
	cmp	r3, r1	@ vectp_tlb.140, tmp296
	vadd.i32	q9, q9, q11	@ vect_vec_iv_.137, vect_vec_iv_.137, tmp279
	bne	.L154		@,
	.loc 1 502 5 is_stmt 1 view .LVU910
.LVL181:
.LBB610:
.LBI610:
	.loc 1 93 13 view .LVU911
.LBB611:
	.loc 1 96 5 view .LVU912
.LBB612:
.LBI612:
	.loc 3 145 51 view .LVU913
.LBB613:
	.loc 3 147 3 view .LVU914
	.syntax divided
@ 147 "C:/Users/M69710/.mchp_packs/ARM/CMSIS/5.9.0/CMSIS/Core_A/Include/cmsis_cp15.h" 1
	MCR p15, 0, r4, c2, c0, 0	@ tmp305
@ 0 "" 2
.LVL182:
	.loc 3 147 3 is_stmt 0 view .LVU915
	.arm
	.syntax unified
.LBE613:
.LBE612:
	.loc 1 100 5 is_stmt 1 view .LVU916
.LBB614:
.LBI614:
	.loc 3 169 51 view .LVU917
.LBB615:
	.loc 3 171 3 view .LVU918
	mov	r3, #-1073741824	@ tmp286,
	.syntax divided
@ 171 "C:/Users/M69710/.mchp_packs/ARM/CMSIS/5.9.0/CMSIS/Core_A/Include/cmsis_cp15.h" 1
	MCR p15, 0, r3, c3, c0, 0	@ tmp286
@ 0 "" 2
.LVL183:
	.loc 3 171 3 is_stmt 0 view .LVU919
	.arm
	.syntax unified
.LBE615:
.LBE614:
	.loc 1 102 5 is_stmt 1 view .LVU920
.LBB616:
.LBI616:
	.loc 4 364 51 view .LVU921
.LBB617:
	.loc 4 366 3 view .LVU922
	.syntax divided
@ 366 "C:/Users/M69710/.mchp_packs/ARM/CMSIS/5.9.0/CMSIS/Core_A/Include/cmsis_gcc.h" 1
	dsb 0xF	
@ 0 "" 2
	.arm
	.syntax unified
.LBE617:
.LBE616:
	.loc 1 103 5 view .LVU923
.LBB618:
.LBI618:
	.loc 4 353 51 view .LVU924
.LBB619:
	.loc 4 355 3 view .LVU925
	.syntax divided
@ 355 "C:/Users/M69710/.mchp_packs/ARM/CMSIS/5.9.0/CMSIS/Core_A/Include/cmsis_gcc.h" 1
	isb 0xF	
@ 0 "" 2
.LVL184:
	.loc 4 355 3 is_stmt 0 view .LVU926
	.arm
	.syntax unified
.LBE619:
.LBE618:
.LBE611:
.LBE610:
	.loc 1 503 5 is_stmt 1 view .LVU927
.LBB620:
.LBI620:
	.loc 1 112 6 view .LVU928
.LBB621:
	.loc 1 114 5 view .LVU929
.LBB622:
.LBI622:
	.loc 3 188 55 view .LVU930
.LBB623:
	.loc 3 190 3 view .LVU931
	.loc 3 191 3 view .LVU932
	.syntax divided
@ 191 "C:/Users/M69710/.mchp_packs/ARM/CMSIS/5.9.0/CMSIS/Core_A/Include/cmsis_cp15.h" 1
	MRC p15, 0, r3, c1, c0, 0	@ result
@ 0 "" 2
.LVL185:
	.loc 3 192 3 view .LVU933
	.loc 3 192 3 is_stmt 0 view .LVU934
	.arm
	.syntax unified
.LBE623:
.LBE622:
	.loc 1 115 5 is_stmt 1 view .LVU935
@ ../src/config/sama5d29_curiosity/peripheral/mmu/plib_mmu.c:115:     if ((sctlr & SCTLR_I_Msk) == 0U)
	.loc 1 115 8 is_stmt 0 view .LVU936
	ands	r2, r3, #4096	@ tmp288, result,
	bne	.L155		@,
	.loc 1 117 9 is_stmt 1 view .LVU937
.LBB624:
.LBI624:
	.loc 2 886 51 view .LVU938
.LBE624:
.LBE621:
.LBE620:
	.loc 2 887 3 view .LVU939
.LVL186:
.LBB641:
.LBB638:
.LBB631:
.LBB625:
.LBI625:
	.loc 3 408 51 view .LVU940
.LBB626:
	.loc 3 410 3 view .LVU941
	.syntax divided
@ 410 "C:/Users/M69710/.mchp_packs/ARM/CMSIS/5.9.0/CMSIS/Core_A/Include/cmsis_cp15.h" 1
	MCR p15, 0, r2, c7, c5, 0	@ tmp288
@ 0 "" 2
.LVL187:
	.loc 3 410 3 is_stmt 0 view .LVU942
	.arm
	.syntax unified
.LBE626:
.LBE625:
.LBE631:
.LBE638:
.LBE641:
	.loc 2 888 3 is_stmt 1 view .LVU943
.LBB642:
.LBB639:
.LBB632:
.LBB627:
.LBI627:
	.loc 4 364 51 view .LVU944
.LBB628:
	.loc 4 366 3 view .LVU945
	.syntax divided
@ 366 "C:/Users/M69710/.mchp_packs/ARM/CMSIS/5.9.0/CMSIS/Core_A/Include/cmsis_gcc.h" 1
	dsb 0xF	
@ 0 "" 2
	.arm
	.syntax unified
.LBE628:
.LBE627:
.LBE632:
.LBE639:
.LBE642:
	.loc 2 889 3 view .LVU946
.LBB643:
.LBB640:
.LBB633:
.LBB629:
.LBI629:
	.loc 4 353 51 view .LVU947
.LBB630:
	.loc 4 355 3 view .LVU948
	.syntax divided
@ 355 "C:/Users/M69710/.mchp_packs/ARM/CMSIS/5.9.0/CMSIS/Core_A/Include/cmsis_gcc.h" 1
	isb 0xF	
@ 0 "" 2
	.arm
	.syntax unified
.LBE630:
.LBE629:
.LBE633:
	.loc 1 118 9 view .LVU949
.LVL188:
.LBB634:
.LBI634:
	.loc 3 180 51 view .LVU950
.LBB635:
	.loc 3 182 3 view .LVU951
.LBE635:
.LBE634:
@ ../src/config/sama5d29_curiosity/peripheral/mmu/plib_mmu.c:118:         __set_SCTLR(sctlr | SCTLR_I_Msk);
	.loc 1 118 9 is_stmt 0 view .LVU952
	orr	r3, r3, #4096	@ tmp290, result,
.LVL189:
.LBB637:
.LBB636:
@ C:/Users/M69710/.mchp_packs/ARM/CMSIS/5.9.0/CMSIS/Core_A/Include/cmsis_cp15.h:182:   __set_CP(15, 0, sctlr, 1, 0, 0);
	.loc 3 182 3 view .LVU953
	.syntax divided
@ 182 "C:/Users/M69710/.mchp_packs/ARM/CMSIS/5.9.0/CMSIS/Core_A/Include/cmsis_cp15.h" 1
	MCR p15, 0, r3, c1, c0, 0	@ tmp290
@ 0 "" 2
.LVL190:
	.arm
	.syntax unified
.L155:
	.loc 3 182 3 view .LVU954
.LBE636:
.LBE637:
.LBE640:
.LBE643:
	.loc 1 504 5 is_stmt 1 view .LVU955
.LBB644:
.LBI644:
	.loc 2 2579 20 view .LVU956
.LBB645:
	.loc 2 2584 3 view .LVU957
.LBB646:
.LBI646:
	.loc 3 188 55 view .LVU958
.LBB647:
	.loc 3 190 3 view .LVU959
	.loc 3 191 3 view .LVU960
	.syntax divided
@ 191 "C:/Users/M69710/.mchp_packs/ARM/CMSIS/5.9.0/CMSIS/Core_A/Include/cmsis_cp15.h" 1
	MRC p15, 0, r3, c1, c0, 0	@ result
@ 0 "" 2
.LVL191:
	.loc 3 192 3 view .LVU961
	.loc 3 192 3 is_stmt 0 view .LVU962
	.arm
	.syntax unified
.LBE647:
.LBE646:
.LBB648:
.LBI648:
	.loc 3 180 51 is_stmt 1 view .LVU963
.LBB649:
	.loc 3 182 3 view .LVU964
.LBE649:
.LBE648:
@ C:/Users/M69710/.mchp_packs/ARM/CMSIS/5.9.0/CMSIS/Core_A/Include/core_ca.h:2584:   __set_SCTLR( (__get_SCTLR() & ~(1 << 28) & ~(1 << 1)) | 1 | (1 << 29));
	.loc 2 2584 61 is_stmt 0 view .LVU965
	bic	r3, r3, #805306371	@ tmp292, result,
.LVL192:
@ C:/Users/M69710/.mchp_packs/ARM/CMSIS/5.9.0/CMSIS/Core_A/Include/core_ca.h:2584:   __set_SCTLR( (__get_SCTLR() & ~(1 << 28) & ~(1 << 1)) | 1 | (1 << 29));
	.loc 2 2584 3 view .LVU966
	orr	r3, r3, #536870913	@ tmp293, tmp292,
.LVL193:
.LBB651:
.LBB650:
@ C:/Users/M69710/.mchp_packs/ARM/CMSIS/5.9.0/CMSIS/Core_A/Include/cmsis_cp15.h:182:   __set_CP(15, 0, sctlr, 1, 0, 0);
	.loc 3 182 3 view .LVU967
	.syntax divided
@ 182 "C:/Users/M69710/.mchp_packs/ARM/CMSIS/5.9.0/CMSIS/Core_A/Include/cmsis_cp15.h" 1
	MCR p15, 0, r3, c1, c0, 0	@ tmp293
@ 0 "" 2
.LVL194:
	.loc 3 182 3 view .LVU968
	.arm
	.syntax unified
.LBE650:
.LBE651:
	.loc 2 2585 3 is_stmt 1 view .LVU969
.LBB652:
.LBI652:
	.loc 4 353 51 view .LVU970
.LBB653:
	.loc 4 355 3 view .LVU971
	.syntax divided
@ 355 "C:/Users/M69710/.mchp_packs/ARM/CMSIS/5.9.0/CMSIS/Core_A/Include/cmsis_gcc.h" 1
	isb 0xF	
@ 0 "" 2
	.arm
	.syntax unified
.LBE653:
.LBE652:
.LBE645:
.LBE644:
	.loc 1 505 5 view .LVU972
@ ../src/config/sama5d29_curiosity/peripheral/mmu/plib_mmu.c:506: }
	.loc 1 506 1 is_stmt 0 view .LVU973
	pop	{r4, lr}	@
.LCFI12:
	.cfi_restore 14
	.cfi_restore 4
	.cfi_def_cfa_offset 0
@ ../src/config/sama5d29_curiosity/peripheral/mmu/plib_mmu.c:505:     dcache_Enable();
	.loc 1 505 5 view .LVU974
	b	dcache_Enable		@
.LVL195:
.L169:
	.align	3
.L168:
	.word	35310
	.word	1052134
	.word	2100718
	.word	3149302
	.word	4197878
	.word	5246454
	.word	6295030
	.word	7343606
	.word	256
	.word	257
	.word	258
	.word	259
	.word	3570
	.word	3570
	.word	3570
	.word	3570
	.word	1024
	.word	1025
	.word	1026
	.word	1027
	.word	3566
	.word	3566
	.word	3566
	.word	3566
	.word	1536
	.word	1537
	.word	1538
	.word	1539
	.word	1792
	.word	1793
	.word	1794
	.word	1795
	.word	2048
	.word	2049
	.word	2050
	.word	2051
	.word	2304
	.word	2305
	.word	2306
	.word	2307
	.word	3554
	.word	3554
	.word	3554
	.word	3554
	.word	2432
	.word	2433
	.word	2434
	.word	2435
	.word	3072
	.word	3073
	.word	3074
	.word	3075
	.word	3328
	.word	3329
	.word	3330
	.word	3331
	.word	3456
	.word	3457
	.word	3458
	.word	3459
	.word	536874466
	.word	537923042
	.word	538971618
	.word	540020194
	.word	541068770
	.word	542117346
	.word	543165922
	.word	544214498
	.word	545263074
	.word	546311650
	.word	547360226
	.word	548408802
	.word	549457378
	.word	550505954
	.word	551554530
	.word	552603106
	.word	528
	.word	529
	.word	530
	.word	531
	.word	tlb+7168
	.word	tlb+8192
	.word	tlb+9216
	.word	tlb+9728
	.word	tlb+10240
	.word	tlb+12288
	.word	tlb+13824
	.word	tlb+14336
	.word	tlb+2112
	.cfi_endproc
.LFE148:
	.size	MMU_Initialize, .-MMU_Initialize
	.section	.bss.tlb,bss
	.align	14
	.type	tlb, %object
	.size	tlb, 16384
tlb:
	.space	16384
	.section	.text,code
.Letext0:
	.file 5 "c:\\program files\\microchip\\xc32\\v4.60\\pic32c\\include\\musl\\bits\\alltypes.h"
	.file 6 "<built-in>"