	.cpu cortex-a5
	.eabi_attribute 28, 1	@ Tag_ABI_VFP_args
	.eabi_attribute 20, 1	@ Tag_ABI_FP_denormal
	.eabi_attribute 21, 1	@ Tag_ABI_FP_exceptions
	.eabi_attribute 23, 3	@ Tag_ABI_FP_number_model
	.eabi_attribute 24, 1	@ Tag_ABI_align8_needed
	.eabi_attribute 25, 1	@ Tag_ABI_align8_preserved
	.eabi_attribute 26, 1	@ Tag_ABI_enum_size
	.eabi_attribute 30, 2	@ Tag_ABI_optimization_goals
	.eabi_attribute 34, 1	@ Tag_CPU_unaligned_access
	.eabi_attribute 18, 4	@ Tag_ABI_PCS_wchar_t
	.file	"plib_aic.c"
@ GNU C17 (Microchip XC32 Compiler v4.60) version 8.3.1 (pic32c)
@	compiled by GNU C version 9.3-win32 20200320, GMP version 6.1.0, MPFR version 3.1.4, MPC version 1.0.3, isl version none
@ GGC heuristics: --param ggc-min-expand=100 --param ggc-min-heapsize=131072
@ options passed:  -fpreprocessed plib_aic.i -D__SAMA5D29__
@ -mfpu=neon-vfpv4 -fverbose-asm
@ -mconfig-data-file=C:/Program Files/Microchip/MPLABX/v6.25/packs/Microchip/SAMA5D2_DFP/1.12.233/xc32/ATSAMA5D29/configuration.data
@ -isystem c:/program files/microchip/xc32/v4.60/bin/bin/../../pic32c/include/CMSIS/Core_A/Include
@ -D__XC32_INCLUDE_MCC
@ -isystem c:/program files/microchip/xc32/v4.60/bin/bin/../../pic32c/include_mcc
@ -marm -mprocessor=ATSAMA5D29
@ -mdfp=C:/Program Files/Microchip/MPLABX/v6.25/packs/Microchip/SAMA5D2_DFP/1.12.233
@ -mcpu=cortex-a5 -mfloat-abi=hard -mfpu=neon-vfpv4
@ -march=armv7-a+mp+sec+neon-vfpv4
@ -auxbase-strip build/sama5d29_curiosity/production/_ext/922305526/plib_aic.o
@ -g -O3 -Werror -Wall -ffunction-sections -fdata-sections
@ -ftoplevel-reorder -fno-common -fno-lto
@ options enabled:  -faggressive-loop-optimizations -falign-jumps
@ -falign-labels -falign-loops -fauto-inc-dec -fbranch-count-reg
@ -fcaller-saves -fchkp-check-incomplete-type -fchkp-check-read
@ -fchkp-check-write -fchkp-instrument-calls -fchkp-narrow-bounds
@ -fchkp-optimize -fchkp-store-bounds -fchkp-use-static-bounds
@ -fchkp-use-static-const-bounds -fchkp-use-wrappers -fcode-hoisting
@ -fcombine-stack-adjustments -fcompare-elim -fcprop-registers
@ -fcrossjumping -fcse-follow-jumps -fdata-sections -fdebug-types-section
@ -fdefer-pop -fdelete-null-pointer-checks -fdevirtualize
@ -fdevirtualize-speculatively -fdwarf2-cfi-asm -fearly-inlining
@ -feliminate-unused-debug-symbols -feliminate-unused-debug-types
@ -fexpensive-optimizations -fforward-propagate -ffp-int-builtin-inexact
@ -ffunction-cse -ffunction-sections -fgcse -fgcse-after-reload -fgcse-lm
@ -fgnu-runtime -fgnu-unique -fguess-branch-probability
@ -fhoist-adjacent-loads -fident -fif-conversion -fif-conversion2
@ -findirect-inlining -finline -finline-atomics -finline-functions
@ -finline-functions-called-once -finline-small-functions -fipa-bit-cp
@ -fipa-cp -fipa-cp-clone -fipa-icf -fipa-icf-functions -fipa-icf-variables
@ -fipa-profile -fipa-pure-const -fipa-ra -fipa-reference -fipa-sra
@ -fipa-vrp -fira-hoist-pressure -fira-share-save-slots
@ -fira-share-spill-slots -fisolate-erroneous-paths-dereference -fivopts
@ -fkeep-static-consts -fleading-underscore -flifetime-dse
@ -floop-unroll-and-jam -flra-remat -flto-odr-type-merging -fmath-errno
@ -fmerge-constants -fmerge-debug-strings -fmove-loop-invariants
@ -fomit-frame-pointer -foptimize-sibling-calls -foptimize-strlen
@ -fpartial-inlining -fpeel-loops -fpeephole -fpeephole2 -fplt
@ -fpredictive-commoning -fprefetch-loop-arrays -freg-struct-return
@ -freorder-blocks -freorder-functions -frerun-cse-after-loop
@ -fsched-critical-path-heuristic -fsched-dep-count-heuristic
@ -fsched-group-heuristic -fsched-interblock -fsched-last-insn-heuristic
@ -fsched-pressure -fsched-rank-heuristic -fsched-spec
@ -fsched-spec-insn-heuristic -fsched-stalled-insns-dep -fschedule-insns
@ -fschedule-insns2 -fsection-anchors -fsemantic-interposition
@ -fshow-column -fshrink-wrap -fshrink-wrap-separate -fsigned-zeros
@ -fsplit-ivs-in-unroller -fsplit-loops -fsplit-paths -fsplit-wide-types
@ -fssa-backprop -fssa-phiopt -fstdarg-opt -fstore-merging
@ -fstrict-aliasing -fstrict-volatile-bitfields -fsync-libcalls
@ -fthread-jumps -ftoplevel-reorder -ftrapping-math -ftree-bit-ccp
@ -ftree-builtin-call-dce -ftree-ccp -ftree-ch -ftree-coalesce-vars
@ -ftree-copy-prop -ftree-cselim -ftree-dce -ftree-dominator-opts
@ -ftree-dse -ftree-forwprop -ftree-fre -ftree-loop-distribute-patterns
@ -ftree-loop-if-convert -ftree-loop-im -ftree-loop-ivcanon
@ -ftree-loop-optimize -ftree-loop-vectorize -ftree-parallelize-loops=
@ -ftree-partial-pre -ftree-phiprop -ftree-pre -ftree-pta -ftree-reassoc
@ -ftree-scev-cprop -ftree-sink -ftree-slp-vectorize -ftree-slsr -ftree-sra
@ -ftree-switch-conversion -ftree-tail-merge -ftree-ter -ftree-vrp
@ -funit-at-a-time -funswitch-loops -fvar-tracking
@ -fvar-tracking-assignments -fverbose-asm -fzero-initialized-in-bss
@ -madj-exiting-edge-prob -marm -mauto-indexing -mbe32 -mlittle-endian
@ -mloop-rename-registers -mpic-data-is-text-relative -msched-prolog
@ -munaligned-access -mvectorize-with-neon-quad -mvectors-in-tcm

	.section	.text,code
.Ltext0:
	.cfi_sections	.debug_frame
	.section	.text.AIC_INT_Initialize,code
	.align	2
	.global	AIC_INT_Initialize
	.arch armv7-a
	.arch_extension mp
	.arch_extension sec
	.syntax unified
	.arm
	.fpu neon-vfpv4
	.type	AIC_INT_Initialize, %function
AIC_INT_Initialize:
.LFB159:
	.file 1 "../src/config/sama5d29_curiosity/peripheral/aic/plib_aic.c"
	.loc 1 80 1 view -0
	.cfi_startproc
	@ args = 0, pretend = 0, frame = 0
	@ frame_needed = 0, uses_anonymous_args = 0
	.loc 1 81 5 view .LVU1
.LVL0:
	.loc 1 82 5 view .LVU2
	.loc 1 83 5 view .LVU3
	.loc 1 84 5 view .LVU4
	.loc 1 86 5 view .LVU5
.LBB105:
.LBI105:
	.file 2 "C:/Users/M69710/.mchp_packs/ARM/CMSIS/5.9.0/CMSIS/Core_A/Include/cmsis_gcc.h"
	.loc 2 656 51 view .LVU6
.LBB106:
	.loc 2 658 3 view .LVU7
.LBE106:
.LBE105:
@ ../src/config/sama5d29_curiosity/peripheral/aic/plib_aic.c:80: {
	.loc 1 80 1 is_stmt 0 view .LVU8
	str	lr, [sp, #-4]!	@,
.LCFI0:
	.cfi_def_cfa_offset 4
	.cfi_offset 14, -4
.LBB108:
.LBB107:
@ C:/Users/M69710/.mchp_packs/ARM/CMSIS/5.9.0/CMSIS/Core_A/Include/cmsis_gcc.h:658:   __ASM volatile ("cpsid i" : : : "memory");
	.loc 2 658 3 view .LVU9
	.syntax divided
@ 658 "C:/Users/M69710/.mchp_packs/ARM/CMSIS/5.9.0/CMSIS/Core_A/Include/cmsis_gcc.h" 1
	cpsid i	
@ 0 "" 2
	.arm
	.syntax unified
.LBE107:
.LBE108:
	.loc 1 87 5 is_stmt 1 view .LVU10
.LBB109:
.LBI109:
	.loc 2 374 51 view .LVU11
.LBB110:
	.loc 2 376 3 view .LVU12
	.syntax divided
@ 376 "C:/Users/M69710/.mchp_packs/ARM/CMSIS/5.9.0/CMSIS/Core_A/Include/cmsis_gcc.h" 1
	dmb 0xF	
@ 0 "" 2
	.arm
	.syntax unified
.LBE110:
.LBE109:
	.loc 1 88 5 view .LVU13
.LBB111:
.LBI111:
	.loc 2 353 51 view .LVU14
.LBB112:
	.loc 2 355 3 view .LVU15
	.syntax divided
@ 355 "C:/Users/M69710/.mchp_packs/ARM/CMSIS/5.9.0/CMSIS/Core_A/Include/cmsis_gcc.h" 1
	isb 0xF	
@ 0 "" 2
	.arm
	.syntax unified
.LBE112:
.LBE111:
	.loc 1 90 5 view .LVU16
@ ../src/config/sama5d29_curiosity/peripheral/aic/plib_aic.c:90:     SFR_REGS->SFR_AICREDIR = (AICREDIR_KEY_GUARD ^ SFR_REGS->SFR_SN1) | SFR_AICREDIR_NSAIC_Msk;
	.loc 1 90 97 is_stmt 0 view .LVU17
	mov	lr, #0	@ tmp120,
	movt	lr, 63491	@ tmp120,
@ ../src/config/sama5d29_curiosity/peripheral/aic/plib_aic.c:90:     SFR_REGS->SFR_AICREDIR = (AICREDIR_KEY_GUARD ^ SFR_REGS->SFR_SN1) | SFR_AICREDIR_NSAIC_Msk;
	.loc 1 90 65 view .LVU18
	movw	r3, #7245	@ tmp121,
@ ../src/config/sama5d29_curiosity/peripheral/aic/plib_aic.c:90:     SFR_REGS->SFR_AICREDIR = (AICREDIR_KEY_GUARD ^ SFR_REGS->SFR_SN1) | SFR_AICREDIR_NSAIC_Msk;
	.loc 1 90 97 view .LVU19
	ldr	r2, [lr, #80]	@ _1, MEM[(struct sfr_registers_t *)4160946176B].SFR_SN1
@ ../src/config/sama5d29_curiosity/peripheral/aic/plib_aic.c:90:     SFR_REGS->SFR_AICREDIR = (AICREDIR_KEY_GUARD ^ SFR_REGS->SFR_SN1) | SFR_AICREDIR_NSAIC_Msk;
	.loc 1 90 65 view .LVU20
	movt	r3, 46808	@ tmp121,
	eor	r3, r3, r2	@ tmp121, tmp121, _1
@ ../src/config/sama5d29_curiosity/peripheral/aic/plib_aic.c:96:         AIC_REGS->AIC_IDCR = AIC_IDCR_Msk;
	.loc 1 96 50 view .LVU21
	mov	r0, #1	@ tmp126,
@ ../src/config/sama5d29_curiosity/peripheral/aic/plib_aic.c:95:         AIC_REGS->AIC_SSR = AIC_SSR_INTSEL(ii);
	.loc 1 95 49 view .LVU22
	mov	r2, #0	@ tmp124,
@ ../src/config/sama5d29_curiosity/peripheral/aic/plib_aic.c:90:     SFR_REGS->SFR_AICREDIR = (AICREDIR_KEY_GUARD ^ SFR_REGS->SFR_SN1) | SFR_AICREDIR_NSAIC_Msk;
	.loc 1 90 108 view .LVU23
	orr	ip, r3, r0	@ _3, tmp121,
@ ../src/config/sama5d29_curiosity/peripheral/aic/plib_aic.c:95:         AIC_REGS->AIC_SSR = AIC_SSR_INTSEL(ii);
	.loc 1 95 49 view .LVU24
	movt	r2, 64514	@ tmp124,
@ ../src/config/sama5d29_curiosity/peripheral/aic/plib_aic.c:96:         AIC_REGS->AIC_IDCR = AIC_IDCR_Msk;
	.loc 1 96 50 view .LVU25
	mov	r1, r0	@ MEM[(struct aic_registers_t *)4227989504B].AIC_IDCR, tmp126
@ ../src/config/sama5d29_curiosity/peripheral/aic/plib_aic.c:93:     for( ii= 0; ii < MaxNumPeripherals; ++ii )
	.loc 1 93 12 view .LVU26
	mov	r3, #0	@ ii,
@ ../src/config/sama5d29_curiosity/peripheral/aic/plib_aic.c:90:     SFR_REGS->SFR_AICREDIR = (AICREDIR_KEY_GUARD ^ SFR_REGS->SFR_SN1) | SFR_AICREDIR_NSAIC_Msk;
	.loc 1 90 50 view .LVU27
	str	ip, [lr, #84]	@ _3, MEM[(struct sfr_registers_t *)4160946176B].SFR_AICREDIR
	.loc 1 93 5 is_stmt 1 view .LVU28
.LVL1:
.L2:
	.loc 1 95 9 discriminator 3 view .LVU29
@ ../src/config/sama5d29_curiosity/peripheral/aic/plib_aic.c:95:         AIC_REGS->AIC_SSR = AIC_SSR_INTSEL(ii);
	.loc 1 95 49 is_stmt 0 discriminator 3 view .LVU30
	str	r3, [r2]	@ ii, MEM[(struct aic_registers_t *)4227989504B].AIC_SSR
	.loc 1 96 9 is_stmt 1 discriminator 3 view .LVU31
@ ../src/config/sama5d29_curiosity/peripheral/aic/plib_aic.c:96:         AIC_REGS->AIC_IDCR = AIC_IDCR_Msk;
	.loc 1 96 50 is_stmt 0 discriminator 3 view .LVU32
	str	r1, [r2, #68]	@ MEM[(struct aic_registers_t *)4227989504B].AIC_IDCR, MEM[(struct aic_registers_t *)4227989504B].AIC_IDCR
	.loc 1 97 9 is_stmt 1 discriminator 3 view .LVU33
.LBB113:
.LBI113:
	.loc 2 364 51 discriminator 3 view .LVU34
.LBB114:
	.loc 2 366 3 discriminator 3 view .LVU35
	.syntax divided
@ 366 "C:/Users/M69710/.mchp_packs/ARM/CMSIS/5.9.0/CMSIS/Core_A/Include/cmsis_gcc.h" 1
	dsb 0xF	
@ 0 "" 2
	.arm
	.syntax unified
.LBE114:
.LBE113:
	.loc 1 98 9 discriminator 3 view .LVU36
.LBB115:
.LBI115:
	.loc 2 353 51 discriminator 3 view .LVU37
.LBB116:
	.loc 2 355 3 discriminator 3 view .LVU38
	.syntax divided
@ 355 "C:/Users/M69710/.mchp_packs/ARM/CMSIS/5.9.0/CMSIS/Core_A/Include/cmsis_gcc.h" 1
	isb 0xF	
@ 0 "" 2
	.arm
	.syntax unified
.LBE116:
.LBE115:
	.loc 1 99 9 discriminator 3 view .LVU39
@ ../src/config/sama5d29_curiosity/peripheral/aic/plib_aic.c:93:     for( ii= 0; ii < MaxNumPeripherals; ++ii )
	.loc 1 93 41 is_stmt 0 discriminator 3 view .LVU40
	add	r3, r3, #1	@ ii, ii,
.LVL2:
@ ../src/config/sama5d29_curiosity/peripheral/aic/plib_aic.c:93:     for( ii= 0; ii < MaxNumPeripherals; ++ii )
	.loc 1 93 5 discriminator 3 view .LVU41
	cmp	r3, #77	@ ii,
@ ../src/config/sama5d29_curiosity/peripheral/aic/plib_aic.c:99:         AIC_REGS->AIC_ICCR = AIC_ICCR_INTCLR_Msk;
	.loc 1 99 50 discriminator 3 view .LVU42
	str	r1, [r2, #72]	@ MEM[(struct aic_registers_t *)4227989504B].AIC_IDCR, MEM[(struct aic_registers_t *)4227989504B].AIC_ICCR
@ ../src/config/sama5d29_curiosity/peripheral/aic/plib_aic.c:93:     for( ii= 0; ii < MaxNumPeripherals; ++ii )
	.loc 1 93 5 discriminator 3 view .LVU43
	bne	.L2		@,
.LVL3:
	.loc 1 105 9 is_stmt 1 view .LVU44
@ ../src/config/sama5d29_curiosity/peripheral/aic/plib_aic.c:111:         AIC_REGS->AIC_SSR = AIC_SSR_INTSEL(irqData[ii].peripheralId);
	.loc 1 111 49 is_stmt 0 view .LVU45
	mov	r3, #35	@ tmp146,
@ ../src/config/sama5d29_curiosity/peripheral/aic/plib_aic.c:105:         AIC_REGS->AIC_EOICR = AIC_EOICR_ENDIT_Msk;
	.loc 1 105 51 view .LVU46
	str	r0, [r2, #56]	@ tmp126, MEM[(struct aic_registers_t *)4227989504B].AIC_EOICR
	.loc 1 105 9 is_stmt 1 view .LVU47
@ ../src/config/sama5d29_curiosity/peripheral/aic/plib_aic.c:105:         AIC_REGS->AIC_EOICR = AIC_EOICR_ENDIT_Msk;
	.loc 1 105 51 is_stmt 0 view .LVU48
	str	r0, [r2, #56]	@ tmp126, MEM[(struct aic_registers_t *)4227989504B].AIC_EOICR
	.loc 1 105 9 is_stmt 1 view .LVU49
@ ../src/config/sama5d29_curiosity/peripheral/aic/plib_aic.c:105:         AIC_REGS->AIC_EOICR = AIC_EOICR_ENDIT_Msk;
	.loc 1 105 51 is_stmt 0 view .LVU50
	str	r0, [r2, #56]	@ tmp126, MEM[(struct aic_registers_t *)4227989504B].AIC_EOICR
	.loc 1 105 9 is_stmt 1 view .LVU51
@ ../src/config/sama5d29_curiosity/peripheral/aic/plib_aic.c:105:         AIC_REGS->AIC_EOICR = AIC_EOICR_ENDIT_Msk;
	.loc 1 105 51 is_stmt 0 view .LVU52
	str	r0, [r2, #56]	@ tmp126, MEM[(struct aic_registers_t *)4227989504B].AIC_EOICR
	.loc 1 105 9 is_stmt 1 view .LVU53
@ ../src/config/sama5d29_curiosity/peripheral/aic/plib_aic.c:105:         AIC_REGS->AIC_EOICR = AIC_EOICR_ENDIT_Msk;
	.loc 1 105 51 is_stmt 0 view .LVU54
	str	r0, [r2, #56]	@ tmp126, MEM[(struct aic_registers_t *)4227989504B].AIC_EOICR
	.loc 1 105 9 is_stmt 1 view .LVU55
@ ../src/config/sama5d29_curiosity/peripheral/aic/plib_aic.c:105:         AIC_REGS->AIC_EOICR = AIC_EOICR_ENDIT_Msk;
	.loc 1 105 51 is_stmt 0 view .LVU56
	str	r0, [r2, #56]	@ tmp126, MEM[(struct aic_registers_t *)4227989504B].AIC_EOICR
	.loc 1 105 9 is_stmt 1 view .LVU57
@ ../src/config/sama5d29_curiosity/peripheral/aic/plib_aic.c:105:         AIC_REGS->AIC_EOICR = AIC_EOICR_ENDIT_Msk;
	.loc 1 105 51 is_stmt 0 view .LVU58
	str	r0, [r2, #56]	@ tmp126, MEM[(struct aic_registers_t *)4227989504B].AIC_EOICR
	.loc 1 105 9 is_stmt 1 view .LVU59
@ ../src/config/sama5d29_curiosity/peripheral/aic/plib_aic.c:105:         AIC_REGS->AIC_EOICR = AIC_EOICR_ENDIT_Msk;
	.loc 1 105 51 is_stmt 0 view .LVU60
	str	r0, [r2, #56]	@ tmp126, MEM[(struct aic_registers_t *)4227989504B].AIC_EOICR
.LVL4:
	.loc 1 111 9 is_stmt 1 view .LVU61
@ ../src/config/sama5d29_curiosity/peripheral/aic/plib_aic.c:111:         AIC_REGS->AIC_SSR = AIC_SSR_INTSEL(irqData[ii].peripheralId);
	.loc 1 111 49 is_stmt 0 view .LVU62
	str	r3, [r2]	@ tmp146, MEM[(struct aic_registers_t *)4227989504B].AIC_SSR
	.loc 1 112 9 is_stmt 1 view .LVU63
@ ../src/config/sama5d29_curiosity/peripheral/aic/plib_aic.c:112:         AIC_REGS->AIC_SMR = (AIC_REGS->AIC_SMR & ~AIC_SMR_SRCTYPE_Msk) | AIC_SMR_SRCTYPE( irqData[ii].srcType );
	.loc 1 112 82 is_stmt 0 view .LVU64
	ldr	ip, [r2, #4]	@ _7, MEM[(struct aic_registers_t *)4227989504B].AIC_SMR
@ ../src/config/sama5d29_curiosity/peripheral/aic/plib_aic.c:114:         AIC_REGS->AIC_SPU = (uint32_t) SPURIOUS_INTERRUPT_Handler;
	.loc 1 114 51 view .LVU65
	movw	r1, #:lower16:SPURIOUS_INTERRUPT_Handler	@ SPURIOUS_INTERRUPT_Handler.0_18,
@ ../src/config/sama5d29_curiosity/peripheral/aic/plib_aic.c:112:         AIC_REGS->AIC_SMR = (AIC_REGS->AIC_SMR & ~AIC_SMR_SRCTYPE_Msk) | AIC_SMR_SRCTYPE( irqData[ii].srcType );
	.loc 1 112 92 view .LVU66
	bic	ip, ip, #96	@ _8, _7,
@ ../src/config/sama5d29_curiosity/peripheral/aic/plib_aic.c:115:         AIC_REGS->AIC_SVR = (uint32_t) irqData[ii].handler;
	.loc 1 115 51 view .LVU67
	movw	r3, #:lower16:TC0_InterruptHandler	@ _20,
@ ../src/config/sama5d29_curiosity/peripheral/aic/plib_aic.c:112:         AIC_REGS->AIC_SMR = (AIC_REGS->AIC_SMR & ~AIC_SMR_SRCTYPE_Msk) | AIC_SMR_SRCTYPE( irqData[ii].srcType );
	.loc 1 112 49 view .LVU68
	str	ip, [r2, #4]	@ _8, MEM[(struct aic_registers_t *)4227989504B].AIC_SMR
	.loc 1 113 9 is_stmt 1 view .LVU69
@ ../src/config/sama5d29_curiosity/peripheral/aic/plib_aic.c:113:         AIC_REGS->AIC_SMR = (AIC_REGS->AIC_SMR & ~AIC_SMR_PRIORITY_Msk) | AIC_SMR_PRIORITY(irqData[ii].priority);
	.loc 1 113 82 is_stmt 0 view .LVU70
	ldr	ip, [r2, #4]	@ _13, MEM[(struct aic_registers_t *)4227989504B].AIC_SMR
@ ../src/config/sama5d29_curiosity/peripheral/aic/plib_aic.c:114:         AIC_REGS->AIC_SPU = (uint32_t) SPURIOUS_INTERRUPT_Handler;
	.loc 1 114 51 view .LVU71
	movt	r1, #:upper16:SPURIOUS_INTERRUPT_Handler	@ SPURIOUS_INTERRUPT_Handler.0_18,
@ ../src/config/sama5d29_curiosity/peripheral/aic/plib_aic.c:113:         AIC_REGS->AIC_SMR = (AIC_REGS->AIC_SMR & ~AIC_SMR_PRIORITY_Msk) | AIC_SMR_PRIORITY(irqData[ii].priority);
	.loc 1 113 92 view .LVU72
	bic	ip, ip, #7	@ _14, _13,
@ ../src/config/sama5d29_curiosity/peripheral/aic/plib_aic.c:115:         AIC_REGS->AIC_SVR = (uint32_t) irqData[ii].handler;
	.loc 1 115 51 view .LVU73
	movt	r3, #:upper16:TC0_InterruptHandler	@ _20,
@ ../src/config/sama5d29_curiosity/peripheral/aic/plib_aic.c:113:         AIC_REGS->AIC_SMR = (AIC_REGS->AIC_SMR & ~AIC_SMR_PRIORITY_Msk) | AIC_SMR_PRIORITY(irqData[ii].priority);
	.loc 1 113 49 view .LVU74
	str	ip, [r2, #4]	@ _14, MEM[(struct aic_registers_t *)4227989504B].AIC_SMR
	.loc 1 114 9 is_stmt 1 view .LVU75
@ ../src/config/sama5d29_curiosity/peripheral/aic/plib_aic.c:114:         AIC_REGS->AIC_SPU = (uint32_t) SPURIOUS_INTERRUPT_Handler;
	.loc 1 114 49 is_stmt 0 view .LVU76
	str	r1, [r2, #60]	@ SPURIOUS_INTERRUPT_Handler.0_18, MEM[(struct aic_registers_t *)4227989504B].AIC_SPU
	.loc 1 115 9 is_stmt 1 view .LVU77
@ ../src/config/sama5d29_curiosity/peripheral/aic/plib_aic.c:115:         AIC_REGS->AIC_SVR = (uint32_t) irqData[ii].handler;
	.loc 1 115 49 is_stmt 0 view .LVU78
	str	r3, [r2, #8]	@ _20, MEM[(struct aic_registers_t *)4227989504B].AIC_SVR
	.loc 1 116 9 is_stmt 1 view .LVU79
@ ../src/config/sama5d29_curiosity/peripheral/aic/plib_aic.c:116:         AIC_REGS->AIC_IECR = AIC_IECR_Msk;
	.loc 1 116 50 is_stmt 0 view .LVU80
	str	r0, [r2, #64]	@ tmp126, MEM[(struct aic_registers_t *)4227989504B].AIC_IECR
.LVL5:
	.loc 1 119 5 is_stmt 1 view .LVU81
.LBB117:
.LBI117:
	.loc 2 364 51 view .LVU82
.LBB118:
	.loc 2 366 3 view .LVU83
	.syntax divided
@ 366 "C:/Users/M69710/.mchp_packs/ARM/CMSIS/5.9.0/CMSIS/Core_A/Include/cmsis_gcc.h" 1
	dsb 0xF	
@ 0 "" 2
	.arm
	.syntax unified
.LBE118:
.LBE117:
	.loc 1 120 5 view .LVU84
.LBB119:
.LBI119:
	.loc 2 646 51 view .LVU85
.LBB120:
	.loc 2 648 3 view .LVU86
	.syntax divided
@ 648 "C:/Users/M69710/.mchp_packs/ARM/CMSIS/5.9.0/CMSIS/Core_A/Include/cmsis_gcc.h" 1
	cpsie i	
@ 0 "" 2
	.arm
	.syntax unified
.LBE120:
.LBE119:
	.loc 1 121 5 view .LVU87
.LBB121:
.LBI121:
	.loc 2 353 51 view .LVU88
.LBB122:
	.loc 2 355 3 view .LVU89
	.syntax divided
@ 355 "C:/Users/M69710/.mchp_packs/ARM/CMSIS/5.9.0/CMSIS/Core_A/Include/cmsis_gcc.h" 1
	isb 0xF	
@ 0 "" 2
	.arm
	.syntax unified
.LBE122:
.LBE121:
@ ../src/config/sama5d29_curiosity/peripheral/aic/plib_aic.c:122: }
	.loc 1 122 1 is_stmt 0 view .LVU90
	ldr	pc, [sp], #4	@
	.cfi_endproc
.LFE159:
	.size	AIC_INT_Initialize, .-AIC_INT_Initialize
	.section	.text.AIC_INT_IrqEnable,code
	.align	2
	.global	AIC_INT_IrqEnable
	.syntax unified
	.arm
	.fpu neon-vfpv4
	.type	AIC_INT_IrqEnable, %function
AIC_INT_IrqEnable:
.LFB160:
	.loc 1 125 1 is_stmt 1 view -0
	.cfi_startproc
	@ args = 0, pretend = 0, frame = 0
	@ frame_needed = 0, uses_anonymous_args = 0
	@ link register save eliminated.
	.loc 1 126 5 view .LVU92
.LBB123:
.LBI123:
	.loc 2 374 51 view .LVU93
.LBB124:
	.loc 2 376 3 view .LVU94
	.syntax divided
@ 376 "C:/Users/M69710/.mchp_packs/ARM/CMSIS/5.9.0/CMSIS/Core_A/Include/cmsis_gcc.h" 1
	dmb 0xF	
@ 0 "" 2
	.arm
	.syntax unified
.LBE124:
.LBE123:
	.loc 1 127 5 view .LVU95
.LBB125:
.LBI125:
	.loc 2 646 51 view .LVU96
.LBB126:
	.loc 2 648 3 view .LVU97
	.syntax divided
@ 648 "C:/Users/M69710/.mchp_packs/ARM/CMSIS/5.9.0/CMSIS/Core_A/Include/cmsis_gcc.h" 1
	cpsie i	
@ 0 "" 2
	.arm
	.syntax unified
.LBE126:
.LBE125:
@ ../src/config/sama5d29_curiosity/peripheral/aic/plib_aic.c:128: }
	.loc 1 128 1 is_stmt 0 view .LVU98
	bx	lr	@
	.cfi_endproc
.LFE160:
	.size	AIC_INT_IrqEnable, .-AIC_INT_IrqEnable
	.section	.text.AIC_INT_IrqDisable,code
	.align	2
	.global	AIC_INT_IrqDisable
	.syntax unified
	.arm
	.fpu neon-vfpv4
	.type	AIC_INT_IrqDisable, %function
AIC_INT_IrqDisable:
.LFB161:
	.loc 1 131 1 is_stmt 1 view -0
	.cfi_startproc
	@ args = 0, pretend = 0, frame = 8
	@ frame_needed = 0, uses_anonymous_args = 0
	@ link register save eliminated.
	.loc 1 133 5 view .LVU100
.LBB127:
.LBI127:
	.loc 2 731 55 view .LVU101
.LBB128:
	.loc 2 733 3 view .LVU102
	.loc 2 734 3 view .LVU103
.LBE128:
.LBE127:
@ ../src/config/sama5d29_curiosity/peripheral/aic/plib_aic.c:131: {
	.loc 1 131 1 is_stmt 0 view .LVU104
	sub	sp, sp, #8	@,,
.LCFI1:
	.cfi_def_cfa_offset 8
.LBB130:
.LBB129:
@ C:/Users/M69710/.mchp_packs/ARM/CMSIS/5.9.0/CMSIS/Core_A/Include/cmsis_gcc.h:734:   __ASM volatile("MRS %0, cpsr" : "=r" (result) );
	.loc 2 734 3 view .LVU105
	.syntax divided
@ 734 "C:/Users/M69710/.mchp_packs/ARM/CMSIS/5.9.0/CMSIS/Core_A/Include/cmsis_gcc.h" 1
	MRS r3, cpsr	@ result
@ 0 "" 2
.LVL6:
	.loc 2 735 3 is_stmt 1 view .LVU106
	.loc 2 735 3 is_stmt 0 view .LVU107
	.arm
	.syntax unified
.LBE129:
.LBE130:
@ ../src/config/sama5d29_curiosity/peripheral/aic/plib_aic.c:133:     volatile bool previousValue = ((CPSR_I_Msk & __get_CPSR()) == 0U);
	.loc 1 133 64 view .LVU108
	eor	r3, r3, #128	@ tmp116, result,
	ubfx	r3, r3, #7, #1	@ _2, tmp116,,
@ ../src/config/sama5d29_curiosity/peripheral/aic/plib_aic.c:133:     volatile bool previousValue = ((CPSR_I_Msk & __get_CPSR()) == 0U);
	.loc 1 133 18 view .LVU109
	strb	r3, [sp, #7]	@ _2, previousValue
	.loc 1 134 5 is_stmt 1 view .LVU110
.LBB131:
.LBI131:
	.loc 2 656 51 view .LVU111
.LBB132:
	.loc 2 658 3 view .LVU112
	.syntax divided
@ 658 "C:/Users/M69710/.mchp_packs/ARM/CMSIS/5.9.0/CMSIS/Core_A/Include/cmsis_gcc.h" 1
	cpsid i	
@ 0 "" 2
	.arm
	.syntax unified
.LBE132:
.LBE131:
	.loc 1 135 5 view .LVU113
.LBB133:
.LBI133:
	.loc 2 374 51 view .LVU114
.LBB134:
	.loc 2 376 3 view .LVU115
	.syntax divided
@ 376 "C:/Users/M69710/.mchp_packs/ARM/CMSIS/5.9.0/CMSIS/Core_A/Include/cmsis_gcc.h" 1
	dmb 0xF	
@ 0 "" 2
	.arm
	.syntax unified
.LBE134:
.LBE133:
	.loc 1 136 5 view .LVU116
@ ../src/config/sama5d29_curiosity/peripheral/aic/plib_aic.c:136:     return( previousValue );
	.loc 1 136 11 is_stmt 0 view .LVU117
	ldrb	r0, [sp, #7]	@ zero_extendqisi2	@ previousValue, previousValue
@ ../src/config/sama5d29_curiosity/peripheral/aic/plib_aic.c:137: }
	.loc 1 137 1 view .LVU118
	add	sp, sp, #8	@,,
.LCFI2:
	.cfi_def_cfa_offset 0
	@ sp needed	@
	bx	lr	@
	.cfi_endproc
.LFE161:
	.size	AIC_INT_IrqDisable, .-AIC_INT_IrqDisable
	.section	.text.AIC_INT_IrqRestore,code
	.align	2
	.global	AIC_INT_IrqRestore
	.syntax unified
	.arm
	.fpu neon-vfpv4
	.type	AIC_INT_IrqRestore, %function
AIC_INT_IrqRestore:
.LVL7:
.LFB162:
	.loc 1 140 1 is_stmt 1 view -0
	.cfi_startproc
	@ args = 0, pretend = 0, frame = 0
	@ frame_needed = 0, uses_anonymous_args = 0
	@ link register save eliminated.
	.loc 1 141 5 view .LVU120
@ ../src/config/sama5d29_curiosity/peripheral/aic/plib_aic.c:141:     if(state)
	.loc 1 141 7 is_stmt 0 view .LVU121
	cmp	r0, #0	@ state,
	beq	.L10		@,
	.loc 1 143 9 is_stmt 1 view .LVU122
.LBB135:
.LBI135:
	.loc 2 374 51 view .LVU123
.LBB136:
	.loc 2 376 3 view .LVU124
	.syntax divided
@ 376 "C:/Users/M69710/.mchp_packs/ARM/CMSIS/5.9.0/CMSIS/Core_A/Include/cmsis_gcc.h" 1
	dmb 0xF	
@ 0 "" 2
	.arm
	.syntax unified
.LBE136:
.LBE135:
	.loc 1 144 9 view .LVU125
.LBB137:
.LBI137:
	.loc 2 646 51 view .LVU126
.LBB138:
	.loc 2 648 3 view .LVU127
	.syntax divided
@ 648 "C:/Users/M69710/.mchp_packs/ARM/CMSIS/5.9.0/CMSIS/Core_A/Include/cmsis_gcc.h" 1
	cpsie i	
@ 0 "" 2
	.arm
	.syntax unified
	bx	lr	@
.L10:
.LBE138:
.LBE137:
	.loc 1 148 9 view .LVU128
.LBB139:
.LBI139:
	.loc 2 656 51 view .LVU129
.LBB140:
	.loc 2 658 3 view .LVU130
	.syntax divided
@ 658 "C:/Users/M69710/.mchp_packs/ARM/CMSIS/5.9.0/CMSIS/Core_A/Include/cmsis_gcc.h" 1
	cpsid i	
@ 0 "" 2
	.arm
	.syntax unified
.LBE140:
.LBE139:
	.loc 1 149 9 view .LVU131
.LBB141:
.LBI141:
	.loc 2 374 51 view .LVU132
.LBB142:
	.loc 2 376 3 view .LVU133
	.syntax divided
@ 376 "C:/Users/M69710/.mchp_packs/ARM/CMSIS/5.9.0/CMSIS/Core_A/Include/cmsis_gcc.h" 1
	dmb 0xF	
@ 0 "" 2
	.arm
	.syntax unified
.LBE142:
.LBE141:
@ ../src/config/sama5d29_curiosity/peripheral/aic/plib_aic.c:151: }
	.loc 1 151 1 is_stmt 0 view .LVU134
	bx	lr	@
	.cfi_endproc
.LFE162:
	.size	AIC_INT_IrqRestore, .-AIC_INT_IrqRestore
	.section	.text.AIC_INT_IsInterruptEnabled,code
	.align	2
	.global	AIC_INT_IsInterruptEnabled
	.syntax unified
	.arm
	.fpu neon-vfpv4
	.type	AIC_INT_IsInterruptEnabled, %function
AIC_INT_IsInterruptEnabled:
.LVL8:
.LFB164:
	.loc 1 159 1 is_stmt 1 view -0
	.cfi_startproc
	@ args = 0, pretend = 0, frame = 8
	@ frame_needed = 0, uses_anonymous_args = 0
	@ link register save eliminated.
	.loc 1 160 4 view .LVU136
	.loc 1 161 5 view .LVU137
	.loc 1 155 5 view .LVU138
	.loc 1 162 4 view .LVU139
.LBB161:
.LBI161:
	.loc 1 130 5 view .LVU140
.LBB162:
	.loc 1 133 5 view .LVU141
.LBB163:
.LBI163:
	.loc 2 731 55 view .LVU142
.LBB164:
	.loc 2 733 3 view .LVU143
	.loc 2 734 3 view .LVU144
.LBE164:
.LBE163:
.LBE162:
.LBE161:
@ ../src/config/sama5d29_curiosity/peripheral/aic/plib_aic.c:159: {
	.loc 1 159 1 is_stmt 0 view .LVU145
	sub	sp, sp, #8	@,,
.LCFI3:
	.cfi_def_cfa_offset 8
.LBB173:
.LBB171:
.LBB166:
.LBB165:
@ C:/Users/M69710/.mchp_packs/ARM/CMSIS/5.9.0/CMSIS/Core_A/Include/cmsis_gcc.h:734:   __ASM volatile("MRS %0, cpsr" : "=r" (result) );
	.loc 2 734 3 view .LVU146
	.syntax divided
@ 734 "C:/Users/M69710/.mchp_packs/ARM/CMSIS/5.9.0/CMSIS/Core_A/Include/cmsis_gcc.h" 1
	MRS r3, cpsr	@ result
@ 0 "" 2
.LVL9:
	.loc 2 735 3 is_stmt 1 view .LVU147
	.loc 2 735 3 is_stmt 0 view .LVU148
	.arm
	.syntax unified
.LBE165:
.LBE166:
@ ../src/config/sama5d29_curiosity/peripheral/aic/plib_aic.c:133:     volatile bool previousValue = ((CPSR_I_Msk & __get_CPSR()) == 0U);
	.loc 1 133 64 view .LVU149
	eor	r3, r3, #128	@ tmp121, result,
	ubfx	r3, r3, #7, #1	@ _11, tmp121,,
@ ../src/config/sama5d29_curiosity/peripheral/aic/plib_aic.c:133:     volatile bool previousValue = ((CPSR_I_Msk & __get_CPSR()) == 0U);
	.loc 1 133 18 view .LVU150
	strb	r3, [sp, #7]	@ _11, previousValue
	.loc 1 134 5 is_stmt 1 view .LVU151
.LBB167:
.LBI167:
	.loc 2 656 51 view .LVU152
.LBB168:
	.loc 2 658 3 view .LVU153
	.syntax divided
@ 658 "C:/Users/M69710/.mchp_packs/ARM/CMSIS/5.9.0/CMSIS/Core_A/Include/cmsis_gcc.h" 1
	cpsid i	
@ 0 "" 2
	.arm
	.syntax unified
.LBE168:
.LBE167:
	.loc 1 135 5 view .LVU154
.LBB169:
.LBI169:
	.loc 2 374 51 view .LVU155
.LBB170:
	.loc 2 376 3 view .LVU156
	.syntax divided
@ 376 "C:/Users/M69710/.mchp_packs/ARM/CMSIS/5.9.0/CMSIS/Core_A/Include/cmsis_gcc.h" 1
	dmb 0xF	
@ 0 "" 2
	.arm
	.syntax unified
.LBE170:
.LBE169:
	.loc 1 136 5 view .LVU157
.LBE171:
.LBE173:
@ ../src/config/sama5d29_curiosity/peripheral/aic/plib_aic.c:163:     aicPtr->AIC_SSR = AIC_SSR_INTSEL( (uint32_t) aSrcSelection );
	.loc 1 163 21 is_stmt 0 view .LVU158
	mov	r3, #0	@ tmp129,
.LBB174:
.LBB172:
@ ../src/config/sama5d29_curiosity/peripheral/aic/plib_aic.c:136:     return( previousValue );
	.loc 1 136 11 view .LVU159
	ldrb	r2, [sp, #7]	@ zero_extendqisi2	@ previousValue, previousValue
.LVL10:
	.loc 1 136 11 view .LVU160
.LBE172:
.LBE174:
	.loc 1 163 5 is_stmt 1 view .LVU161
@ ../src/config/sama5d29_curiosity/peripheral/aic/plib_aic.c:163:     aicPtr->AIC_SSR = AIC_SSR_INTSEL( (uint32_t) aSrcSelection );
	.loc 1 163 64 is_stmt 0 view .LVU162
	and	r0, r0, #127	@ _1, aSrcSelection,
.LVL11:
@ ../src/config/sama5d29_curiosity/peripheral/aic/plib_aic.c:163:     aicPtr->AIC_SSR = AIC_SSR_INTSEL( (uint32_t) aSrcSelection );
	.loc 1 163 21 view .LVU163
	movt	r3, 64514	@ tmp129,
.LBB175:
.LBB176:
@ ../src/config/sama5d29_curiosity/peripheral/aic/plib_aic.c:141:     if(state)
	.loc 1 141 7 view .LVU164
	cmp	r2, #0	@ previousValue,
.LBE176:
.LBE175:
@ ../src/config/sama5d29_curiosity/peripheral/aic/plib_aic.c:163:     aicPtr->AIC_SSR = AIC_SSR_INTSEL( (uint32_t) aSrcSelection );
	.loc 1 163 21 view .LVU165
	str	r0, [r3]	@ _1, MEM[(struct aic_registers_t *)4227989504B].AIC_SSR
	.loc 1 164 5 is_stmt 1 view .LVU166
@ ../src/config/sama5d29_curiosity/peripheral/aic/plib_aic.c:164:     if( (aicPtr->AIC_IMR & AIC_IMR_Msk) != 0U){
	.loc 1 164 16 is_stmt 0 view .LVU167
	ldr	r0, [r3, #48]	@ _2, MEM[(struct aic_registers_t *)4227989504B].AIC_IMR
@ ../src/config/sama5d29_curiosity/peripheral/aic/plib_aic.c:164:     if( (aicPtr->AIC_IMR & AIC_IMR_Msk) != 0U){
	.loc 1 164 7 view .LVU168
	and	r0, r0, #1	@ <retval>, _2,
.LVL12:
	.loc 1 167 5 is_stmt 1 view .LVU169
.LBB187:
.LBI175:
	.loc 1 139 6 view .LVU170
.LBB185:
	.loc 1 141 5 view .LVU171
@ ../src/config/sama5d29_curiosity/peripheral/aic/plib_aic.c:141:     if(state)
	.loc 1 141 7 is_stmt 0 view .LVU172
	beq	.L13		@,
	.loc 1 143 9 is_stmt 1 view .LVU173
.LBB177:
.LBI177:
	.loc 2 374 51 view .LVU174
.LBB178:
	.loc 2 376 3 view .LVU175
	.syntax divided
@ 376 "C:/Users/M69710/.mchp_packs/ARM/CMSIS/5.9.0/CMSIS/Core_A/Include/cmsis_gcc.h" 1
	dmb 0xF	
@ 0 "" 2
	.arm
	.syntax unified
.LBE178:
.LBE177:
	.loc 1 144 9 view .LVU176
.LBB179:
.LBI179:
	.loc 2 646 51 view .LVU177
.LBB180:
	.loc 2 648 3 view .LVU178
	.syntax divided
@ 648 "C:/Users/M69710/.mchp_packs/ARM/CMSIS/5.9.0/CMSIS/Core_A/Include/cmsis_gcc.h" 1
	cpsie i	
@ 0 "" 2
.LVL13:
	.loc 2 648 3 is_stmt 0 view .LVU179
	.arm
	.syntax unified
.LBE180:
.LBE179:
.LBE185:
.LBE187:
	.loc 1 168 5 is_stmt 1 view .LVU180
@ ../src/config/sama5d29_curiosity/peripheral/aic/plib_aic.c:169: }
	.loc 1 169 1 is_stmt 0 view .LVU181
	add	sp, sp, #8	@,,
.LCFI4:
	.cfi_remember_state
	.cfi_def_cfa_offset 0
	@ sp needed	@
	bx	lr	@
.LVL14:
.L13:
.LCFI5:
	.cfi_restore_state
.LBB188:
.LBB186:
	.loc 1 148 9 is_stmt 1 view .LVU182
.LBB181:
.LBI181:
	.loc 2 656 51 view .LVU183
.LBB182:
	.loc 2 658 3 view .LVU184
	.syntax divided
@ 658 "C:/Users/M69710/.mchp_packs/ARM/CMSIS/5.9.0/CMSIS/Core_A/Include/cmsis_gcc.h" 1
	cpsid i	
@ 0 "" 2
	.arm
	.syntax unified
.LBE182:
.LBE181:
	.loc 1 149 9 view .LVU185
.LBB183:
.LBI183:
	.loc 2 374 51 view .LVU186
.LBB184:
	.loc 2 376 3 view .LVU187
	.syntax divided
@ 376 "C:/Users/M69710/.mchp_packs/ARM/CMSIS/5.9.0/CMSIS/Core_A/Include/cmsis_gcc.h" 1
	dmb 0xF	
@ 0 "" 2
.LVL15:
	.loc 2 376 3 is_stmt 0 view .LVU188
	.arm
	.syntax unified
.LBE184:
.LBE183:
.LBE186:
.LBE188:
	.loc 1 168 5 is_stmt 1 view .LVU189
@ ../src/config/sama5d29_curiosity/peripheral/aic/plib_aic.c:169: }
	.loc 1 169 1 is_stmt 0 view .LVU190
	add	sp, sp, #8	@,,
.LCFI6:
	.cfi_def_cfa_offset 0
	@ sp needed	@
	bx	lr	@
	.cfi_endproc
.LFE164:
	.size	AIC_INT_IsInterruptEnabled, .-AIC_INT_IsInterruptEnabled
	.section	.text.AIC_INT_SourceDisable,code
	.align	2
	.global	AIC_INT_SourceDisable
	.syntax unified
	.arm
	.fpu neon-vfpv4
	.type	AIC_INT_SourceDisable, %function
AIC_INT_SourceDisable:
.LVL16:
.LFB165:
	.loc 1 172 1 is_stmt 1 view -0
	.cfi_startproc
	@ args = 0, pretend = 0, frame = 8
	@ frame_needed = 0, uses_anonymous_args = 0
	@ link register save eliminated.
	.loc 1 173 4 view .LVU192
.LBB231:
.LBI231:
	.loc 1 158 5 view .LVU193
.LBB232:
	.loc 1 160 4 view .LVU194
	.loc 1 161 5 view .LVU195
	.loc 1 161 5 is_stmt 0 view .LVU196
.LBE232:
.LBE231:
	.loc 1 155 5 is_stmt 1 view .LVU197
.LBB264:
.LBB261:
	.loc 1 162 4 view .LVU198
.LBB233:
.LBI233:
	.loc 1 130 5 view .LVU199
.LBB234:
	.loc 1 133 5 view .LVU200
.LBB235:
.LBI235:
	.loc 2 731 55 view .LVU201
.LBB236:
	.loc 2 733 3 view .LVU202
	.loc 2 734 3 view .LVU203
.LBE236:
.LBE235:
.LBE234:
.LBE233:
.LBE261:
.LBE264:
@ ../src/config/sama5d29_curiosity/peripheral/aic/plib_aic.c:172: {
	.loc 1 172 1 is_stmt 0 view .LVU204
	sub	sp, sp, #8	@,,
.LCFI7:
	.cfi_def_cfa_offset 8
.LBB265:
.LBB262:
.LBB245:
.LBB243:
.LBB238:
.LBB237:
@ C:/Users/M69710/.mchp_packs/ARM/CMSIS/5.9.0/CMSIS/Core_A/Include/cmsis_gcc.h:734:   __ASM volatile("MRS %0, cpsr" : "=r" (result) );
	.loc 2 734 3 view .LVU205
	.syntax divided
@ 734 "C:/Users/M69710/.mchp_packs/ARM/CMSIS/5.9.0/CMSIS/Core_A/Include/cmsis_gcc.h" 1
	MRS r3, cpsr	@ result
@ 0 "" 2
.LVL17:
	.loc 2 735 3 is_stmt 1 view .LVU206
	.loc 2 735 3 is_stmt 0 view .LVU207
	.arm
	.syntax unified
.LBE237:
.LBE238:
@ ../src/config/sama5d29_curiosity/peripheral/aic/plib_aic.c:133:     volatile bool previousValue = ((CPSR_I_Msk & __get_CPSR()) == 0U);
	.loc 1 133 64 view .LVU208
	eor	r3, r3, #128	@ tmp125, result,
	ubfx	r3, r3, #7, #1	@ _25, tmp125,,
@ ../src/config/sama5d29_curiosity/peripheral/aic/plib_aic.c:133:     volatile bool previousValue = ((CPSR_I_Msk & __get_CPSR()) == 0U);
	.loc 1 133 18 view .LVU209
	strb	r3, [sp, #7]	@ _25, previousValue
	.loc 1 134 5 is_stmt 1 view .LVU210
.LBB239:
.LBI239:
	.loc 2 656 51 view .LVU211
.LBB240:
	.loc 2 658 3 view .LVU212
	.syntax divided
@ 658 "C:/Users/M69710/.mchp_packs/ARM/CMSIS/5.9.0/CMSIS/Core_A/Include/cmsis_gcc.h" 1
	cpsid i	
@ 0 "" 2
	.arm
	.syntax unified
.LBE240:
.LBE239:
	.loc 1 135 5 view .LVU213
.LBB241:
.LBI241:
	.loc 2 374 51 view .LVU214
.LBB242:
	.loc 2 376 3 view .LVU215
	.syntax divided
@ 376 "C:/Users/M69710/.mchp_packs/ARM/CMSIS/5.9.0/CMSIS/Core_A/Include/cmsis_gcc.h" 1
	dmb 0xF	
@ 0 "" 2
	.arm
	.syntax unified
.LBE242:
.LBE241:
	.loc 1 136 5 view .LVU216
.LBE243:
.LBE245:
@ ../src/config/sama5d29_curiosity/peripheral/aic/plib_aic.c:163:     aicPtr->AIC_SSR = AIC_SSR_INTSEL( (uint32_t) aSrcSelection );
	.loc 1 163 21 is_stmt 0 view .LVU217
	mov	r3, #0	@ tmp133,
.LBB246:
.LBB244:
@ ../src/config/sama5d29_curiosity/peripheral/aic/plib_aic.c:136:     return( previousValue );
	.loc 1 136 11 view .LVU218
	ldrb	r1, [sp, #7]	@ zero_extendqisi2	@ previousValue, previousValue
.LVL18:
	.loc 1 136 11 view .LVU219
.LBE244:
.LBE246:
	.loc 1 163 5 is_stmt 1 view .LVU220
@ ../src/config/sama5d29_curiosity/peripheral/aic/plib_aic.c:163:     aicPtr->AIC_SSR = AIC_SSR_INTSEL( (uint32_t) aSrcSelection );
	.loc 1 163 64 is_stmt 0 view .LVU221
	and	r2, r0, #127	@ _28, aSrcSelection,
@ ../src/config/sama5d29_curiosity/peripheral/aic/plib_aic.c:163:     aicPtr->AIC_SSR = AIC_SSR_INTSEL( (uint32_t) aSrcSelection );
	.loc 1 163 21 view .LVU222
	movt	r3, 64514	@ tmp133,
.LBB247:
.LBB248:
@ ../src/config/sama5d29_curiosity/peripheral/aic/plib_aic.c:141:     if(state)
	.loc 1 141 7 view .LVU223
	cmp	r1, #0	@ previousValue,
.LBE248:
.LBE247:
@ ../src/config/sama5d29_curiosity/peripheral/aic/plib_aic.c:163:     aicPtr->AIC_SSR = AIC_SSR_INTSEL( (uint32_t) aSrcSelection );
	.loc 1 163 21 view .LVU224
	str	r2, [r3]	@ _28, MEM[(struct aic_registers_t *)4227989504B].AIC_SSR
	.loc 1 164 5 is_stmt 1 view .LVU225
@ ../src/config/sama5d29_curiosity/peripheral/aic/plib_aic.c:164:     if( (aicPtr->AIC_IMR & AIC_IMR_Msk) != 0U){
	.loc 1 164 16 is_stmt 0 view .LVU226
	ldr	r0, [r3, #48]	@ _29, MEM[(struct aic_registers_t *)4227989504B].AIC_IMR
.LVL19:
@ ../src/config/sama5d29_curiosity/peripheral/aic/plib_aic.c:164:     if( (aicPtr->AIC_IMR & AIC_IMR_Msk) != 0U){
	.loc 1 164 7 view .LVU227
	and	r0, r0, #1	@ <retval>, _29,
.LVL20:
	.loc 1 167 5 is_stmt 1 view .LVU228
.LBB259:
.LBI247:
	.loc 1 139 6 view .LVU229
.LBB257:
	.loc 1 141 5 view .LVU230
@ ../src/config/sama5d29_curiosity/peripheral/aic/plib_aic.c:141:     if(state)
	.loc 1 141 7 is_stmt 0 view .LVU231
	beq	.L17		@,
	.loc 1 143 9 is_stmt 1 view .LVU232
.LBB249:
.LBI249:
	.loc 2 374 51 view .LVU233
.LBB250:
	.loc 2 376 3 view .LVU234
	.syntax divided
@ 376 "C:/Users/M69710/.mchp_packs/ARM/CMSIS/5.9.0/CMSIS/Core_A/Include/cmsis_gcc.h" 1
	dmb 0xF	
@ 0 "" 2
	.arm
	.syntax unified
.LBE250:
.LBE249:
	.loc 1 144 9 view .LVU235
.LBB251:
.LBI251:
	.loc 2 646 51 view .LVU236
.LBB252:
	.loc 2 648 3 view .LVU237
	.syntax divided
@ 648 "C:/Users/M69710/.mchp_packs/ARM/CMSIS/5.9.0/CMSIS/Core_A/Include/cmsis_gcc.h" 1
	cpsie i	
@ 0 "" 2
	.arm
	.syntax unified
.L18:
.LVL21:
	.loc 2 648 3 is_stmt 0 view .LVU238
.LBE252:
.LBE251:
.LBE257:
.LBE259:
	.loc 1 168 5 is_stmt 1 view .LVU239
	.loc 1 168 5 is_stmt 0 view .LVU240
.LBE262:
.LBE265:
	.loc 1 174 5 is_stmt 1 view .LVU241
	.loc 1 155 5 view .LVU242
	.loc 1 175 4 view .LVU243
.LBB266:
.LBI266:
	.loc 1 130 5 view .LVU244
.LBB267:
	.loc 1 133 5 view .LVU245
.LBB268:
.LBI268:
	.loc 2 731 55 view .LVU246
.LBB269:
	.loc 2 733 3 view .LVU247
	.loc 2 734 3 view .LVU248
	.syntax divided
@ 734 "C:/Users/M69710/.mchp_packs/ARM/CMSIS/5.9.0/CMSIS/Core_A/Include/cmsis_gcc.h" 1
	MRS r3, cpsr	@ result
@ 0 "" 2
.LVL22:
	.loc 2 735 3 view .LVU249
	.loc 2 735 3 is_stmt 0 view .LVU250
	.arm
	.syntax unified
.LBE269:
.LBE268:
@ ../src/config/sama5d29_curiosity/peripheral/aic/plib_aic.c:133:     volatile bool previousValue = ((CPSR_I_Msk & __get_CPSR()) == 0U);
	.loc 1 133 64 view .LVU251
	eor	r3, r3, #128	@ tmp139, result,
	ubfx	r3, r3, #7, #1	@ _10, tmp139,,
@ ../src/config/sama5d29_curiosity/peripheral/aic/plib_aic.c:133:     volatile bool previousValue = ((CPSR_I_Msk & __get_CPSR()) == 0U);
	.loc 1 133 18 view .LVU252
	strb	r3, [sp, #6]	@ _10, previousValue
	.loc 1 134 5 is_stmt 1 view .LVU253
.LBB270:
.LBI270:
	.loc 2 656 51 view .LVU254
.LBB271:
	.loc 2 658 3 view .LVU255
	.syntax divided
@ 658 "C:/Users/M69710/.mchp_packs/ARM/CMSIS/5.9.0/CMSIS/Core_A/Include/cmsis_gcc.h" 1
	cpsid i	
@ 0 "" 2
	.arm
	.syntax unified
.LBE271:
.LBE270:
	.loc 1 135 5 view .LVU256
.LBB272:
.LBI272:
	.loc 2 374 51 view .LVU257
.LBB273:
	.loc 2 376 3 view .LVU258
	.syntax divided
@ 376 "C:/Users/M69710/.mchp_packs/ARM/CMSIS/5.9.0/CMSIS/Core_A/Include/cmsis_gcc.h" 1
	dmb 0xF	
@ 0 "" 2
	.arm
	.syntax unified
.LBE273:
.LBE272:
	.loc 1 136 5 view .LVU259
.LBE267:
.LBE266:
@ ../src/config/sama5d29_curiosity/peripheral/aic/plib_aic.c:176:     aicPtr->AIC_SSR = AIC_SSR_INTSEL( (uint32_t) aSrcSelection );
	.loc 1 176 21 is_stmt 0 view .LVU260
	mov	r1, #0	@ tmp146,
.LVL23:
.LBB276:
.LBB274:
@ ../src/config/sama5d29_curiosity/peripheral/aic/plib_aic.c:136:     return( previousValue );
	.loc 1 136 11 view .LVU261
	ldrb	r3, [sp, #6]	@ zero_extendqisi2	@ previousValue, previousValue
.LBE274:
.LBE276:
@ ../src/config/sama5d29_curiosity/peripheral/aic/plib_aic.c:176:     aicPtr->AIC_SSR = AIC_SSR_INTSEL( (uint32_t) aSrcSelection );
	.loc 1 176 21 view .LVU262
	movt	r1, 64514	@ tmp146,
@ ../src/config/sama5d29_curiosity/peripheral/aic/plib_aic.c:177:     aicPtr->AIC_IDCR = AIC_IDCR_Msk;
	.loc 1 177 22 view .LVU263
	mov	ip, #1	@ tmp148,
@ ../src/config/sama5d29_curiosity/peripheral/aic/plib_aic.c:176:     aicPtr->AIC_SSR = AIC_SSR_INTSEL( (uint32_t) aSrcSelection );
	.loc 1 176 21 view .LVU264
	str	r2, [r1]	@ _28, MEM[(struct aic_registers_t *)4227989504B].AIC_SSR
.LBB277:
.LBB275:
@ ../src/config/sama5d29_curiosity/peripheral/aic/plib_aic.c:136:     return( previousValue );
	.loc 1 136 11 view .LVU265
	uxtb	r3, r3	@ _11, previousValue
.LVL24:
	.loc 1 136 11 view .LVU266
.LBE275:
.LBE277:
	.loc 1 176 5 is_stmt 1 view .LVU267
	.loc 1 177 5 view .LVU268
@ ../src/config/sama5d29_curiosity/peripheral/aic/plib_aic.c:177:     aicPtr->AIC_IDCR = AIC_IDCR_Msk;
	.loc 1 177 22 is_stmt 0 view .LVU269
	str	ip, [r1, #68]	@ tmp148, MEM[(struct aic_registers_t *)4227989504B].AIC_IDCR
	.loc 1 178 5 is_stmt 1 view .LVU270
.LBB278:
.LBI278:
	.loc 2 364 51 view .LVU271
.LBB279:
	.loc 2 366 3 view .LVU272
	.syntax divided
@ 366 "C:/Users/M69710/.mchp_packs/ARM/CMSIS/5.9.0/CMSIS/Core_A/Include/cmsis_gcc.h" 1
	dsb 0xF	
@ 0 "" 2
	.arm
	.syntax unified
.LBE279:
.LBE278:
	.loc 1 179 5 view .LVU273
.LBB280:
.LBI280:
	.loc 2 353 51 view .LVU274
.LBB281:
	.loc 2 355 3 view .LVU275
	.syntax divided
@ 355 "C:/Users/M69710/.mchp_packs/ARM/CMSIS/5.9.0/CMSIS/Core_A/Include/cmsis_gcc.h" 1
	isb 0xF	
@ 0 "" 2
	.arm
	.syntax unified
.LBE281:
.LBE280:
	.loc 1 180 5 view .LVU276
.LVL25:
.LBB282:
.LBI282:
	.loc 1 139 6 view .LVU277
.LBB283:
	.loc 1 141 5 view .LVU278
@ ../src/config/sama5d29_curiosity/peripheral/aic/plib_aic.c:141:     if(state)
	.loc 1 141 7 is_stmt 0 view .LVU279
	cmp	r3, #0	@ _11,
	beq	.L19		@,
	.loc 1 143 9 is_stmt 1 view .LVU280
.LBB284:
.LBI284:
	.loc 2 374 51 view .LVU281
.LBB285:
	.loc 2 376 3 view .LVU282
	.syntax divided
@ 376 "C:/Users/M69710/.mchp_packs/ARM/CMSIS/5.9.0/CMSIS/Core_A/Include/cmsis_gcc.h" 1
	dmb 0xF	
@ 0 "" 2
	.arm
	.syntax unified
.LBE285:
.LBE284:
	.loc 1 144 9 view .LVU283
.LBB286:
.LBI286:
	.loc 2 646 51 view .LVU284
.LBB287:
	.loc 2 648 3 view .LVU285
	.syntax divided
@ 648 "C:/Users/M69710/.mchp_packs/ARM/CMSIS/5.9.0/CMSIS/Core_A/Include/cmsis_gcc.h" 1
	cpsie i	
@ 0 "" 2
.LVL26:
	.loc 2 648 3 is_stmt 0 view .LVU286
	.arm
	.syntax unified
.LBE287:
.LBE286:
.LBE283:
.LBE282:
	.loc 1 181 5 is_stmt 1 view .LVU287
@ ../src/config/sama5d29_curiosity/peripheral/aic/plib_aic.c:182: }
	.loc 1 182 1 is_stmt 0 view .LVU288
	add	sp, sp, #8	@,,
.LCFI8:
	.cfi_remember_state
	.cfi_def_cfa_offset 0
	@ sp needed	@
	bx	lr	@
.LVL27:
.L19:
.LCFI9:
	.cfi_restore_state
.LBB293:
.LBB292:
	.loc 1 148 9 is_stmt 1 view .LVU289
.LBB288:
.LBI288:
	.loc 2 656 51 view .LVU290
.LBB289:
	.loc 2 658 3 view .LVU291
	.syntax divided
@ 658 "C:/Users/M69710/.mchp_packs/ARM/CMSIS/5.9.0/CMSIS/Core_A/Include/cmsis_gcc.h" 1
	cpsid i	
@ 0 "" 2
	.arm
	.syntax unified
.LBE289:
.LBE288:
	.loc 1 149 9 view .LVU292
.LBB290:
.LBI290:
	.loc 2 374 51 view .LVU293
.LBB291:
	.loc 2 376 3 view .LVU294
	.syntax divided
@ 376 "C:/Users/M69710/.mchp_packs/ARM/CMSIS/5.9.0/CMSIS/Core_A/Include/cmsis_gcc.h" 1
	dmb 0xF	
@ 0 "" 2
.LVL28:
	.loc 2 376 3 is_stmt 0 view .LVU295
	.arm
	.syntax unified
.LBE291:
.LBE290:
.LBE292:
.LBE293:
	.loc 1 181 5 is_stmt 1 view .LVU296
@ ../src/config/sama5d29_curiosity/peripheral/aic/plib_aic.c:182: }
	.loc 1 182 1 is_stmt 0 view .LVU297
	add	sp, sp, #8	@,,
.LCFI10:
	.cfi_remember_state
	.cfi_def_cfa_offset 0
	@ sp needed	@
	bx	lr	@
.LVL29:
.L17:
.LCFI11:
	.cfi_restore_state
.LBB294:
.LBB263:
.LBB260:
.LBB258:
	.loc 1 148 9 is_stmt 1 view .LVU298
.LBB253:
.LBI253:
	.loc 2 656 51 view .LVU299
.LBB254:
	.loc 2 658 3 view .LVU300
	.syntax divided
@ 658 "C:/Users/M69710/.mchp_packs/ARM/CMSIS/5.9.0/CMSIS/Core_A/Include/cmsis_gcc.h" 1
	cpsid i	
@ 0 "" 2
	.arm
	.syntax unified
.LBE254:
.LBE253:
	.loc 1 149 9 view .LVU301
.LBB255:
.LBI255:
	.loc 2 374 51 view .LVU302
.LBB256:
	.loc 2 376 3 view .LVU303
	.syntax divided
@ 376 "C:/Users/M69710/.mchp_packs/ARM/CMSIS/5.9.0/CMSIS/Core_A/Include/cmsis_gcc.h" 1
	dmb 0xF	
@ 0 "" 2
	.arm
	.syntax unified
	b	.L18		@
.LBE256:
.LBE255:
.LBE258:
.LBE260:
.LBE263:
.LBE294:
	.cfi_endproc
.LFE165:
	.size	AIC_INT_SourceDisable, .-AIC_INT_SourceDisable
	.section	.text.AIC_INT_SourceRestore,code
	.align	2
	.global	AIC_INT_SourceRestore
	.syntax unified
	.arm
	.fpu neon-vfpv4
	.type	AIC_INT_SourceRestore, %function
AIC_INT_SourceRestore:
.LVL30:
.LFB166:
	.loc 1 185 1 view -0
	.cfi_startproc
	@ args = 0, pretend = 0, frame = 8
	@ frame_needed = 0, uses_anonymous_args = 0
	@ link register save eliminated.
	.loc 1 186 5 view .LVU305
@ ../src/config/sama5d29_curiosity/peripheral/aic/plib_aic.c:186:     if( status )
	.loc 1 186 7 is_stmt 0 view .LVU306
	cmp	r1, #0	@ status,
	bxeq	lr	@
.LBB295:
	.loc 1 188 9 is_stmt 1 view .LVU307
.LVL31:
	.loc 1 188 9 is_stmt 0 view .LVU308
.LBE295:
	.loc 1 155 5 is_stmt 1 view .LVU309
.LBB322:
	.loc 1 189 8 view .LVU310
.LBB296:
.LBI296:
	.loc 1 130 5 view .LVU311
.LBB297:
	.loc 1 133 5 view .LVU312
.LBB298:
.LBI298:
	.loc 2 731 55 view .LVU313
.LBB299:
	.loc 2 733 3 view .LVU314
	.loc 2 734 3 view .LVU315
.LBE299:
.LBE298:
.LBE297:
.LBE296:
.LBE322:
@ ../src/config/sama5d29_curiosity/peripheral/aic/plib_aic.c:185: {
	.loc 1 185 1 is_stmt 0 view .LVU316
	sub	sp, sp, #8	@,,
.LCFI12:
	.cfi_def_cfa_offset 8
.LBB323:
.LBB307:
.LBB306:
.LBB301:
.LBB300:
@ C:/Users/M69710/.mchp_packs/ARM/CMSIS/5.9.0/CMSIS/Core_A/Include/cmsis_gcc.h:734:   __ASM volatile("MRS %0, cpsr" : "=r" (result) );
	.loc 2 734 3 view .LVU317
	.syntax divided
@ 734 "C:/Users/M69710/.mchp_packs/ARM/CMSIS/5.9.0/CMSIS/Core_A/Include/cmsis_gcc.h" 1
	MRS r3, cpsr	@ result
@ 0 "" 2
.LVL32:
	.loc 2 735 3 is_stmt 1 view .LVU318
	.loc 2 735 3 is_stmt 0 view .LVU319
	.arm
	.syntax unified
.LBE300:
.LBE301:
@ ../src/config/sama5d29_curiosity/peripheral/aic/plib_aic.c:133:     volatile bool previousValue = ((CPSR_I_Msk & __get_CPSR()) == 0U);
	.loc 1 133 64 view .LVU320
	eor	r3, r3, #128	@ tmp120, result,
	ubfx	r3, r3, #7, #1	@ _10, tmp120,,
@ ../src/config/sama5d29_curiosity/peripheral/aic/plib_aic.c:133:     volatile bool previousValue = ((CPSR_I_Msk & __get_CPSR()) == 0U);
	.loc 1 133 18 view .LVU321
	strb	r3, [sp, #7]	@ _10, previousValue
	.loc 1 134 5 is_stmt 1 view .LVU322
.LBB302:
.LBI302:
	.loc 2 656 51 view .LVU323
.LBB303:
	.loc 2 658 3 view .LVU324
	.syntax divided
@ 658 "C:/Users/M69710/.mchp_packs/ARM/CMSIS/5.9.0/CMSIS/Core_A/Include/cmsis_gcc.h" 1
	cpsid i	
@ 0 "" 2
	.arm
	.syntax unified
.LBE303:
.LBE302:
	.loc 1 135 5 view .LVU325
.LBB304:
.LBI304:
	.loc 2 374 51 view .LVU326
.LBB305:
	.loc 2 376 3 view .LVU327
	.syntax divided
@ 376 "C:/Users/M69710/.mchp_packs/ARM/CMSIS/5.9.0/CMSIS/Core_A/Include/cmsis_gcc.h" 1
	dmb 0xF	
@ 0 "" 2
	.arm
	.syntax unified
.LBE305:
.LBE304:
	.loc 1 136 5 view .LVU328
@ ../src/config/sama5d29_curiosity/peripheral/aic/plib_aic.c:136:     return( previousValue );
	.loc 1 136 11 is_stmt 0 view .LVU329
	ldrb	r2, [sp, #7]	@ zero_extendqisi2	@ previousValue, previousValue
.LVL33:
	.loc 1 136 11 view .LVU330
.LBE306:
.LBE307:
	.loc 1 190 9 is_stmt 1 view .LVU331
@ ../src/config/sama5d29_curiosity/peripheral/aic/plib_aic.c:190:         aicPtr->AIC_SSR = AIC_SSR_INTSEL( (uint32_t) aSrcSelection );
	.loc 1 190 25 is_stmt 0 view .LVU332
	mov	r3, #0	@ tmp128,
.LBB308:
.LBB309:
@ ../src/config/sama5d29_curiosity/peripheral/aic/plib_aic.c:141:     if(state)
	.loc 1 141 7 view .LVU333
	cmp	r2, r3	@ previousValue,
.LBE309:
.LBE308:
@ ../src/config/sama5d29_curiosity/peripheral/aic/plib_aic.c:190:         aicPtr->AIC_SSR = AIC_SSR_INTSEL( (uint32_t) aSrcSelection );
	.loc 1 190 68 view .LVU334
	and	r0, r0, #127	@ _1, aSrcSelection,
.LVL34:
@ ../src/config/sama5d29_curiosity/peripheral/aic/plib_aic.c:190:         aicPtr->AIC_SSR = AIC_SSR_INTSEL( (uint32_t) aSrcSelection );
	.loc 1 190 25 view .LVU335
	movt	r3, 64514	@ tmp128,
@ ../src/config/sama5d29_curiosity/peripheral/aic/plib_aic.c:191:         aicPtr->AIC_IECR = AIC_IECR_Msk;
	.loc 1 191 26 view .LVU336
	mov	r2, #1	@ tmp130,
.LVL35:
@ ../src/config/sama5d29_curiosity/peripheral/aic/plib_aic.c:190:         aicPtr->AIC_SSR = AIC_SSR_INTSEL( (uint32_t) aSrcSelection );
	.loc 1 190 25 view .LVU337
	str	r0, [r3]	@ _1, MEM[(struct aic_registers_t *)4227989504B].AIC_SSR
	.loc 1 191 9 is_stmt 1 view .LVU338
@ ../src/config/sama5d29_curiosity/peripheral/aic/plib_aic.c:191:         aicPtr->AIC_IECR = AIC_IECR_Msk;
	.loc 1 191 26 is_stmt 0 view .LVU339
	str	r2, [r3, #64]	@ tmp130, MEM[(struct aic_registers_t *)4227989504B].AIC_IECR
	.loc 1 192 9 is_stmt 1 view .LVU340
.LVL36:
.LBB320:
.LBI308:
	.loc 1 139 6 view .LVU341
.LBB318:
	.loc 1 141 5 view .LVU342
@ ../src/config/sama5d29_curiosity/peripheral/aic/plib_aic.c:141:     if(state)
	.loc 1 141 7 is_stmt 0 view .LVU343
	bne	.L32		@,
	.loc 1 148 9 is_stmt 1 view .LVU344
.LBB310:
.LBI310:
	.loc 2 656 51 view .LVU345
.LBB311:
	.loc 2 658 3 view .LVU346
	.syntax divided
@ 658 "C:/Users/M69710/.mchp_packs/ARM/CMSIS/5.9.0/CMSIS/Core_A/Include/cmsis_gcc.h" 1
	cpsid i	
@ 0 "" 2
	.arm
	.syntax unified
.LBE311:
.LBE310:
	.loc 1 149 9 view .LVU347
.LBB312:
.LBI312:
	.loc 2 374 51 view .LVU348
.LBB313:
	.loc 2 376 3 view .LVU349
	.syntax divided
@ 376 "C:/Users/M69710/.mchp_packs/ARM/CMSIS/5.9.0/CMSIS/Core_A/Include/cmsis_gcc.h" 1
	dmb 0xF	
@ 0 "" 2
	.arm
	.syntax unified
.LBE313:
.LBE312:
.LBE318:
.LBE320:
.LBE323:
	.loc 1 194 5 view .LVU350
@ ../src/config/sama5d29_curiosity/peripheral/aic/plib_aic.c:195: }
	.loc 1 195 1 is_stmt 0 view .LVU351
	add	sp, sp, #8	@,,
.LCFI13:
	.cfi_remember_state
	.cfi_def_cfa_offset 0
	@ sp needed	@
	bx	lr	@
.L32:
.LCFI14:
	.cfi_restore_state
.LBB324:
.LBB321:
.LBB319:
	.loc 1 143 9 is_stmt 1 view .LVU352
.LBB314:
.LBI314:
	.loc 2 374 51 view .LVU353
.LBB315:
	.loc 2 376 3 view .LVU354
	.syntax divided
@ 376 "C:/Users/M69710/.mchp_packs/ARM/CMSIS/5.9.0/CMSIS/Core_A/Include/cmsis_gcc.h" 1
	dmb 0xF	
@ 0 "" 2
	.arm
	.syntax unified
.LBE315:
.LBE314:
	.loc 1 144 9 view .LVU355
.LBB316:
.LBI316:
	.loc 2 646 51 view .LVU356
.LBB317:
	.loc 2 648 3 view .LVU357
	.syntax divided
@ 648 "C:/Users/M69710/.mchp_packs/ARM/CMSIS/5.9.0/CMSIS/Core_A/Include/cmsis_gcc.h" 1
	cpsie i	
@ 0 "" 2
	.arm
	.syntax unified
.LBE317:
.LBE316:
.LBE319:
.LBE321:
.LBE324:
@ ../src/config/sama5d29_curiosity/peripheral/aic/plib_aic.c:195: }
	.loc 1 195 1 is_stmt 0 view .LVU358
	add	sp, sp, #8	@,,
.LCFI15:
	.cfi_def_cfa_offset 0
	@ sp needed	@
	bx	lr	@
	.cfi_endproc
.LFE166:
	.size	AIC_INT_SourceRestore, .-AIC_INT_SourceRestore
	.section	.text,code
.Letext0:
	.file 3 "c:\\program files\\microchip\\xc32\\v4.60\\pic32c\\include\\musl\\bits\\alltypes.h"
	.file 4 "../src/packs/ATSAMA5D29_DFP/sama5d29.h"
	.file 5 "../src/packs/ATSAMA5D29_DFP/component/aic.h"
	.file 6 "../src/packs/ATSAMA5D29_DFP/component/sfr.h"