	.cpu cortex-a5
	.eabi_attribute 28, 1	@ Tag_ABI_VFP_args
	.eabi_attribute 20, 1	@ Tag_ABI_FP_denormal
	.eabi_attribute 21, 1	@ Tag_ABI_FP_exceptions
	.eabi_attribute 23, 3	@ Tag_ABI_FP_number_model
	.eabi_attribute 24, 1	@ Tag_ABI_align8_needed
	.eabi_attribute 25, 1	@ Tag_ABI_align8_preserved
	.eabi_attribute 26, 1	@ Tag_ABI_enum_size
	.eabi_attribute 30, 2	@ Tag_ABI_optimization_goals
	.eabi_attribute 34, 1	@ Tag_CPU_unaligned_access
	.eabi_attribute 18, 4	@ Tag_ABI_PCS_wchar_t
	.file	"plib_clk.c"
@ GNU C17 (Microchip XC32 Compiler v4.60) version 8.3.1 (pic32c)
@	compiled by GNU C version 9.3-win32 20200320, GMP version 6.1.0, MPFR version 3.1.4, MPC version 1.0.3, isl version none
@ GGC heuristics: --param ggc-min-expand=100 --param ggc-min-heapsize=131072
@ options passed:  -fpreprocessed plib_clk.i -D__SAMA5D29__
@ -mfpu=neon-vfpv4 -fverbose-asm
@ -mconfig-data-file=C:/Program Files/Microchip/MPLABX/v6.25/packs/Microchip/SAMA5D2_DFP/1.12.233/xc32/ATSAMA5D29/configuration.data
@ -isystem c:/program files/microchip/xc32/v4.60/bin/bin/../../pic32c/include/CMSIS/Core_A/Include
@ -D__XC32_INCLUDE_MCC
@ -isystem c:/program files/microchip/xc32/v4.60/bin/bin/../../pic32c/include_mcc
@ -marm -mprocessor=ATSAMA5D29
@ -mdfp=C:/Program Files/Microchip/MPLABX/v6.25/packs/Microchip/SAMA5D2_DFP/1.12.233
@ -mcpu=cortex-a5 -mfloat-abi=hard -mfpu=neon-vfpv4
@ -march=armv7-a+mp+sec+neon-vfpv4
@ -auxbase-strip build/sama5d29_curiosity/production/_ext/922303503/plib_clk.o
@ -g -O3 -Werror -Wall -ffunction-sections -fdata-sections
@ -ftoplevel-reorder -fno-common -fno-lto
@ options enabled:  -faggressive-loop-optimizations -falign-jumps
@ -falign-labels -falign-loops -fauto-inc-dec -fbranch-count-reg
@ -fcaller-saves -fchkp-check-incomplete-type -fchkp-check-read
@ -fchkp-check-write -fchkp-instrument-calls -fchkp-narrow-bounds
@ -fchkp-optimize -fchkp-store-bounds -fchkp-use-static-bounds
@ -fchkp-use-static-const-bounds -fchkp-use-wrappers -fcode-hoisting
@ -fcombine-stack-adjustments -fcompare-elim -fcprop-registers
@ -fcrossjumping -fcse-follow-jumps -fdata-sections -fdebug-types-section
@ -fdefer-pop -fdelete-null-pointer-checks -fdevirtualize
@ -fdevirtualize-speculatively -fdwarf2-cfi-asm -fearly-inlining
@ -feliminate-unused-debug-symbols -feliminate-unused-debug-types
@ -fexpensive-optimizations -fforward-propagate -ffp-int-builtin-inexact
@ -ffunction-cse -ffunction-sections -fgcse -fgcse-after-reload -fgcse-lm
@ -fgnu-runtime -fgnu-unique -fguess-branch-probability
@ -fhoist-adjacent-loads -fident -fif-conversion -fif-conversion2
@ -findirect-inlining -finline -finline-atomics -finline-functions
@ -finline-functions-called-once -finline-small-functions -fipa-bit-cp
@ -fipa-cp -fipa-cp-clone -fipa-icf -fipa-icf-functions -fipa-icf-variables
@ -fipa-profile -fipa-pure-const -fipa-ra -fipa-reference -fipa-sra
@ -fipa-vrp -fira-hoist-pressure -fira-share-save-slots
@ -fira-share-spill-slots -fisolate-erroneous-paths-dereference -fivopts
@ -fkeep-static-consts -fleading-underscore -flifetime-dse
@ -floop-unroll-and-jam -flra-remat -flto-odr-type-merging -fmath-errno
@ -fmerge-constants -fmerge-debug-strings -fmove-loop-invariants
@ -fomit-frame-pointer -foptimize-sibling-calls -foptimize-strlen
@ -fpartial-inlining -fpeel-loops -fpeephole -fpeephole2 -fplt
@ -fpredictive-commoning -fprefetch-loop-arrays -freg-struct-return
@ -freorder-blocks -freorder-functions -frerun-cse-after-loop
@ -fsched-critical-path-heuristic -fsched-dep-count-heuristic
@ -fsched-group-heuristic -fsched-interblock -fsched-last-insn-heuristic
@ -fsched-pressure -fsched-rank-heuristic -fsched-spec
@ -fsched-spec-insn-heuristic -fsched-stalled-insns-dep -fschedule-insns
@ -fschedule-insns2 -fsection-anchors -fsemantic-interposition
@ -fshow-column -fshrink-wrap -fshrink-wrap-separate -fsigned-zeros
@ -fsplit-ivs-in-unroller -fsplit-loops -fsplit-paths -fsplit-wide-types
@ -fssa-backprop -fssa-phiopt -fstdarg-opt -fstore-merging
@ -fstrict-aliasing -fstrict-volatile-bitfields -fsync-libcalls
@ -fthread-jumps -ftoplevel-reorder -ftrapping-math -ftree-bit-ccp
@ -ftree-builtin-call-dce -ftree-ccp -ftree-ch -ftree-coalesce-vars
@ -ftree-copy-prop -ftree-cselim -ftree-dce -ftree-dominator-opts
@ -ftree-dse -ftree-forwprop -ftree-fre -ftree-loop-distribute-patterns
@ -ftree-loop-if-convert -ftree-loop-im -ftree-loop-ivcanon
@ -ftree-loop-optimize -ftree-loop-vectorize -ftree-parallelize-loops=
@ -ftree-partial-pre -ftree-phiprop -ftree-pre -ftree-pta -ftree-reassoc
@ -ftree-scev-cprop -ftree-sink -ftree-slp-vectorize -ftree-slsr -ftree-sra
@ -ftree-switch-conversion -ftree-tail-merge -ftree-ter -ftree-vrp
@ -funit-at-a-time -funswitch-loops -fvar-tracking
@ -fvar-tracking-assignments -fverbose-asm -fzero-initialized-in-bss
@ -madj-exiting-edge-prob -marm -mauto-indexing -mbe32 -mlittle-endian
@ -mloop-rename-registers -mpic-data-is-text-relative -msched-prolog
@ -munaligned-access -mvectorize-with-neon-quad -mvectors-in-tcm

	.section	.text,code
.Ltext0:
	.cfi_sections	.debug_frame
	.section	.text.CLK_UTMIPLLEnable,code
	.align	2
	.global	CLK_UTMIPLLEnable
	.arch armv7-a
	.arch_extension mp
	.arch_extension sec
	.syntax unified
	.arm
	.fpu neon-vfpv4
	.type	CLK_UTMIPLLEnable, %function
CLK_UTMIPLLEnable:
.LFB136:
	.file 1 "../src/config/sama5d29_curiosity/peripheral/clk/plib_clk.c"
	.loc 1 35 1 view -0
	.cfi_startproc
	@ args = 0, pretend = 0, frame = 0
	@ frame_needed = 0, uses_anonymous_args = 0
	@ link register save eliminated.
	.loc 1 37 5 view .LVU1
@ ../src/config/sama5d29_curiosity/peripheral/clk/plib_clk.c:37:     PMC_REGS->CKGR_UCKR |= CKGR_UCKR_UPLLEN_Msk;
	.loc 1 37 47 is_stmt 0 view .LVU2
	mov	r3, #16384	@ tmp114,
	movt	r3, 61441	@ tmp114,
@ ../src/config/sama5d29_curiosity/peripheral/clk/plib_clk.c:40:     while ((PMC_REGS->PMC_SR & PMC_SR_LOCKU_Msk) != PMC_SR_LOCKU_Msk)
	.loc 1 40 43 view .LVU3
	mov	r2, r3	@ tmp116, tmp114
@ ../src/config/sama5d29_curiosity/peripheral/clk/plib_clk.c:37:     PMC_REGS->CKGR_UCKR |= CKGR_UCKR_UPLLEN_Msk;
	.loc 1 37 47 view .LVU4
	ldr	r1, [r3, #28]	@ _1, MEM[(struct pmc_registers_t *)4026613760B].CKGR_UCKR
	orr	r1, r1, #65536	@ _2, _1,
	str	r1, [r3, #28]	@ _2, MEM[(struct pmc_registers_t *)4026613760B].CKGR_UCKR
	.loc 1 40 5 is_stmt 1 view .LVU5
.L2:
	.loc 1 43 5 discriminator 1 view .LVU6
@ ../src/config/sama5d29_curiosity/peripheral/clk/plib_clk.c:40:     while ((PMC_REGS->PMC_SR & PMC_SR_LOCKU_Msk) != PMC_SR_LOCKU_Msk)
	.loc 1 40 43 is_stmt 0 discriminator 1 view .LVU7
	ldr	r3, [r2, #104]	@ _3, MEM[(struct pmc_registers_t *)4026613760B].PMC_SR
@ ../src/config/sama5d29_curiosity/peripheral/clk/plib_clk.c:40:     while ((PMC_REGS->PMC_SR & PMC_SR_LOCKU_Msk) != PMC_SR_LOCKU_Msk)
	.loc 1 40 11 discriminator 1 view .LVU8
	tst	r3, #64	@ _3,
	beq	.L2		@,
	bx	lr	@
	.cfi_endproc
.LFE136:
	.size	CLK_UTMIPLLEnable, .-CLK_UTMIPLLEnable
	.section	.text.CLK_UTMIPLLDisable,code
	.align	2
	.global	CLK_UTMIPLLDisable
	.syntax unified
	.arm
	.fpu neon-vfpv4
	.type	CLK_UTMIPLLDisable, %function
CLK_UTMIPLLDisable:
.LFB137:
	.loc 1 47 1 is_stmt 1 view -0
	.cfi_startproc
	@ args = 0, pretend = 0, frame = 0
	@ frame_needed = 0, uses_anonymous_args = 0
	@ link register save eliminated.
	.loc 1 49 5 view .LVU10
@ ../src/config/sama5d29_curiosity/peripheral/clk/plib_clk.c:49:     PMC_REGS->CKGR_UCKR &= ~CKGR_UCKR_UPLLEN_Msk;
	.loc 1 49 47 is_stmt 0 view .LVU11
	mov	r3, #16384	@ tmp112,
	movt	r3, 61441	@ tmp112,
	ldr	r2, [r3, #28]	@ _1, MEM[(struct pmc_registers_t *)4026613760B].CKGR_UCKR
	bic	r2, r2, #65536	@ _2, _1,
	str	r2, [r3, #28]	@ _2, MEM[(struct pmc_registers_t *)4026613760B].CKGR_UCKR
@ ../src/config/sama5d29_curiosity/peripheral/clk/plib_clk.c:50: }
	.loc 1 50 1 view .LVU12
	bx	lr	@
	.cfi_endproc
.LFE137:
	.size	CLK_UTMIPLLDisable, .-CLK_UTMIPLLDisable
	.section	.text.CLK_Initialize,code
	.align	2
	.global	CLK_Initialize
	.syntax unified
	.arm
	.fpu neon-vfpv4
	.type	CLK_Initialize, %function
CLK_Initialize:
.LFB139:
	.loc 1 83 1 is_stmt 1 view -0
	.cfi_startproc
	@ args = 0, pretend = 0, frame = 0
	@ frame_needed = 0, uses_anonymous_args = 0
	@ link register save eliminated.
	.loc 1 85 5 view .LVU14
.LBB4:
.LBI4:
	.loc 1 65 13 view .LVU15
.LBB5:
	.loc 1 69 5 view .LVU16
@ ../src/config/sama5d29_curiosity/peripheral/clk/plib_clk.c:69:     PMC_REGS->PMC_PCER0=0x1042000U;
	.loc 1 69 46 is_stmt 0 view .LVU17
	mov	r3, #16384	@ tmp110,
	mov	r1, #8192	@ tmp111,
@ ../src/config/sama5d29_curiosity/peripheral/clk/plib_clk.c:70:     PMC_REGS->PMC_PCDR0=~0x1042000U;
	.loc 1 70 46 view .LVU18
	movw	r2, #57343	@ tmp113,
@ ../src/config/sama5d29_curiosity/peripheral/clk/plib_clk.c:69:     PMC_REGS->PMC_PCER0=0x1042000U;
	.loc 1 69 46 view .LVU19
	movt	r3, 61441	@ tmp110,
	movt	r1, 260	@ tmp111,
@ ../src/config/sama5d29_curiosity/peripheral/clk/plib_clk.c:70:     PMC_REGS->PMC_PCDR0=~0x1042000U;
	.loc 1 70 46 view .LVU20
	movt	r2, 65275	@ tmp113,
@ ../src/config/sama5d29_curiosity/peripheral/clk/plib_clk.c:71:     PMC_REGS->PMC_PCER1=0x8U;
	.loc 1 71 46 view .LVU21
	mov	ip, #8	@ tmp115,
@ ../src/config/sama5d29_curiosity/peripheral/clk/plib_clk.c:72:     PMC_REGS->PMC_PCDR1=~0x8U;
	.loc 1 72 46 view .LVU22
	mvn	r0, #8	@ tmp117,
@ ../src/config/sama5d29_curiosity/peripheral/clk/plib_clk.c:69:     PMC_REGS->PMC_PCER0=0x1042000U;
	.loc 1 69 46 view .LVU23
	str	r1, [r3, #16]	@ tmp111, MEM[(struct pmc_registers_t *)4026613760B].PMC_PCER0
	.loc 1 70 5 is_stmt 1 view .LVU24
@ ../src/config/sama5d29_curiosity/peripheral/clk/plib_clk.c:70:     PMC_REGS->PMC_PCDR0=~0x1042000U;
	.loc 1 70 46 is_stmt 0 view .LVU25
	str	r2, [r3, #20]	@ tmp113, MEM[(struct pmc_registers_t *)4026613760B].PMC_PCDR0
	.loc 1 71 5 is_stmt 1 view .LVU26
@ ../src/config/sama5d29_curiosity/peripheral/clk/plib_clk.c:71:     PMC_REGS->PMC_PCER1=0x8U;
	.loc 1 71 46 is_stmt 0 view .LVU27
	str	ip, [r3, #256]	@ tmp115, MEM[(struct pmc_registers_t *)4026613760B].PMC_PCER1
	.loc 1 72 5 is_stmt 1 view .LVU28
@ ../src/config/sama5d29_curiosity/peripheral/clk/plib_clk.c:72:     PMC_REGS->PMC_PCDR1=~0x8U;
	.loc 1 72 46 is_stmt 0 view .LVU29
	str	r0, [r3, #260]	@ tmp117, MEM[(struct pmc_registers_t *)4026613760B].PMC_PCDR1
.LBE5:
.LBE4:
@ ../src/config/sama5d29_curiosity/peripheral/clk/plib_clk.c:87: }
	.loc 1 87 1 view .LVU30
	bx	lr	@
	.cfi_endproc
.LFE139:
	.size	CLK_Initialize, .-CLK_Initialize
	.section	.text,code
.Letext0:
	.file 2 "c:\\program files\\microchip\\xc32\\v4.60\\pic32c\\include\\musl\\bits\\alltypes.h"
	.file 3 "../src/packs/ATSAMA5D29_DFP/component/pmc.h"