	.cpu cortex-a5
	.eabi_attribute 28, 1	@ Tag_ABI_VFP_args
	.eabi_attribute 20, 1	@ Tag_ABI_FP_denormal
	.eabi_attribute 21, 1	@ Tag_ABI_FP_exceptions
	.eabi_attribute 23, 3	@ Tag_ABI_FP_number_model
	.eabi_attribute 24, 1	@ Tag_ABI_align8_needed
	.eabi_attribute 25, 1	@ Tag_ABI_align8_preserved
	.eabi_attribute 26, 1	@ Tag_ABI_enum_size
	.eabi_attribute 30, 2	@ Tag_ABI_optimization_goals
	.eabi_attribute 34, 1	@ Tag_CPU_unaligned_access
	.eabi_attribute 18, 4	@ Tag_ABI_PCS_wchar_t
	.file	"sys_int.c"
@ GNU C17 (Microchip XC32 Compiler v4.60) version 8.3.1 (pic32c)
@	compiled by GNU C version 9.3-win32 20200320, GMP version 6.1.0, MPFR version 3.1.4, MPC version 1.0.3, isl version none
@ GGC heuristics: --param ggc-min-expand=100 --param ggc-min-heapsize=131072
@ options passed:  -fpreprocessed sys_int.i -D__SAMA5D29__ -mfpu=neon-vfpv4
@ -fverbose-asm
@ -mconfig-data-file=C:/Program Files/Microchip/MPLABX/v6.25/packs/Microchip/SAMA5D2_DFP/1.12.233/xc32/ATSAMA5D29/configuration.data
@ -isystem c:/program files/microchip/xc32/v4.60/bin/bin/../../pic32c/include/CMSIS/Core_A/Include
@ -D__XC32_INCLUDE_MCC
@ -isystem c:/program files/microchip/xc32/v4.60/bin/bin/../../pic32c/include_mcc
@ -marm -mprocessor=ATSAMA5D29
@ -mdfp=C:/Program Files/Microchip/MPLABX/v6.25/packs/Microchip/SAMA5D2_DFP/1.12.233
@ -mcpu=cortex-a5 -mfloat-abi=hard -mfpu=neon-vfpv4
@ -march=armv7-a+mp+sec+neon-vfpv4
@ -auxbase-strip build/sama5d29_curiosity/production/_ext/899199430/sys_int.o
@ -g -O3 -Werror -Wall -ffunction-sections -fdata-sections
@ -ftoplevel-reorder -fno-common -fno-lto
@ options enabled:  -faggressive-loop-optimizations -falign-jumps
@ -falign-labels -falign-loops -fauto-inc-dec -fbranch-count-reg
@ -fcaller-saves -fchkp-check-incomplete-type -fchkp-check-read
@ -fchkp-check-write -fchkp-instrument-calls -fchkp-narrow-bounds
@ -fchkp-optimize -fchkp-store-bounds -fchkp-use-static-bounds
@ -fchkp-use-static-const-bounds -fchkp-use-wrappers -fcode-hoisting
@ -fcombine-stack-adjustments -fcompare-elim -fcprop-registers
@ -fcrossjumping -fcse-follow-jumps -fdata-sections -fdebug-types-section
@ -fdefer-pop -fdelete-null-pointer-checks -fdevirtualize
@ -fdevirtualize-speculatively -fdwarf2-cfi-asm -fearly-inlining
@ -feliminate-unused-debug-symbols -feliminate-unused-debug-types
@ -fexpensive-optimizations -fforward-propagate -ffp-int-builtin-inexact
@ -ffunction-cse -ffunction-sections -fgcse -fgcse-after-reload -fgcse-lm
@ -fgnu-runtime -fgnu-unique -fguess-branch-probability
@ -fhoist-adjacent-loads -fident -fif-conversion -fif-conversion2
@ -findirect-inlining -finline -finline-atomics -finline-functions
@ -finline-functions-called-once -finline-small-functions -fipa-bit-cp
@ -fipa-cp -fipa-cp-clone -fipa-icf -fipa-icf-functions -fipa-icf-variables
@ -fipa-profile -fipa-pure-const -fipa-ra -fipa-reference -fipa-sra
@ -fipa-vrp -fira-hoist-pressure -fira-share-save-slots
@ -fira-share-spill-slots -fisolate-erroneous-paths-dereference -fivopts
@ -fkeep-static-consts -fleading-underscore -flifetime-dse
@ -floop-unroll-and-jam -flra-remat -flto-odr-type-merging -fmath-errno
@ -fmerge-constants -fmerge-debug-strings -fmove-loop-invariants
@ -fomit-frame-pointer -foptimize-sibling-calls -foptimize-strlen
@ -fpartial-inlining -fpeel-loops -fpeephole -fpeephole2 -fplt
@ -fpredictive-commoning -fprefetch-loop-arrays -freg-struct-return
@ -freorder-blocks -freorder-functions -frerun-cse-after-loop
@ -fsched-critical-path-heuristic -fsched-dep-count-heuristic
@ -fsched-group-heuristic -fsched-interblock -fsched-last-insn-heuristic
@ -fsched-pressure -fsched-rank-heuristic -fsched-spec
@ -fsched-spec-insn-heuristic -fsched-stalled-insns-dep -fschedule-insns
@ -fschedule-insns2 -fsection-anchors -fsemantic-interposition
@ -fshow-column -fshrink-wrap -fshrink-wrap-separate -fsigned-zeros
@ -fsplit-ivs-in-unroller -fsplit-loops -fsplit-paths -fsplit-wide-types
@ -fssa-backprop -fssa-phiopt -fstdarg-opt -fstore-merging
@ -fstrict-aliasing -fstrict-volatile-bitfields -fsync-libcalls
@ -fthread-jumps -ftoplevel-reorder -ftrapping-math -ftree-bit-ccp
@ -ftree-builtin-call-dce -ftree-ccp -ftree-ch -ftree-coalesce-vars
@ -ftree-copy-prop -ftree-cselim -ftree-dce -ftree-dominator-opts
@ -ftree-dse -ftree-forwprop -ftree-fre -ftree-loop-distribute-patterns
@ -ftree-loop-if-convert -ftree-loop-im -ftree-loop-ivcanon
@ -ftree-loop-optimize -ftree-loop-vectorize -ftree-parallelize-loops=
@ -ftree-partial-pre -ftree-phiprop -ftree-pre -ftree-pta -ftree-reassoc
@ -ftree-scev-cprop -ftree-sink -ftree-slp-vectorize -ftree-slsr -ftree-sra
@ -ftree-switch-conversion -ftree-tail-merge -ftree-ter -ftree-vrp
@ -funit-at-a-time -funswitch-loops -fvar-tracking
@ -fvar-tracking-assignments -fverbose-asm -fzero-initialized-in-bss
@ -madj-exiting-edge-prob -marm -mauto-indexing -mbe32 -mlittle-endian
@ -mloop-rename-registers -mpic-data-is-text-relative -msched-prolog
@ -munaligned-access -mvectorize-with-neon-quad -mvectors-in-tcm

	.section	.text,code
.Ltext0:
	.cfi_sections	.debug_frame
	.section	.text.SYS_INT_IsEnabled,code
	.align	2
	.global	SYS_INT_IsEnabled
	.arch armv7-a
	.arch_extension mp
	.arch_extension sec
	.syntax unified
	.arm
	.fpu neon-vfpv4
	.type	SYS_INT_IsEnabled, %function
SYS_INT_IsEnabled:
.LFB137:
	.file 1 "../src/config/sama5d29_curiosity/system/int/src/sys_int.c"
	.loc 1 79 1 view -0
	.cfi_startproc
	@ args = 0, pretend = 0, frame = 0
	@ frame_needed = 0, uses_anonymous_args = 0
	@ link register save eliminated.
	.loc 1 80 4 view .LVU1
.LVL0:
	.loc 1 82 5 view .LVU2
.LBB56:
.LBI56:
	.file 2 "C:/Users/M69710/.mchp_packs/ARM/CMSIS/5.9.0/CMSIS/Core_A/Include/cmsis_gcc.h"
	.loc 2 731 55 view .LVU3
.LBB57:
	.loc 2 733 3 view .LVU4
	.loc 2 734 3 view .LVU5
	.syntax divided
@ 734 "C:/Users/M69710/.mchp_packs/ARM/CMSIS/5.9.0/CMSIS/Core_A/Include/cmsis_gcc.h" 1
	MRS r0, cpsr	@ result
@ 0 "" 2
.LVL1:
	.loc 2 735 3 view .LVU6
	.loc 2 735 3 is_stmt 0 view .LVU7
	.arm
	.syntax unified
.LBE57:
.LBE56:
	.loc 1 86 5 is_stmt 1 view .LVU8
@ ../src/config/sama5d29_curiosity/system/int/src/sys_int.c:82:     if(( CPSR_I_Msk & __get_CPSR() ) != 0U)
	.loc 1 82 7 is_stmt 0 view .LVU9
	eor	r0, r0, #128	@ tmp116, result,
.LVL2:
@ ../src/config/sama5d29_curiosity/system/int/src/sys_int.c:87: }
	.loc 1 87 1 view .LVU10
	ubfx	r0, r0, #7, #1	@, tmp116,,
.LVL3:
	.loc 1 87 1 view .LVU11
	bx	lr	@
	.cfi_endproc
.LFE137:
	.size	SYS_INT_IsEnabled, .-SYS_INT_IsEnabled
	.section	.text.SYS_INT_Enable,code
	.align	2
	.global	SYS_INT_Enable
	.syntax unified
	.arm
	.fpu neon-vfpv4
	.type	SYS_INT_Enable, %function
SYS_INT_Enable:
.LFB138:
	.loc 1 91 1 is_stmt 1 view -0
	.cfi_startproc
	@ args = 0, pretend = 0, frame = 0
	@ frame_needed = 0, uses_anonymous_args = 0
	@ link register save eliminated.
	.loc 1 92 5 view .LVU13
	b	AIC_INT_IrqEnable		@
.LVL4:
	.cfi_endproc
.LFE138:
	.size	SYS_INT_Enable, .-SYS_INT_Enable
	.section	.text.SYS_INT_Disable,code
	.align	2
	.global	SYS_INT_Disable
	.syntax unified
	.arm
	.fpu neon-vfpv4
	.type	SYS_INT_Disable, %function
SYS_INT_Disable:
.LFB139:
	.loc 1 97 1 view -0
	.cfi_startproc
	@ args = 0, pretend = 0, frame = 0
	@ frame_needed = 0, uses_anonymous_args = 0
	@ link register save eliminated.
	.loc 1 98 5 view .LVU15
@ ../src/config/sama5d29_curiosity/system/int/src/sys_int.c:98:     return AIC_INT_IrqDisable();
	.loc 1 98 12 is_stmt 0 view .LVU16
	b	AIC_INT_IrqDisable		@
.LVL5:
	.cfi_endproc
.LFE139:
	.size	SYS_INT_Disable, .-SYS_INT_Disable
	.section	.text.SYS_INT_Restore,code
	.align	2
	.global	SYS_INT_Restore
	.syntax unified
	.arm
	.fpu neon-vfpv4
	.type	SYS_INT_Restore, %function
SYS_INT_Restore:
.LVL6:
.LFB140:
	.loc 1 103 1 is_stmt 1 view -0
	.cfi_startproc
	@ args = 0, pretend = 0, frame = 0
	@ frame_needed = 0, uses_anonymous_args = 0
	@ link register save eliminated.
	.loc 1 104 5 view .LVU18
	b	AIC_INT_IrqRestore		@
.LVL7:
	.loc 1 104 5 is_stmt 0 view .LVU19
	.cfi_endproc
.LFE140:
	.size	SYS_INT_Restore, .-SYS_INT_Restore
	.section	.text.SYS_INT_SourceIsEnabled,code
	.align	2
	.global	SYS_INT_SourceIsEnabled
	.syntax unified
	.arm
	.fpu neon-vfpv4
	.type	SYS_INT_SourceIsEnabled, %function
SYS_INT_SourceIsEnabled:
.LVL8:
.LFB141:
	.loc 1 109 1 is_stmt 1 view -0
	.cfi_startproc
	@ args = 0, pretend = 0, frame = 0
	@ frame_needed = 0, uses_anonymous_args = 0
	.loc 1 110 4 view .LVU21
	.loc 1 111 5 view .LVU22
@ ../src/config/sama5d29_curiosity/system/int/src/sys_int.c:109: {
	.loc 1 109 1 is_stmt 0 view .LVU23
	push	{r4, lr}	@
.LCFI0:
	.cfi_def_cfa_offset 8
	.cfi_offset 4, -8
	.cfi_offset 14, -4
@ ../src/config/sama5d29_curiosity/system/int/src/sys_int.c:109: {
	.loc 1 109 1 view .LVU24
	mov	r4, r0	@ aSrcSelection, aSrcSelection
.LVL9:
	.loc 1 73 3 is_stmt 1 view .LVU25
	.loc 1 112 4 view .LVU26
.LBB62:
.LBI62:
	.loc 1 96 1 view .LVU27
.LBB63:
	.loc 1 98 5 view .LVU28
@ ../src/config/sama5d29_curiosity/system/int/src/sys_int.c:98:     return AIC_INT_IrqDisable();
	.loc 1 98 12 is_stmt 0 view .LVU29
	bl	AIC_INT_IrqDisable		@
.LVL10:
	.loc 1 98 12 view .LVU30
.LBE63:
.LBE62:
	.loc 1 113 5 is_stmt 1 view .LVU31
@ ../src/config/sama5d29_curiosity/system/int/src/sys_int.c:113:     aicPtr->AIC_SSR = AIC_SSR_INTSEL( (uint32_t) aSrcSelection );
	.loc 1 113 21 is_stmt 0 view .LVU32
	mov	r3, #0	@ tmp118,
	movt	r3, 64514	@ tmp118,
@ ../src/config/sama5d29_curiosity/system/int/src/sys_int.c:113:     aicPtr->AIC_SSR = AIC_SSR_INTSEL( (uint32_t) aSrcSelection );
	.loc 1 113 64 view .LVU33
	and	r4, r4, #127	@ _1, aSrcSelection,
.LVL11:
@ ../src/config/sama5d29_curiosity/system/int/src/sys_int.c:113:     aicPtr->AIC_SSR = AIC_SSR_INTSEL( (uint32_t) aSrcSelection );
	.loc 1 113 21 view .LVU34
	str	r4, [r3]	@ _1, MEM[(struct aic_registers_t *)4227989504B].AIC_SSR
	.loc 1 114 5 is_stmt 1 view .LVU35
@ ../src/config/sama5d29_curiosity/system/int/src/sys_int.c:114:     if(( aicPtr->AIC_IMR & AIC_IMR_Msk ) != 0U)
	.loc 1 114 16 is_stmt 0 view .LVU36
	ldr	r4, [r3, #48]	@ _2, MEM[(struct aic_registers_t *)4227989504B].AIC_IMR
.LVL12:
	.loc 1 118 5 is_stmt 1 view .LVU37
.LBB64:
.LBI64:
	.loc 1 102 1 view .LVU38
.LBB65:
	.loc 1 104 5 view .LVU39
	bl	AIC_INT_IrqRestore		@
.LVL13:
	.loc 1 104 5 is_stmt 0 view .LVU40
.LBE65:
.LBE64:
	.loc 1 119 5 is_stmt 1 view .LVU41
@ ../src/config/sama5d29_curiosity/system/int/src/sys_int.c:120: }
	.loc 1 120 1 is_stmt 0 view .LVU42
	and	r0, r4, #1	@, _2,
	pop	{r4, pc}	@
	.cfi_endproc
.LFE141:
	.size	SYS_INT_SourceIsEnabled, .-SYS_INT_SourceIsEnabled
	.section	.text.SYS_INT_SourceEnable,code
	.align	2
	.global	SYS_INT_SourceEnable
	.syntax unified
	.arm
	.fpu neon-vfpv4
	.type	SYS_INT_SourceEnable, %function
SYS_INT_SourceEnable:
.LVL14:
.LFB142:
	.loc 1 124 1 is_stmt 1 view -0
	.cfi_startproc
	@ args = 0, pretend = 0, frame = 0
	@ frame_needed = 0, uses_anonymous_args = 0
	.loc 1 125 5 view .LVU44
@ ../src/config/sama5d29_curiosity/system/int/src/sys_int.c:124: {
	.loc 1 124 1 is_stmt 0 view .LVU45
	push	{r4, lr}	@
.LCFI1:
	.cfi_def_cfa_offset 8
	.cfi_offset 4, -8
	.cfi_offset 14, -4
@ ../src/config/sama5d29_curiosity/system/int/src/sys_int.c:124: {
	.loc 1 124 1 view .LVU46
	mov	r4, r0	@ aSrcSelection, aSrcSelection
.LVL15:
	.loc 1 73 3 is_stmt 1 view .LVU47
	.loc 1 126 4 view .LVU48
.LBB66:
.LBI66:
	.loc 1 96 1 view .LVU49
.LBB67:
	.loc 1 98 5 view .LVU50
@ ../src/config/sama5d29_curiosity/system/int/src/sys_int.c:98:     return AIC_INT_IrqDisable();
	.loc 1 98 12 is_stmt 0 view .LVU51
	bl	AIC_INT_IrqDisable		@
.LVL16:
	.loc 1 98 12 view .LVU52
.LBE67:
.LBE66:
	.loc 1 127 5 is_stmt 1 view .LVU53
@ ../src/config/sama5d29_curiosity/system/int/src/sys_int.c:127:     aicPtr->AIC_SSR = AIC_SSR_INTSEL( (uint32_t) aSrcSelection );
	.loc 1 127 21 is_stmt 0 view .LVU54
	mov	r3, #0	@ tmp116,
@ ../src/config/sama5d29_curiosity/system/int/src/sys_int.c:127:     aicPtr->AIC_SSR = AIC_SSR_INTSEL( (uint32_t) aSrcSelection );
	.loc 1 127 64 view .LVU55
	and	r4, r4, #127	@ _1, aSrcSelection,
.LVL17:
@ ../src/config/sama5d29_curiosity/system/int/src/sys_int.c:127:     aicPtr->AIC_SSR = AIC_SSR_INTSEL( (uint32_t) aSrcSelection );
	.loc 1 127 21 view .LVU56
	movt	r3, 64514	@ tmp116,
@ ../src/config/sama5d29_curiosity/system/int/src/sys_int.c:128:     aicPtr->AIC_IECR = AIC_IECR_Msk;
	.loc 1 128 22 view .LVU57
	mov	r2, #1	@ tmp118,
@ ../src/config/sama5d29_curiosity/system/int/src/sys_int.c:127:     aicPtr->AIC_SSR = AIC_SSR_INTSEL( (uint32_t) aSrcSelection );
	.loc 1 127 21 view .LVU58
	str	r4, [r3]	@ _1, MEM[(struct aic_registers_t *)4227989504B].AIC_SSR
	.loc 1 128 5 is_stmt 1 view .LVU59
@ ../src/config/sama5d29_curiosity/system/int/src/sys_int.c:131: }
	.loc 1 131 1 is_stmt 0 view .LVU60
	pop	{r4, lr}	@
.LCFI2:
	.cfi_restore 14
	.cfi_restore 4
	.cfi_def_cfa_offset 0
@ ../src/config/sama5d29_curiosity/system/int/src/sys_int.c:128:     aicPtr->AIC_IECR = AIC_IECR_Msk;
	.loc 1 128 22 view .LVU61
	str	r2, [r3, #64]	@ tmp118, MEM[(struct aic_registers_t *)4227989504B].AIC_IECR
	.loc 1 129 5 is_stmt 1 view .LVU62
.LVL18:
.LBB68:
.LBI68:
	.loc 1 102 1 view .LVU63
.LBB69:
	.loc 1 104 5 view .LVU64
	b	AIC_INT_IrqRestore		@
.LVL19:
	.loc 1 104 5 is_stmt 0 view .LVU65
.LBE69:
.LBE68:
	.cfi_endproc
.LFE142:
	.size	SYS_INT_SourceEnable, .-SYS_INT_SourceEnable
	.section	.text.SYS_INT_SourceDisable,code
	.align	2
	.global	SYS_INT_SourceDisable
	.syntax unified
	.arm
	.fpu neon-vfpv4
	.type	SYS_INT_SourceDisable, %function
SYS_INT_SourceDisable:
.LVL20:
.LFB143:
	.loc 1 135 1 is_stmt 1 view -0
	.cfi_startproc
	@ args = 0, pretend = 0, frame = 0
	@ frame_needed = 0, uses_anonymous_args = 0
	.loc 1 135 1 is_stmt 0 view .LVU67
	push	{r4, r5, r6, lr}	@
.LCFI3:
	.cfi_def_cfa_offset 16
	.cfi_offset 4, -16
	.cfi_offset 5, -12
	.cfi_offset 6, -8
	.cfi_offset 14, -4
@ ../src/config/sama5d29_curiosity/system/int/src/sys_int.c:135: {
	.loc 1 135 1 view .LVU68
	mov	r5, r0	@ source, source
	.loc 1 136 4 is_stmt 1 view .LVU69
.LVL21:
.LBB84:
.LBI84:
	.loc 1 108 1 view .LVU70
.LBB85:
	.loc 1 110 4 view .LVU71
	.loc 1 111 5 view .LVU72
	.loc 1 111 5 is_stmt 0 view .LVU73
.LBE85:
.LBE84:
	.loc 1 73 3 is_stmt 1 view .LVU74
.LBB93:
.LBB92:
	.loc 1 112 4 view .LVU75
.LBB86:
.LBI86:
	.loc 1 96 1 view .LVU76
.LBB87:
	.loc 1 98 5 view .LVU77
.LBE87:
.LBE86:
@ ../src/config/sama5d29_curiosity/system/int/src/sys_int.c:113:     aicPtr->AIC_SSR = AIC_SSR_INTSEL( (uint32_t) aSrcSelection );
	.loc 1 113 21 is_stmt 0 view .LVU78
	mov	r4, #0	@ tmp119,
.LBB89:
.LBB88:
@ ../src/config/sama5d29_curiosity/system/int/src/sys_int.c:98:     return AIC_INT_IrqDisable();
	.loc 1 98 12 view .LVU79
	bl	AIC_INT_IrqDisable		@
.LVL22:
	.loc 1 98 12 view .LVU80
.LBE88:
.LBE89:
	.loc 1 113 5 is_stmt 1 view .LVU81
@ ../src/config/sama5d29_curiosity/system/int/src/sys_int.c:113:     aicPtr->AIC_SSR = AIC_SSR_INTSEL( (uint32_t) aSrcSelection );
	.loc 1 113 21 is_stmt 0 view .LVU82
	movt	r4, 64514	@ tmp119,
@ ../src/config/sama5d29_curiosity/system/int/src/sys_int.c:113:     aicPtr->AIC_SSR = AIC_SSR_INTSEL( (uint32_t) aSrcSelection );
	.loc 1 113 64 view .LVU83
	and	r5, r5, #127	@ _16, source,
.LVL23:
@ ../src/config/sama5d29_curiosity/system/int/src/sys_int.c:113:     aicPtr->AIC_SSR = AIC_SSR_INTSEL( (uint32_t) aSrcSelection );
	.loc 1 113 21 view .LVU84
	str	r5, [r4]	@ _16, MEM[(struct aic_registers_t *)4227989504B].AIC_SSR
	.loc 1 114 5 is_stmt 1 view .LVU85
@ ../src/config/sama5d29_curiosity/system/int/src/sys_int.c:114:     if(( aicPtr->AIC_IMR & AIC_IMR_Msk ) != 0U)
	.loc 1 114 16 is_stmt 0 view .LVU86
	ldr	r6, [r4, #48]	@ _17, MEM[(struct aic_registers_t *)4227989504B].AIC_IMR
.LVL24:
	.loc 1 118 5 is_stmt 1 view .LVU87
.LBB90:
.LBI90:
	.loc 1 102 1 view .LVU88
.LBB91:
	.loc 1 104 5 view .LVU89
	bl	AIC_INT_IrqRestore		@
.LVL25:
	.loc 1 104 5 is_stmt 0 view .LVU90
.LBE91:
.LBE90:
	.loc 1 119 5 is_stmt 1 view .LVU91
	.loc 1 119 5 is_stmt 0 view .LVU92
.LBE92:
.LBE93:
	.loc 1 137 5 is_stmt 1 view .LVU93
	.loc 1 73 3 view .LVU94
	.loc 1 138 4 view .LVU95
.LBB94:
.LBI94:
	.loc 1 96 1 view .LVU96
.LBB95:
	.loc 1 98 5 view .LVU97
@ ../src/config/sama5d29_curiosity/system/int/src/sys_int.c:98:     return AIC_INT_IrqDisable();
	.loc 1 98 12 is_stmt 0 view .LVU98
	bl	AIC_INT_IrqDisable		@
.LVL26:
	.loc 1 98 12 view .LVU99
.LBE95:
.LBE94:
	.loc 1 139 5 is_stmt 1 view .LVU100
@ ../src/config/sama5d29_curiosity/system/int/src/sys_int.c:140:     aicPtr->AIC_IDCR = AIC_IDCR_Msk;
	.loc 1 140 22 is_stmt 0 view .LVU101
	mov	r3, #1	@ tmp124,
@ ../src/config/sama5d29_curiosity/system/int/src/sys_int.c:139:     aicPtr->AIC_SSR = AIC_SSR_INTSEL( (uint32_t) source );
	.loc 1 139 21 view .LVU102
	str	r5, [r4]	@ _16, MEM[(struct aic_registers_t *)4227989504B].AIC_SSR
	.loc 1 140 5 is_stmt 1 view .LVU103
@ ../src/config/sama5d29_curiosity/system/int/src/sys_int.c:140:     aicPtr->AIC_IDCR = AIC_IDCR_Msk;
	.loc 1 140 22 is_stmt 0 view .LVU104
	str	r3, [r4, #68]	@ tmp124, MEM[(struct aic_registers_t *)4227989504B].AIC_IDCR
	.loc 1 141 5 is_stmt 1 view .LVU105
.LBB96:
.LBI96:
	.loc 2 364 51 view .LVU106
.LBB97:
	.loc 2 366 3 view .LVU107
	.syntax divided
@ 366 "C:/Users/M69710/.mchp_packs/ARM/CMSIS/5.9.0/CMSIS/Core_A/Include/cmsis_gcc.h" 1
	dsb 0xF	
@ 0 "" 2
	.arm
	.syntax unified
.LBE97:
.LBE96:
	.loc 1 142 5 view .LVU108
.LBB98:
.LBI98:
	.loc 2 353 51 view .LVU109
.LBB99:
	.loc 2 355 3 view .LVU110
	.syntax divided
@ 355 "C:/Users/M69710/.mchp_packs/ARM/CMSIS/5.9.0/CMSIS/Core_A/Include/cmsis_gcc.h" 1
	isb 0xF	
@ 0 "" 2
	.arm
	.syntax unified
.LBE99:
.LBE98:
	.loc 1 143 5 view .LVU111
.LVL27:
.LBB100:
.LBI100:
	.loc 1 102 1 view .LVU112
.LBB101:
	.loc 1 104 5 view .LVU113
	bl	AIC_INT_IrqRestore		@
.LVL28:
	.loc 1 104 5 is_stmt 0 view .LVU114
.LBE101:
.LBE100:
	.loc 1 144 5 is_stmt 1 view .LVU115
@ ../src/config/sama5d29_curiosity/system/int/src/sys_int.c:145: }
	.loc 1 145 1 is_stmt 0 view .LVU116
	and	r0, r6, #1	@, _17,
	pop	{r4, r5, r6, pc}	@
	.cfi_endproc
.LFE143:
	.size	SYS_INT_SourceDisable, .-SYS_INT_SourceDisable
	.section	.text.SYS_INT_SourceRestore,code
	.align	2
	.global	SYS_INT_SourceRestore
	.syntax unified
	.arm
	.fpu neon-vfpv4
	.type	SYS_INT_SourceRestore, %function
SYS_INT_SourceRestore:
.LVL29:
.LFB144:
	.loc 1 149 1 is_stmt 1 view -0
	.cfi_startproc
	@ args = 0, pretend = 0, frame = 0
	@ frame_needed = 0, uses_anonymous_args = 0
	.loc 1 150 5 view .LVU118
@ ../src/config/sama5d29_curiosity/system/int/src/sys_int.c:150:     if( status )
	.loc 1 150 7 is_stmt 0 view .LVU119
	cmp	r1, #0	@ status,
	bxeq	lr	@
.LBB102:
	.loc 1 152 9 is_stmt 1 view .LVU120
.LBE102:
@ ../src/config/sama5d29_curiosity/system/int/src/sys_int.c:149: {
	.loc 1 149 1 is_stmt 0 view .LVU121
	push	{r4, lr}	@
.LCFI4:
	.cfi_def_cfa_offset 8
	.cfi_offset 4, -8
	.cfi_offset 14, -4
	mov	r4, r0	@ source, source
.LVL30:
	.loc 1 73 3 is_stmt 1 view .LVU122
.LBB107:
	.loc 1 153 8 view .LVU123
.LBB103:
.LBI103:
	.loc 1 96 1 view .LVU124
.LBB104:
	.loc 1 98 5 view .LVU125
@ ../src/config/sama5d29_curiosity/system/int/src/sys_int.c:98:     return AIC_INT_IrqDisable();
	.loc 1 98 12 is_stmt 0 view .LVU126
	bl	AIC_INT_IrqDisable		@
.LVL31:
	.loc 1 98 12 view .LVU127
.LBE104:
.LBE103:
	.loc 1 154 9 is_stmt 1 view .LVU128
@ ../src/config/sama5d29_curiosity/system/int/src/sys_int.c:154:         aicPtr->AIC_SSR = AIC_SSR_INTSEL( (uint32_t) source );
	.loc 1 154 25 is_stmt 0 view .LVU129
	mov	r3, #0	@ tmp117,
@ ../src/config/sama5d29_curiosity/system/int/src/sys_int.c:154:         aicPtr->AIC_SSR = AIC_SSR_INTSEL( (uint32_t) source );
	.loc 1 154 68 view .LVU130
	and	r4, r4, #127	@ _1, source,
.LVL32:
@ ../src/config/sama5d29_curiosity/system/int/src/sys_int.c:154:         aicPtr->AIC_SSR = AIC_SSR_INTSEL( (uint32_t) source );
	.loc 1 154 25 view .LVU131
	movt	r3, 64514	@ tmp117,
@ ../src/config/sama5d29_curiosity/system/int/src/sys_int.c:155:         aicPtr->AIC_IECR = AIC_IECR_Msk;
	.loc 1 155 26 view .LVU132
	mov	r2, #1	@ tmp119,
@ ../src/config/sama5d29_curiosity/system/int/src/sys_int.c:154:         aicPtr->AIC_SSR = AIC_SSR_INTSEL( (uint32_t) source );
	.loc 1 154 25 view .LVU133
	str	r4, [r3]	@ _1, MEM[(struct aic_registers_t *)4227989504B].AIC_SSR
	.loc 1 155 9 is_stmt 1 view .LVU134
.LBE107:
@ ../src/config/sama5d29_curiosity/system/int/src/sys_int.c:159: }
	.loc 1 159 1 is_stmt 0 view .LVU135
	pop	{r4, lr}	@
.LCFI5:
	.cfi_restore 14
	.cfi_restore 4
	.cfi_def_cfa_offset 0
.LBB108:
@ ../src/config/sama5d29_curiosity/system/int/src/sys_int.c:155:         aicPtr->AIC_IECR = AIC_IECR_Msk;
	.loc 1 155 26 view .LVU136
	str	r2, [r3, #64]	@ tmp119, MEM[(struct aic_registers_t *)4227989504B].AIC_IECR
	.loc 1 156 9 is_stmt 1 view .LVU137
.LVL33:
.LBB105:
.LBI105:
	.loc 1 102 1 view .LVU138
.LBB106:
	.loc 1 104 5 view .LVU139
	b	AIC_INT_IrqRestore		@
.LVL34:
	.loc 1 104 5 is_stmt 0 view .LVU140
.LBE106:
.LBE105:
.LBE108:
	.cfi_endproc
.LFE144:
	.size	SYS_INT_SourceRestore, .-SYS_INT_SourceRestore
	.section	.text.SYS_INT_SourceStatusGet,code
	.align	2
	.global	SYS_INT_SourceStatusGet
	.syntax unified
	.arm
	.fpu neon-vfpv4
	.type	SYS_INT_SourceStatusGet, %function
SYS_INT_SourceStatusGet:
.LVL35:
.LFB145:
	.loc 1 163 1 is_stmt 1 view -0
	.cfi_startproc
	@ args = 0, pretend = 0, frame = 0
	@ frame_needed = 0, uses_anonymous_args = 0
	.loc 1 164 4 view .LVU142
	.loc 1 165 5 view .LVU143
@ ../src/config/sama5d29_curiosity/system/int/src/sys_int.c:165:     if( (uint32_t)aSrcSelection < 127U )
	.loc 1 165 7 is_stmt 0 view .LVU144
	cmp	r0, #126	@ aSrcSelection,
@ ../src/config/sama5d29_curiosity/system/int/src/sys_int.c:163: {
	.loc 1 163 1 view .LVU145
	push	{r4, lr}	@
.LCFI6:
	.cfi_def_cfa_offset 8
	.cfi_offset 4, -8
	.cfi_offset 14, -4
@ ../src/config/sama5d29_curiosity/system/int/src/sys_int.c:165:     if( (uint32_t)aSrcSelection < 127U )
	.loc 1 165 7 view .LVU146
	bls	.L25		@,
@ ../src/config/sama5d29_curiosity/system/int/src/sys_int.c:164:     bool retval = false;
	.loc 1 164 9 view .LVU147
	mov	r4, #0	@ <retval>,
.LVL36:
	.loc 1 195 5 is_stmt 1 view .LVU148
@ ../src/config/sama5d29_curiosity/system/int/src/sys_int.c:196: }
	.loc 1 196 1 is_stmt 0 view .LVU149
	mov	r0, r4	@, <retval>
.LVL37:
	.loc 1 196 1 view .LVU150
	pop	{r4, pc}	@
.LVL38:
.L25:
.LBB109:
	.loc 1 167 9 is_stmt 1 view .LVU151
	.loc 1 168 9 view .LVU152
	mov	r4, r0	@ aSrcSelection, aSrcSelection
.LBB110:
.LBB111:
@ ../src/config/sama5d29_curiosity/system/int/src/sys_int.c:98:     return AIC_INT_IrqDisable();
	.loc 1 98 12 is_stmt 0 view .LVU153
	bl	AIC_INT_IrqDisable		@
.LVL39:
	.loc 1 98 12 view .LVU154
.LBE111:
.LBE110:
@ ../src/config/sama5d29_curiosity/system/int/src/sys_int.c:172:         aicPtr->AIC_SSR = AIC_SSR_INTSEL( (uint32_t) aSrcSelection );
	.loc 1 172 25 view .LVU155
	mov	r2, #0	@ tmp127,
@ ../src/config/sama5d29_curiosity/system/int/src/sys_int.c:168:         uint32_t regSelection = (uint32_t)aSrcSelection >> 5; // 32 status bits per register
	.loc 1 168 57 view .LVU156
	lsr	r3, r4, #5	@ _1, aSrcSelection,
.LVL40:
	.loc 1 169 9 is_stmt 1 view .LVU157
@ ../src/config/sama5d29_curiosity/system/int/src/sys_int.c:172:         aicPtr->AIC_SSR = AIC_SSR_INTSEL( (uint32_t) aSrcSelection );
	.loc 1 172 25 is_stmt 0 view .LVU158
	movt	r2, 64514	@ tmp127,
@ ../src/config/sama5d29_curiosity/system/int/src/sys_int.c:173:         switch( regSelection )
	.loc 1 173 9 view .LVU159
	cmp	r3, #1	@ _1,
@ ../src/config/sama5d29_curiosity/system/int/src/sys_int.c:172:         aicPtr->AIC_SSR = AIC_SSR_INTSEL( (uint32_t) aSrcSelection );
	.loc 1 172 25 view .LVU160
	str	r4, [r2]	@ aSrcSelection, MEM[(struct aic_registers_t *)4227989504B].AIC_SSR
@ ../src/config/sama5d29_curiosity/system/int/src/sys_int.c:169:         uint32_t bitSelection = (uint32_t)aSrcSelection - (regSelection << 5);
	.loc 1 169 18 view .LVU161
	sub	r4, r4, r3, lsl #5	@ bitSelection, aSrcSelection, _1,
.LVL41:
	.loc 1 170 9 is_stmt 1 view .LVU162
	.loc 1 170 9 is_stmt 0 view .LVU163
.LBE109:
	.loc 1 73 3 is_stmt 1 view .LVU164
.LBB116:
	.loc 1 171 8 view .LVU165
.LBB113:
.LBI110:
	.loc 1 96 1 view .LVU166
.LBB112:
	.loc 1 98 5 view .LVU167
	.loc 1 98 5 is_stmt 0 view .LVU168
.LBE112:
.LBE113:
	.loc 1 172 9 is_stmt 1 view .LVU169
	.loc 1 173 9 view .LVU170
	beq	.L19		@,
	.loc 1 173 9 is_stmt 0 view .LVU171
	cmp	r3, #0	@ _1,
	beq	.L20		@,
	cmp	r3, #2	@ _1,
	beq	.L21		@,
	mov	r4, #0	@ <retval>,
.LVL42:
.L22:
	.loc 1 189 9 is_stmt 1 view .LVU172
.LBB114:
.LBI114:
	.loc 1 102 1 view .LVU173
.LBB115:
	.loc 1 104 5 view .LVU174
	bl	AIC_INT_IrqRestore		@
.LVL43:
	.loc 1 104 5 is_stmt 0 view .LVU175
.LBE115:
.LBE114:
	.loc 1 190 9 is_stmt 1 view .LVU176
	.loc 1 190 9 is_stmt 0 view .LVU177
.LBE116:
	.loc 1 195 5 is_stmt 1 view .LVU178
@ ../src/config/sama5d29_curiosity/system/int/src/sys_int.c:196: }
	.loc 1 196 1 is_stmt 0 view .LVU179
	mov	r0, r4	@, <retval>
	pop	{r4, pc}	@
.LVL44:
.L21:
.LBB117:
	.loc 1 182 13 is_stmt 1 view .LVU180
@ ../src/config/sama5d29_curiosity/system/int/src/sys_int.c:182:             regValue = aicPtr->AIC_IPR2;
	.loc 1 182 22 is_stmt 0 view .LVU181
	ldr	r3, [r2, #40]	@ regValue, MEM[(struct aic_registers_t *)4227989504B].AIC_IPR2
.LVL45:
	.loc 1 183 13 is_stmt 1 view .LVU182
	lsr	r4, r3, r4	@ tmp138, regValue, bitSelection
.LVL46:
	.loc 1 183 13 is_stmt 0 view .LVU183
	and	r4, r4, #1	@ <retval>, tmp138,
	b	.L22		@
.LVL47:
.L20:
	.loc 1 176 13 is_stmt 1 view .LVU184
@ ../src/config/sama5d29_curiosity/system/int/src/sys_int.c:176:             regValue = aicPtr->AIC_IPR0;
	.loc 1 176 22 is_stmt 0 view .LVU185
	ldr	r3, [r2, #32]	@ regValue, MEM[(struct aic_registers_t *)4227989504B].AIC_IPR0
.LVL48:
	.loc 1 177 13 is_stmt 1 view .LVU186
	lsr	r4, r3, r4	@ tmp130, regValue, bitSelection
.LVL49:
	.loc 1 177 13 is_stmt 0 view .LVU187
	and	r4, r4, #1	@ <retval>, tmp130,
	b	.L22		@
.LVL50:
.L19:
	.loc 1 179 13 is_stmt 1 view .LVU188
@ ../src/config/sama5d29_curiosity/system/int/src/sys_int.c:179:             regValue = aicPtr->AIC_IPR1;
	.loc 1 179 22 is_stmt 0 view .LVU189
	ldr	r3, [r2, #36]	@ regValue, MEM[(struct aic_registers_t *)4227989504B].AIC_IPR1
.LVL51:
	.loc 1 180 13 is_stmt 1 view .LVU190
	lsr	r4, r3, r4	@ tmp134, regValue, bitSelection
.LVL52:
	.loc 1 180 13 is_stmt 0 view .LVU191
	and	r4, r4, #1	@ <retval>, tmp134,
	b	.L22		@
.LBE117:
	.cfi_endproc
.LFE145:
	.size	SYS_INT_SourceStatusGet, .-SYS_INT_SourceStatusGet
	.section	.text.SYS_INT_SourceStatusSet,code
	.align	2
	.global	SYS_INT_SourceStatusSet
	.syntax unified
	.arm
	.fpu neon-vfpv4
	.type	SYS_INT_SourceStatusSet, %function
SYS_INT_SourceStatusSet:
.LVL53:
.LFB146:
	.loc 1 200 1 is_stmt 1 view -0
	.cfi_startproc
	@ args = 0, pretend = 0, frame = 0
	@ frame_needed = 0, uses_anonymous_args = 0
	.loc 1 201 5 view .LVU193
@ ../src/config/sama5d29_curiosity/system/int/src/sys_int.c:200: {
	.loc 1 200 1 is_stmt 0 view .LVU194
	push	{r4, lr}	@
.LCFI7:
	.cfi_def_cfa_offset 8
	.cfi_offset 4, -8
	.cfi_offset 14, -4
@ ../src/config/sama5d29_curiosity/system/int/src/sys_int.c:200: {
	.loc 1 200 1 view .LVU195
	mov	r4, r0	@ aSrcSelection, aSrcSelection
.LVL54:
	.loc 1 73 3 is_stmt 1 view .LVU196
	.loc 1 202 4 view .LVU197
.LBB118:
.LBI118:
	.loc 1 96 1 view .LVU198
.LBB119:
	.loc 1 98 5 view .LVU199
@ ../src/config/sama5d29_curiosity/system/int/src/sys_int.c:98:     return AIC_INT_IrqDisable();
	.loc 1 98 12 is_stmt 0 view .LVU200
	bl	AIC_INT_IrqDisable		@
.LVL55:
	.loc 1 98 12 view .LVU201
.LBE119:
.LBE118:
	.loc 1 203 5 is_stmt 1 view .LVU202
@ ../src/config/sama5d29_curiosity/system/int/src/sys_int.c:203:     aicPtr->AIC_SSR = AIC_SSR_INTSEL( (uint32_t) aSrcSelection );
	.loc 1 203 21 is_stmt 0 view .LVU203
	mov	r3, #0	@ tmp116,
@ ../src/config/sama5d29_curiosity/system/int/src/sys_int.c:203:     aicPtr->AIC_SSR = AIC_SSR_INTSEL( (uint32_t) aSrcSelection );
	.loc 1 203 64 view .LVU204
	and	r4, r4, #127	@ _1, aSrcSelection,
.LVL56:
@ ../src/config/sama5d29_curiosity/system/int/src/sys_int.c:203:     aicPtr->AIC_SSR = AIC_SSR_INTSEL( (uint32_t) aSrcSelection );
	.loc 1 203 21 view .LVU205
	movt	r3, 64514	@ tmp116,
@ ../src/config/sama5d29_curiosity/system/int/src/sys_int.c:204:     aicPtr->AIC_ISCR = AIC_ISCR_Msk;
	.loc 1 204 22 view .LVU206
	mov	r2, #1	@ tmp118,
@ ../src/config/sama5d29_curiosity/system/int/src/sys_int.c:203:     aicPtr->AIC_SSR = AIC_SSR_INTSEL( (uint32_t) aSrcSelection );
	.loc 1 203 21 view .LVU207
	str	r4, [r3]	@ _1, MEM[(struct aic_registers_t *)4227989504B].AIC_SSR
	.loc 1 204 5 is_stmt 1 view .LVU208
@ ../src/config/sama5d29_curiosity/system/int/src/sys_int.c:207: }
	.loc 1 207 1 is_stmt 0 view .LVU209
	pop	{r4, lr}	@
.LCFI8:
	.cfi_restore 14
	.cfi_restore 4
	.cfi_def_cfa_offset 0
@ ../src/config/sama5d29_curiosity/system/int/src/sys_int.c:204:     aicPtr->AIC_ISCR = AIC_ISCR_Msk;
	.loc 1 204 22 view .LVU210
	str	r2, [r3, #76]	@ tmp118, MEM[(struct aic_registers_t *)4227989504B].AIC_ISCR
	.loc 1 205 5 is_stmt 1 view .LVU211
.LVL57:
.LBB120:
.LBI120:
	.loc 1 102 1 view .LVU212
.LBB121:
	.loc 1 104 5 view .LVU213
	b	AIC_INT_IrqRestore		@
.LVL58:
	.loc 1 104 5 is_stmt 0 view .LVU214
.LBE121:
.LBE120:
	.cfi_endproc
.LFE146:
	.size	SYS_INT_SourceStatusSet, .-SYS_INT_SourceStatusSet
	.section	.text.SYS_INT_SourceStatusClear,code
	.align	2
	.global	SYS_INT_SourceStatusClear
	.syntax unified
	.arm
	.fpu neon-vfpv4
	.type	SYS_INT_SourceStatusClear, %function
SYS_INT_SourceStatusClear:
.LVL59:
.LFB147:
	.loc 1 211 1 is_stmt 1 view -0
	.cfi_startproc
	@ args = 0, pretend = 0, frame = 0
	@ frame_needed = 0, uses_anonymous_args = 0
	.loc 1 212 5 view .LVU216
@ ../src/config/sama5d29_curiosity/system/int/src/sys_int.c:211: {
	.loc 1 211 1 is_stmt 0 view .LVU217
	push	{r4, lr}	@
.LCFI9:
	.cfi_def_cfa_offset 8
	.cfi_offset 4, -8
	.cfi_offset 14, -4
@ ../src/config/sama5d29_curiosity/system/int/src/sys_int.c:211: {
	.loc 1 211 1 view .LVU218
	mov	r4, r0	@ aSrcSelection, aSrcSelection
.LVL60:
	.loc 1 73 3 is_stmt 1 view .LVU219
	.loc 1 213 4 view .LVU220
.LBB122:
.LBI122:
	.loc 1 96 1 view .LVU221
.LBB123:
	.loc 1 98 5 view .LVU222
@ ../src/config/sama5d29_curiosity/system/int/src/sys_int.c:98:     return AIC_INT_IrqDisable();
	.loc 1 98 12 is_stmt 0 view .LVU223
	bl	AIC_INT_IrqDisable		@
.LVL61:
	.loc 1 98 12 view .LVU224
.LBE123:
.LBE122:
	.loc 1 214 5 is_stmt 1 view .LVU225
@ ../src/config/sama5d29_curiosity/system/int/src/sys_int.c:214:     aicPtr->AIC_SSR = AIC_SSR_INTSEL( (uint32_t) aSrcSelection );
	.loc 1 214 21 is_stmt 0 view .LVU226
	mov	r3, #0	@ tmp116,
@ ../src/config/sama5d29_curiosity/system/int/src/sys_int.c:214:     aicPtr->AIC_SSR = AIC_SSR_INTSEL( (uint32_t) aSrcSelection );
	.loc 1 214 64 view .LVU227
	and	r4, r4, #127	@ _1, aSrcSelection,
.LVL62:
@ ../src/config/sama5d29_curiosity/system/int/src/sys_int.c:214:     aicPtr->AIC_SSR = AIC_SSR_INTSEL( (uint32_t) aSrcSelection );
	.loc 1 214 21 view .LVU228
	movt	r3, 64514	@ tmp116,
@ ../src/config/sama5d29_curiosity/system/int/src/sys_int.c:215:     aicPtr->AIC_ICCR = AIC_ICCR_Msk;
	.loc 1 215 22 view .LVU229
	mov	r2, #1	@ tmp118,
@ ../src/config/sama5d29_curiosity/system/int/src/sys_int.c:214:     aicPtr->AIC_SSR = AIC_SSR_INTSEL( (uint32_t) aSrcSelection );
	.loc 1 214 21 view .LVU230
	str	r4, [r3]	@ _1, MEM[(struct aic_registers_t *)4227989504B].AIC_SSR
	.loc 1 215 5 is_stmt 1 view .LVU231
@ ../src/config/sama5d29_curiosity/system/int/src/sys_int.c:218: }
	.loc 1 218 1 is_stmt 0 view .LVU232
	pop	{r4, lr}	@
.LCFI10:
	.cfi_restore 14
	.cfi_restore 4
	.cfi_def_cfa_offset 0
@ ../src/config/sama5d29_curiosity/system/int/src/sys_int.c:215:     aicPtr->AIC_ICCR = AIC_ICCR_Msk;
	.loc 1 215 22 view .LVU233
	str	r2, [r3, #72]	@ tmp118, MEM[(struct aic_registers_t *)4227989504B].AIC_ICCR
	.loc 1 216 5 is_stmt 1 view .LVU234
.LVL63:
.LBB124:
.LBI124:
	.loc 1 102 1 view .LVU235
.LBB125:
	.loc 1 104 5 view .LVU236
	b	AIC_INT_IrqRestore		@
.LVL64:
	.loc 1 104 5 is_stmt 0 view .LVU237
.LBE125:
.LBE124:
	.cfi_endproc
.LFE147:
	.size	SYS_INT_SourceStatusClear, .-SYS_INT_SourceStatusClear
	.section	.text,code
.Letext0:
	.file 3 "c:\\program files\\microchip\\xc32\\v4.60\\pic32c\\include\\musl\\bits\\alltypes.h"
	.file 4 "../src/packs/ATSAMA5D29_DFP/sama5d29.h"
	.file 5 "../src/packs/ATSAMA5D29_DFP/component/aic.h"
	.file 6 "../src/config/sama5d29_curiosity/system/int/sys_int.h"
	.file 7 "../src/config/sama5d29_curiosity/peripheral/aic/plib_aic.h"
	.section	.debug_info,info
.Ldebug_info0:
	.4byte	0xc0f
	.2byte	0x2
	.4byte	.Ldebug_abbrev0
	.byte	0x4
	.uleb128 0x1
	.4byte	.LASF143
	.byte	0xc
	.4byte	.LASF144
	.4byte	.LASF145
	.4byte	.Ldebug_ranges0+0x88
	.4byte	0
	.4byte	0
	.4byte	.Ldebug_line0
	.uleb128 0x2
	.byte	0x8
	.byte	0x4
	.4byte	.LASF0
	.uleb128 0x2
	.byte	0x4
	.byte	0x7
	.4byte	.LASF1
	.uleb128 0x3
	.byte	0x4
	.byte	0x5
	.ascii	"int\000"
	.uleb128 0x2
	.byte	0x1
	.byte	0x6
	.4byte	.LASF2
	.uleb128 0x2
	.byte	0x2
	.byte	0x5
	.4byte	.LASF3
	.uleb128 0x2
	.byte	0x4
	.byte	0x5
	.4byte	.LASF4
	.uleb128 0x2
	.byte	0x8
	.byte	0x5
	.4byte	.LASF5
	.uleb128 0x4
	.4byte	.LASF8
	.byte	0x3
	.byte	0xff
	.byte	0x17
	.4byte	0x70
	.uleb128 0x5
	.4byte	0x5a
	.uleb128 0x6
	.4byte	0x66
	.uleb128 0x2
	.byte	0x1
	.byte	0x8
	.4byte	.LASF6
	.uleb128 0x2
	.byte	0x2
	.byte	0x7
	.4byte	.LASF7
	.uleb128 0x7
	.4byte	.LASF9
	.byte	0x3
	.2byte	0x11b
	.byte	0x1b
	.4byte	0x95
	.uleb128 0x5
	.4byte	0x7e
	.uleb128 0x6
	.4byte	0x8b
	.uleb128 0x2
	.byte	0x4
	.byte	0x7
	.4byte	.LASF10
	.uleb128 0x2
	.byte	0x8
	.byte	0x7
	.4byte	.LASF11
	.uleb128 0x8
	.4byte	.LASF146
	.byte	0x7
	.byte	0x1
	.4byte	0x70
	.byte	0x4
	.byte	0x47
	.byte	0xe
	.4byte	0x26c
	.uleb128 0x9
	.4byte	.LASF12
	.byte	0
	.uleb128 0x9
	.4byte	.LASF13
	.byte	0x2
	.uleb128 0x9
	.4byte	.LASF14
	.byte	0x3
	.uleb128 0x9
	.4byte	.LASF15
	.byte	0x4
	.uleb128 0x9
	.4byte	.LASF16
	.byte	0x5
	.uleb128 0x9
	.4byte	.LASF17
	.byte	0x6
	.uleb128 0x9
	.4byte	.LASF18
	.byte	0x7
	.uleb128 0x9
	.4byte	.LASF19
	.byte	0x8
	.uleb128 0x9
	.4byte	.LASF20
	.byte	0x9
	.uleb128 0x9
	.4byte	.LASF21
	.byte	0xa
	.uleb128 0x9
	.4byte	.LASF22
	.byte	0xb
	.uleb128 0x9
	.4byte	.LASF23
	.byte	0xc
	.uleb128 0x9
	.4byte	.LASF24
	.byte	0xd
	.uleb128 0x9
	.4byte	.LASF25
	.byte	0xe
	.uleb128 0x9
	.4byte	.LASF26
	.byte	0xf
	.uleb128 0x9
	.4byte	.LASF27
	.byte	0x10
	.uleb128 0x9
	.4byte	.LASF28
	.byte	0x11
	.uleb128 0x9
	.4byte	.LASF29
	.byte	0x12
	.uleb128 0x9
	.4byte	.LASF30
	.byte	0x13
	.uleb128 0x9
	.4byte	.LASF31
	.byte	0x14
	.uleb128 0x9
	.4byte	.LASF32
	.byte	0x15
	.uleb128 0x9
	.4byte	.LASF33
	.byte	0x16
	.uleb128 0x9
	.4byte	.LASF34
	.byte	0x17
	.uleb128 0x9
	.4byte	.LASF35
	.byte	0x18
	.uleb128 0x9
	.4byte	.LASF36
	.byte	0x19
	.uleb128 0x9
	.4byte	.LASF37
	.byte	0x1a
	.uleb128 0x9
	.4byte	.LASF38
	.byte	0x1b
	.uleb128 0x9
	.4byte	.LASF39
	.byte	0x1c
	.uleb128 0x9
	.4byte	.LASF40
	.byte	0x1d
	.uleb128 0x9
	.4byte	.LASF41
	.byte	0x1e
	.uleb128 0x9
	.4byte	.LASF42
	.byte	0x1f
	.uleb128 0x9
	.4byte	.LASF43
	.byte	0x20
	.uleb128 0x9
	.4byte	.LASF44
	.byte	0x21
	.uleb128 0x9
	.4byte	.LASF45
	.byte	0x22
	.uleb128 0x9
	.4byte	.LASF46
	.byte	0x23
	.uleb128 0x9
	.4byte	.LASF47
	.byte	0x24
	.uleb128 0x9
	.4byte	.LASF48
	.byte	0x26
	.uleb128 0x9
	.4byte	.LASF49
	.byte	0x28
	.uleb128 0x9
	.4byte	.LASF50
	.byte	0x29
	.uleb128 0x9
	.4byte	.LASF51
	.byte	0x2a
	.uleb128 0x9
	.4byte	.LASF52
	.byte	0x2b
	.uleb128 0x9
	.4byte	.LASF53
	.byte	0x2c
	.uleb128 0x9
	.4byte	.LASF54
	.byte	0x2d
	.uleb128 0x9
	.4byte	.LASF55
	.byte	0x2e
	.uleb128 0x9
	.4byte	.LASF56
	.byte	0x2f
	.uleb128 0x9
	.4byte	.LASF57
	.byte	0x30
	.uleb128 0x9
	.4byte	.LASF58
	.byte	0x31
	.uleb128 0x9
	.4byte	.LASF59
	.byte	0x32
	.uleb128 0x9
	.4byte	.LASF60
	.byte	0x33
	.uleb128 0x9
	.4byte	.LASF61
	.byte	0x34
	.uleb128 0x9
	.4byte	.LASF62
	.byte	0x35
	.uleb128 0x9
	.4byte	.LASF63
	.byte	0x36
	.uleb128 0x9
	.4byte	.LASF64
	.byte	0x37
	.uleb128 0x9
	.4byte	.LASF65
	.byte	0x38
	.uleb128 0x9
	.4byte	.LASF66
	.byte	0x39
	.uleb128 0x9
	.4byte	.LASF67
	.byte	0x3a
	.uleb128 0x9
	.4byte	.LASF68
	.byte	0x3b
	.uleb128 0x9
	.4byte	.LASF69
	.byte	0x3f
	.uleb128 0x9
	.4byte	.LASF70
	.byte	0x40
	.uleb128 0x9
	.4byte	.LASF71
	.byte	0x41
	.uleb128 0x9
	.4byte	.LASF72
	.byte	0x42
	.uleb128 0x9
	.4byte	.LASF73
	.byte	0x43
	.uleb128 0x9
	.4byte	.LASF74
	.byte	0x44
	.uleb128 0x9
	.4byte	.LASF75
	.byte	0x45
	.uleb128 0x9
	.4byte	.LASF76
	.byte	0x46
	.uleb128 0x9
	.4byte	.LASF77
	.byte	0x47
	.uleb128 0x9
	.4byte	.LASF78
	.byte	0x48
	.uleb128 0x9
	.4byte	.LASF79
	.byte	0x4a
	.uleb128 0x9
	.4byte	.LASF80
	.byte	0x4a
	.uleb128 0x9
	.4byte	.LASF81
	.byte	0x4a
	.uleb128 0x9
	.4byte	.LASF82
	.byte	0x4b
	.uleb128 0x9
	.4byte	.LASF83
	.byte	0x4c
	.uleb128 0x9
	.4byte	.LASF84
	.byte	0x4c
	.byte	0
	.uleb128 0x4
	.4byte	.LASF85
	.byte	0x4
	.byte	0x94
	.byte	0x3
	.4byte	0xa3
	.uleb128 0xa
	.4byte	0x6b
	.4byte	0x288
	.uleb128 0xb
	.4byte	0x30
	.byte	0x3
	.byte	0
	.uleb128 0x6
	.4byte	0x278
	.uleb128 0x5
	.4byte	0x288
	.uleb128 0x5
	.4byte	0x288
	.uleb128 0xc
	.byte	0xec
	.byte	0x5
	.2byte	0x26e
	.byte	0x9
	.4byte	0x434
	.uleb128 0xd
	.4byte	.LASF86
	.byte	0x5
	.2byte	0x270
	.byte	0x15
	.4byte	0x8b
	.byte	0x2
	.byte	0x23
	.uleb128 0
	.uleb128 0xd
	.4byte	.LASF87
	.byte	0x5
	.2byte	0x271
	.byte	0x15
	.4byte	0x8b
	.byte	0x2
	.byte	0x23
	.uleb128 0x4
	.uleb128 0xd
	.4byte	.LASF88
	.byte	0x5
	.2byte	0x272
	.byte	0x15
	.4byte	0x8b
	.byte	0x2
	.byte	0x23
	.uleb128 0x8
	.uleb128 0xd
	.4byte	.LASF89
	.byte	0x5
	.2byte	0x273
	.byte	0x1a
	.4byte	0x28d
	.byte	0x2
	.byte	0x23
	.uleb128 0xc
	.uleb128 0xd
	.4byte	.LASF90
	.byte	0x5
	.2byte	0x274
	.byte	0x1b
	.4byte	0x90
	.byte	0x2
	.byte	0x23
	.uleb128 0x10
	.uleb128 0xd
	.4byte	.LASF91
	.byte	0x5
	.2byte	0x275
	.byte	0x1b
	.4byte	0x90
	.byte	0x2
	.byte	0x23
	.uleb128 0x14
	.uleb128 0xd
	.4byte	.LASF92
	.byte	0x5
	.2byte	0x276
	.byte	0x1b
	.4byte	0x90
	.byte	0x2
	.byte	0x23
	.uleb128 0x18
	.uleb128 0xd
	.4byte	.LASF93
	.byte	0x5
	.2byte	0x277
	.byte	0x1a
	.4byte	0x292
	.byte	0x2
	.byte	0x23
	.uleb128 0x1c
	.uleb128 0xd
	.4byte	.LASF94
	.byte	0x5
	.2byte	0x278
	.byte	0x1b
	.4byte	0x90
	.byte	0x2
	.byte	0x23
	.uleb128 0x20
	.uleb128 0xd
	.4byte	.LASF95
	.byte	0x5
	.2byte	0x279
	.byte	0x1b
	.4byte	0x90
	.byte	0x2
	.byte	0x23
	.uleb128 0x24
	.uleb128 0xd
	.4byte	.LASF96
	.byte	0x5
	.2byte	0x27a
	.byte	0x1b
	.4byte	0x90
	.byte	0x2
	.byte	0x23
	.uleb128 0x28
	.uleb128 0xd
	.4byte	.LASF97
	.byte	0x5
	.2byte	0x27b
	.byte	0x1b
	.4byte	0x90
	.byte	0x2
	.byte	0x23
	.uleb128 0x2c
	.uleb128 0xd
	.4byte	.LASF98
	.byte	0x5
	.2byte	0x27c
	.byte	0x1b
	.4byte	0x90
	.byte	0x2
	.byte	0x23
	.uleb128 0x30
	.uleb128 0xd
	.4byte	.LASF99
	.byte	0x5
	.2byte	0x27d
	.byte	0x1b
	.4byte	0x90
	.byte	0x2
	.byte	0x23
	.uleb128 0x34
	.uleb128 0xd
	.4byte	.LASF100
	.byte	0x5
	.2byte	0x27e
	.byte	0x15
	.4byte	0x8b
	.byte	0x2
	.byte	0x23
	.uleb128 0x38
	.uleb128 0xd
	.4byte	.LASF101
	.byte	0x5
	.2byte	0x27f
	.byte	0x15
	.4byte	0x8b
	.byte	0x2
	.byte	0x23
	.uleb128 0x3c
	.uleb128 0xd
	.4byte	.LASF102
	.byte	0x5
	.2byte	0x280
	.byte	0x15
	.4byte	0x8b
	.byte	0x2
	.byte	0x23
	.uleb128 0x40
	.uleb128 0xd
	.4byte	.LASF103
	.byte	0x5
	.2byte	0x281
	.byte	0x15
	.4byte	0x8b
	.byte	0x2
	.byte	0x23
	.uleb128 0x44
	.uleb128 0xd
	.4byte	.LASF104
	.byte	0x5
	.2byte	0x282
	.byte	0x15
	.4byte	0x8b
	.byte	0x2
	.byte	0x23
	.uleb128 0x48
	.uleb128 0xd
	.4byte	.LASF105
	.byte	0x5
	.2byte	0x283
	.byte	0x15
	.4byte	0x8b
	.byte	0x2
	.byte	0x23
	.uleb128 0x4c
	.uleb128 0xd
	.4byte	.LASF106
	.byte	0x5
	.2byte	0x284
	.byte	0x1a
	.4byte	0x449
	.byte	0x2
	.byte	0x23
	.uleb128 0x50
	.uleb128 0xd
	.4byte	.LASF107
	.byte	0x5
	.2byte	0x285
	.byte	0x15
	.4byte	0x8b
	.byte	0x2
	.byte	0x23
	.uleb128 0x6c
	.uleb128 0xd
	.4byte	.LASF108
	.byte	0x5
	.2byte	0x286
	.byte	0x1a
	.4byte	0x463
	.byte	0x2
	.byte	0x23
	.uleb128 0x70
	.uleb128 0xd
	.4byte	.LASF109
	.byte	0x5
	.2byte	0x287
	.byte	0x15
	.4byte	0x8b
	.byte	0x3
	.byte	0x23
	.uleb128 0xe4
	.uleb128 0xd
	.4byte	.LASF110
	.byte	0x5
	.2byte	0x288
	.byte	0x1b
	.4byte	0x90
	.byte	0x3
	.byte	0x23
	.uleb128 0xe8
	.byte	0
	.uleb128 0xa
	.4byte	0x6b
	.4byte	0x444
	.uleb128 0xb
	.4byte	0x30
	.byte	0x1b
	.byte	0
	.uleb128 0x6
	.4byte	0x434
	.uleb128 0x5
	.4byte	0x444
	.uleb128 0xa
	.4byte	0x6b
	.4byte	0x45e
	.uleb128 0xb
	.4byte	0x30
	.byte	0x73
	.byte	0
	.uleb128 0x6
	.4byte	0x44e
	.uleb128 0x5
	.4byte	0x45e
	.uleb128 0x7
	.4byte	.LASF111
	.byte	0x5
	.2byte	0x289
	.byte	0x3
	.4byte	0x297
	.uleb128 0x2
	.byte	0x1
	.byte	0x8
	.4byte	.LASF112
	.uleb128 0x4
	.4byte	.LASF113
	.byte	0x6
	.byte	0x5e
	.byte	0x13
	.4byte	0x26c
	.uleb128 0x2
	.byte	0x8
	.byte	0x4
	.4byte	.LASF114
	.uleb128 0xe
	.byte	0x1
	.4byte	.LASF116
	.byte	0x1
	.byte	0xd2
	.byte	0x1
	.byte	0x1
	.4byte	.LFB147
	.4byte	.LFE147
	.4byte	.LLST38
	.byte	0x1
	.4byte	0x533
	.uleb128 0xf
	.4byte	.LASF118
	.byte	0x1
	.byte	0xd2
	.byte	0x27
	.4byte	0x47c
	.4byte	.LLST39
	.4byte	.LVUS39
	.uleb128 0x10
	.4byte	.LASF119
	.byte	0x1
	.byte	0xd4
	.byte	0x17
	.4byte	0x533
	.sleb128 -66977792
	.uleb128 0x11
	.4byte	.LASF120
	.byte	0x1
	.byte	0xd5
	.byte	0x9
	.4byte	0x539
	.4byte	.LLST40
	.4byte	.LVUS40
	.uleb128 0x12
	.4byte	0xa1b
	.4byte	.LBI122
	.byte	.LVU221
	.4byte	.LBB122
	.4byte	.LBE122
	.byte	0x1
	.byte	0xd5
	.byte	0x1b
	.4byte	0x505
	.uleb128 0x13
	.4byte	.LVL61
	.4byte	0xbe8
	.byte	0
	.uleb128 0x14
	.4byte	0x9ff
	.4byte	.LBI124
	.byte	.LVU235
	.4byte	.LBB124
	.4byte	.LBE124
	.byte	0x1
	.byte	0xd8
	.byte	0x5
	.uleb128 0x15
	.4byte	0xa0e
	.4byte	.LLST41
	.4byte	.LVUS41
	.uleb128 0x16
	.4byte	.LVL64
	.byte	0x1
	.4byte	0xbf6
	.byte	0
	.byte	0
	.uleb128 0x17
	.byte	0x4
	.4byte	0x468
	.uleb128 0x2
	.byte	0x1
	.byte	0x2
	.4byte	.LASF115
	.uleb128 0xe
	.byte	0x1
	.4byte	.LASF117
	.byte	0x1
	.byte	0xc7
	.byte	0x1
	.byte	0x1
	.4byte	.LFB146
	.4byte	.LFE146
	.4byte	.LLST34
	.byte	0x1
	.4byte	0x5e4
	.uleb128 0xf
	.4byte	.LASF118
	.byte	0x1
	.byte	0xc7
	.byte	0x25
	.4byte	0x47c
	.4byte	.LLST35
	.4byte	.LVUS35
	.uleb128 0x10
	.4byte	.LASF119
	.byte	0x1
	.byte	0xc9
	.byte	0x17
	.4byte	0x533
	.sleb128 -66977792
	.uleb128 0x11
	.4byte	.LASF120
	.byte	0x1
	.byte	0xca
	.byte	0x9
	.4byte	0x539
	.4byte	.LLST36
	.4byte	.LVUS36
	.uleb128 0x12
	.4byte	0xa1b
	.4byte	.LBI118
	.byte	.LVU198
	.4byte	.LBB118
	.4byte	.LBE118
	.byte	0x1
	.byte	0xca
	.byte	0x1b
	.4byte	0x5b6
	.uleb128 0x13
	.4byte	.LVL55
	.4byte	0xbe8
	.byte	0
	.uleb128 0x14
	.4byte	0x9ff
	.4byte	.LBI120
	.byte	.LVU212
	.4byte	.LBB120
	.4byte	.LBE120
	.byte	0x1
	.byte	0xcd
	.byte	0x5
	.uleb128 0x15
	.4byte	0xa0e
	.4byte	.LLST37
	.4byte	.LVUS37
	.uleb128 0x16
	.4byte	.LVL58
	.byte	0x1
	.4byte	0xbf6
	.byte	0
	.byte	0
	.uleb128 0x18
	.byte	0x1
	.4byte	.LASF128
	.byte	0x1
	.byte	0xa2
	.byte	0x1
	.byte	0x1
	.4byte	0x539
	.4byte	.LFB145
	.4byte	.LFE145
	.4byte	.LLST26
	.byte	0x1
	.4byte	0x6dd
	.uleb128 0xf
	.4byte	.LASF118
	.byte	0x1
	.byte	0xa2
	.byte	0x25
	.4byte	0x47c
	.4byte	.LLST27
	.4byte	.LVUS27
	.uleb128 0x11
	.4byte	.LASF121
	.byte	0x1
	.byte	0xa4
	.byte	0x9
	.4byte	0x539
	.4byte	.LLST28
	.4byte	.LVUS28
	.uleb128 0x19
	.4byte	.Ldebug_ranges0+0x50
	.uleb128 0x11
	.4byte	.LASF122
	.byte	0x1
	.byte	0xa7
	.byte	0x12
	.4byte	0x7e
	.4byte	.LLST29
	.4byte	.LVUS29
	.uleb128 0x11
	.4byte	.LASF123
	.byte	0x1
	.byte	0xa8
	.byte	0x12
	.4byte	0x7e
	.4byte	.LLST30
	.4byte	.LVUS30
	.uleb128 0x11
	.4byte	.LASF124
	.byte	0x1
	.byte	0xa9
	.byte	0x12
	.4byte	0x7e
	.4byte	.LLST31
	.4byte	.LVUS31
	.uleb128 0x10
	.4byte	.LASF119
	.byte	0x1
	.byte	0xaa
	.byte	0x1b
	.4byte	0x533
	.sleb128 -66977792
	.uleb128 0x11
	.4byte	.LASF120
	.byte	0x1
	.byte	0xab
	.byte	0xd
	.4byte	0x539
	.4byte	.LLST32
	.4byte	.LVUS32
	.uleb128 0x1a
	.4byte	0xa1b
	.4byte	.LBI110
	.byte	.LVU166
	.4byte	.Ldebug_ranges0+0x70
	.byte	0x1
	.byte	0xab
	.byte	0x1f
	.4byte	0x6af
	.uleb128 0x13
	.4byte	.LVL39
	.4byte	0xbe8
	.byte	0
	.uleb128 0x14
	.4byte	0x9ff
	.4byte	.LBI114
	.byte	.LVU173
	.4byte	.LBB114
	.4byte	.LBE114
	.byte	0x1
	.byte	0xbd
	.byte	0x9
	.uleb128 0x15
	.4byte	0xa0e
	.4byte	.LLST33
	.4byte	.LVUS33
	.uleb128 0x13
	.4byte	.LVL43
	.4byte	0xbf6
	.byte	0
	.byte	0
	.byte	0
	.uleb128 0xe
	.byte	0x1
	.4byte	.LASF125
	.byte	0x1
	.byte	0x94
	.byte	0x1
	.byte	0x1
	.4byte	.LFB144
	.4byte	.LFE144
	.4byte	.LLST21
	.byte	0x1
	.4byte	0x79b
	.uleb128 0xf
	.4byte	.LASF126
	.byte	0x1
	.byte	0x94
	.byte	0x23
	.4byte	0x47c
	.4byte	.LLST22
	.4byte	.LVUS22
	.uleb128 0xf
	.4byte	.LASF127
	.byte	0x1
	.byte	0x94
	.byte	0x2e
	.4byte	0x539
	.4byte	.LLST23
	.4byte	.LVUS23
	.uleb128 0x19
	.4byte	.Ldebug_ranges0+0x30
	.uleb128 0x10
	.4byte	.LASF119
	.byte	0x1
	.byte	0x98
	.byte	0x1b
	.4byte	0x533
	.sleb128 -66977792
	.uleb128 0x11
	.4byte	.LASF120
	.byte	0x1
	.byte	0x99
	.byte	0xd
	.4byte	0x539
	.4byte	.LLST24
	.4byte	.LVUS24
	.uleb128 0x12
	.4byte	0xa1b
	.4byte	.LBI103
	.byte	.LVU124
	.4byte	.LBB103
	.4byte	.LBE103
	.byte	0x1
	.byte	0x99
	.byte	0x1f
	.4byte	0x76c
	.uleb128 0x13
	.4byte	.LVL31
	.4byte	0xbe8
	.byte	0
	.uleb128 0x14
	.4byte	0x9ff
	.4byte	.LBI105
	.byte	.LVU138
	.4byte	.LBB105
	.4byte	.LBE105
	.byte	0x1
	.byte	0x9c
	.byte	0x9
	.uleb128 0x15
	.4byte	0xa0e
	.4byte	.LLST25
	.4byte	.LVUS25
	.uleb128 0x16
	.4byte	.LVL34
	.byte	0x1
	.4byte	0xbf6
	.byte	0
	.byte	0
	.byte	0
	.uleb128 0x18
	.byte	0x1
	.4byte	.LASF129
	.byte	0x1
	.byte	0x86
	.byte	0x1
	.byte	0x1
	.4byte	0x539
	.4byte	.LFB143
	.4byte	.LFE143
	.4byte	.LLST12
	.byte	0x1
	.4byte	0x917
	.uleb128 0xf
	.4byte	.LASF126
	.byte	0x1
	.byte	0x86
	.byte	0x23
	.4byte	0x47c
	.4byte	.LLST13
	.4byte	.LVUS13
	.uleb128 0x11
	.4byte	.LASF130
	.byte	0x1
	.byte	0x88
	.byte	0x9
	.4byte	0x539
	.4byte	.LLST14
	.4byte	.LVUS14
	.uleb128 0x10
	.4byte	.LASF119
	.byte	0x1
	.byte	0x89
	.byte	0x17
	.4byte	0x533
	.sleb128 -66977792
	.uleb128 0x11
	.4byte	.LASF120
	.byte	0x1
	.byte	0x8a
	.byte	0x9
	.4byte	0x539
	.4byte	.LLST15
	.4byte	.LVUS15
	.uleb128 0x1a
	.4byte	0x9bb
	.4byte	.LBI84
	.byte	.LVU70
	.4byte	.Ldebug_ranges0+0
	.byte	0x1
	.byte	0x88
	.byte	0x19
	.4byte	0x89d
	.uleb128 0x15
	.4byte	0x9ce
	.4byte	.LLST16
	.4byte	.LVUS16
	.uleb128 0x19
	.4byte	.Ldebug_ranges0+0
	.uleb128 0x1b
	.4byte	0x9da
	.4byte	.LLST17
	.4byte	.LVUS17
	.uleb128 0x1c
	.4byte	0x9e6
	.sleb128 -66977792
	.uleb128 0x1b
	.4byte	0x9f2
	.4byte	.LLST18
	.4byte	.LVUS18
	.uleb128 0x1a
	.4byte	0xa1b
	.4byte	.LBI86
	.byte	.LVU76
	.4byte	.Ldebug_ranges0+0x18
	.byte	0x1
	.byte	0x70
	.byte	0x1b
	.4byte	0x86f
	.uleb128 0x13
	.4byte	.LVL22
	.4byte	0xbe8
	.byte	0
	.uleb128 0x14
	.4byte	0x9ff
	.4byte	.LBI90
	.byte	.LVU88
	.4byte	.LBB90
	.4byte	.LBE90
	.byte	0x1
	.byte	0x76
	.byte	0x5
	.uleb128 0x15
	.4byte	0xa0e
	.4byte	.LLST19
	.4byte	.LVUS19
	.uleb128 0x13
	.4byte	.LVL25
	.4byte	0xbf6
	.byte	0
	.byte	0
	.byte	0
	.uleb128 0x12
	.4byte	0xa1b
	.4byte	.LBI94
	.byte	.LVU96
	.4byte	.LBB94
	.4byte	.LBE94
	.byte	0x1
	.byte	0x8a
	.byte	0x1b
	.4byte	0x8c0
	.uleb128 0x13
	.4byte	.LVL26
	.4byte	0xbe8
	.byte	0
	.uleb128 0x1d
	.4byte	0xaef
	.4byte	.LBI96
	.byte	.LVU106
	.4byte	.LBB96
	.4byte	.LBE96
	.byte	0x1
	.byte	0x8d
	.byte	0x5
	.uleb128 0x1d
	.4byte	0xafa
	.4byte	.LBI98
	.byte	.LVU109
	.4byte	.LBB98
	.4byte	.LBE98
	.byte	0x1
	.byte	0x8e
	.byte	0x5
	.uleb128 0x14
	.4byte	0x9ff
	.4byte	.LBI100
	.byte	.LVU112
	.4byte	.LBB100
	.4byte	.LBE100
	.byte	0x1
	.byte	0x8f
	.byte	0x5
	.uleb128 0x15
	.4byte	0xa0e
	.4byte	.LLST20
	.4byte	.LVUS20
	.uleb128 0x13
	.4byte	.LVL28
	.4byte	0xbf6
	.byte	0
	.byte	0
	.uleb128 0xe
	.byte	0x1
	.4byte	.LASF131
	.byte	0x1
	.byte	0x7b
	.byte	0x1
	.byte	0x1
	.4byte	.LFB142
	.4byte	.LFE142
	.4byte	.LLST8
	.byte	0x1
	.4byte	0x9bb
	.uleb128 0xf
	.4byte	.LASF118
	.byte	0x1
	.byte	0x7b
	.byte	0x22
	.4byte	0x47c
	.4byte	.LLST9
	.4byte	.LVUS9
	.uleb128 0x10
	.4byte	.LASF119
	.byte	0x1
	.byte	0x7d
	.byte	0x17
	.4byte	0x533
	.sleb128 -66977792
	.uleb128 0x11
	.4byte	.LASF120
	.byte	0x1
	.byte	0x7e
	.byte	0x9
	.4byte	0x539
	.4byte	.LLST10
	.4byte	.LVUS10
	.uleb128 0x12
	.4byte	0xa1b
	.4byte	.LBI66
	.byte	.LVU49
	.4byte	.LBB66
	.4byte	.LBE66
	.byte	0x1
	.byte	0x7e
	.byte	0x1b
	.4byte	0x98d
	.uleb128 0x13
	.4byte	.LVL16
	.4byte	0xbe8
	.byte	0
	.uleb128 0x14
	.4byte	0x9ff
	.4byte	.LBI68
	.byte	.LVU63
	.4byte	.LBB68
	.4byte	.LBE68
	.byte	0x1
	.byte	0x81
	.byte	0x5
	.uleb128 0x15
	.4byte	0xa0e
	.4byte	.LLST11
	.4byte	.LVUS11
	.uleb128 0x16
	.4byte	.LVL19
	.byte	0x1
	.4byte	0xbf6
	.byte	0
	.byte	0
	.uleb128 0x1e
	.byte	0x1
	.4byte	.LASF147
	.byte	0x1
	.byte	0x6c
	.byte	0x1
	.byte	0x1
	.4byte	0x539
	.byte	0x1
	.4byte	0x9ff
	.uleb128 0x1f
	.4byte	.LASF118
	.byte	0x1
	.byte	0x6c
	.byte	0x25
	.4byte	0x47c
	.uleb128 0x20
	.4byte	.LASF121
	.byte	0x1
	.byte	0x6e
	.byte	0x9
	.4byte	0x539
	.uleb128 0x20
	.4byte	.LASF119
	.byte	0x1
	.byte	0x6f
	.byte	0x17
	.4byte	0x533
	.uleb128 0x20
	.4byte	.LASF120
	.byte	0x1
	.byte	0x70
	.byte	0x9
	.4byte	0x539
	.byte	0
	.uleb128 0x21
	.byte	0x1
	.4byte	.LASF148
	.byte	0x1
	.byte	0x66
	.byte	0x1
	.byte	0x1
	.byte	0x1
	.4byte	0xa1b
	.uleb128 0x1f
	.4byte	.LASF132
	.byte	0x1
	.byte	0x66
	.byte	0x15
	.4byte	0x539
	.byte	0
	.uleb128 0x22
	.byte	0x1
	.4byte	.LASF149
	.byte	0x1
	.byte	0x60
	.byte	0x1
	.byte	0x1
	.4byte	0x539
	.byte	0x1
	.uleb128 0x23
	.byte	0x1
	.4byte	.LASF133
	.byte	0x1
	.byte	0x5a
	.byte	0x1
	.byte	0x1
	.4byte	.LFB138
	.4byte	.LFE138
	.byte	0x2
	.byte	0x7d
	.sleb128 0
	.byte	0x1
	.4byte	0xa4f
	.uleb128 0x16
	.4byte	.LVL4
	.byte	0x1
	.4byte	0xc04
	.byte	0
	.uleb128 0x24
	.byte	0x1
	.4byte	.LASF134
	.byte	0x1
	.byte	0x4e
	.byte	0x1
	.byte	0x1
	.4byte	0x539
	.4byte	.LFB137
	.4byte	.LFE137
	.byte	0x2
	.byte	0x7d
	.sleb128 0
	.byte	0x1
	.4byte	0xaaf
	.uleb128 0x11
	.4byte	.LASF121
	.byte	0x1
	.byte	0x50
	.byte	0x9
	.4byte	0x539
	.4byte	.LLST0
	.4byte	.LVUS0
	.uleb128 0x14
	.4byte	0xace
	.4byte	.LBI56
	.byte	.LVU3
	.4byte	.LBB56
	.4byte	.LBE56
	.byte	0x1
	.byte	0x52
	.byte	0x18
	.uleb128 0x25
	.4byte	.LBB57
	.4byte	.LBE57
	.uleb128 0x1b
	.4byte	0xae1
	.4byte	.LLST1
	.4byte	.LVUS1
	.byte	0
	.byte	0
	.byte	0
	.uleb128 0x26
	.4byte	.LASF135
	.byte	0x1
	.byte	0x48
	.byte	0x1
	.byte	0x1
	.4byte	0x533
	.byte	0x1
	.4byte	0xace
	.uleb128 0x1f
	.4byte	.LASF118
	.byte	0x1
	.byte	0x48
	.byte	0x1c
	.4byte	0x26c
	.byte	0
	.uleb128 0x27
	.4byte	.LASF136
	.byte	0x2
	.2byte	0x2db
	.byte	0x37
	.byte	0x1
	.4byte	0x7e
	.byte	0x3
	.4byte	0xaef
	.uleb128 0x28
	.4byte	.LASF137
	.byte	0x2
	.2byte	0x2dd
	.byte	0xc
	.4byte	0x7e
	.byte	0
	.uleb128 0x29
	.4byte	.LASF138
	.byte	0x2
	.2byte	0x16c
	.byte	0x33
	.byte	0x1
	.byte	0x3
	.uleb128 0x29
	.4byte	.LASF139
	.byte	0x2
	.2byte	0x161
	.byte	0x33
	.byte	0x1
	.byte	0x3
	.uleb128 0x2a
	.4byte	0xa1b
	.4byte	.LFB139
	.4byte	.LFE139
	.byte	0x2
	.byte	0x7d
	.sleb128 0
	.byte	0x1
	.4byte	0xb25
	.uleb128 0x16
	.4byte	.LVL5
	.byte	0x1
	.4byte	0xbe8
	.byte	0
	.uleb128 0x2a
	.4byte	0x9ff
	.4byte	.LFB140
	.4byte	.LFE140
	.byte	0x2
	.byte	0x7d
	.sleb128 0
	.byte	0x1
	.4byte	0xb52
	.uleb128 0x15
	.4byte	0xa0e
	.4byte	.LLST2
	.4byte	.LVUS2
	.uleb128 0x16
	.4byte	.LVL7
	.byte	0x1
	.4byte	0xbf6
	.byte	0
	.uleb128 0x2b
	.4byte	0x9bb
	.4byte	.LFB141
	.4byte	.LFE141
	.4byte	.LLST3
	.byte	0x1
	.4byte	0xbe8
	.uleb128 0x15
	.4byte	0x9ce
	.4byte	.LLST4
	.4byte	.LVUS4
	.uleb128 0x1b
	.4byte	0x9da
	.4byte	.LLST5
	.4byte	.LVUS5
	.uleb128 0x1c
	.4byte	0x9e6
	.sleb128 -66977792
	.uleb128 0x1b
	.4byte	0x9f2
	.4byte	.LLST6
	.4byte	.LVUS6
	.uleb128 0x12
	.4byte	0xa1b
	.4byte	.LBI62
	.byte	.LVU27
	.4byte	.LBB62
	.4byte	.LBE62
	.byte	0x1
	.byte	0x70
	.byte	0x1b
	.4byte	0xbbb
	.uleb128 0x13
	.4byte	.LVL10
	.4byte	0xbe8
	.byte	0
	.uleb128 0x14
	.4byte	0x9ff
	.4byte	.LBI64
	.byte	.LVU38
	.4byte	.LBB64
	.4byte	.LBE64
	.byte	0x1
	.byte	0x76
	.byte	0x5
	.uleb128 0x15
	.4byte	0xa0e
	.4byte	.LLST7
	.4byte	.LVUS7
	.uleb128 0x13
	.4byte	.LVL13
	.4byte	0xbf6
	.byte	0
	.byte	0
	.uleb128 0x2c
	.byte	0x1
	.byte	0x1
	.4byte	.LASF140
	.4byte	.LASF140
	.byte	0x7
	.byte	0x38
	.byte	0x5
	.uleb128 0x2c
	.byte	0x1
	.byte	0x1
	.4byte	.LASF141
	.4byte	.LASF141
	.byte	0x7
	.byte	0x39
	.byte	0x6
	.uleb128 0x2c
	.byte	0x1
	.byte	0x1
	.4byte	.LASF142
	.4byte	.LASF142
	.byte	0x7
	.byte	0x37
	.byte	0x6
	.byte	0
	.section	.debug_abbrev,info
.Ldebug_abbrev0:
	.uleb128 0x1
	.uleb128 0x11
	.byte	0x1
	.uleb128 0x25
	.uleb128 0xe
	.uleb128 0x13
	.uleb128 0xb
	.uleb128 0x3
	.uleb128 0xe
	.uleb128 0x1b
	.uleb128 0xe
	.uleb128 0x55
	.uleb128 0x6
	.uleb128 0x11
	.uleb128 0x1
	.uleb128 0x52
	.uleb128 0x1
	.uleb128 0x10
	.uleb128 0x6
	.byte	0
	.byte	0
	.uleb128 0x2
	.uleb128 0x24
	.byte	0
	.uleb128 0xb
	.uleb128 0xb
	.uleb128 0x3e
	.uleb128 0xb
	.uleb128 0x3
	.uleb128 0xe
	.byte	0
	.byte	0
	.uleb128 0x3
	.uleb128 0x24
	.byte	0
	.uleb128 0xb
	.uleb128 0xb
	.uleb128 0x3e
	.uleb128 0xb
	.uleb128 0x3
	.uleb128 0x8
	.byte	0
	.byte	0
	.uleb128 0x4
	.uleb128 0x16
	.byte	0
	.uleb128 0x3
	.uleb128 0xe
	.uleb128 0x3a
	.uleb128 0xb
	.uleb128 0x3b
	.uleb128 0xb
	.uleb128 0x39
	.uleb128 0xb
	.uleb128 0x49
	.uleb128 0x13
	.byte	0
	.byte	0
	.uleb128 0x5
	.uleb128 0x35
	.byte	0
	.uleb128 0x49
	.uleb128 0x13
	.byte	0
	.byte	0
	.uleb128 0x6
	.uleb128 0x26
	.byte	0
	.uleb128 0x49
	.uleb128 0x13
	.byte	0
	.byte	0
	.uleb128 0x7
	.uleb128 0x16
	.byte	0
	.uleb128 0x3
	.uleb128 0xe
	.uleb128 0x3a
	.uleb128 0xb
	.uleb128 0x3b
	.uleb128 0x5
	.uleb128 0x39
	.uleb128 0xb
	.uleb128 0x49
	.uleb128 0x13
	.byte	0
	.byte	0
	.uleb128 0x8
	.uleb128 0x4
	.byte	0x1
	.uleb128 0x3
	.uleb128 0xe
	.uleb128 0x3e
	.uleb128 0xb
	.uleb128 0xb
	.uleb128 0xb
	.uleb128 0x49
	.uleb128 0x13
	.uleb128 0x3a
	.uleb128 0xb
	.uleb128 0x3b
	.uleb128 0xb
	.uleb128 0x39
	.uleb128 0xb
	.uleb128 0x1
	.uleb128 0x13
	.byte	0
	.byte	0
	.uleb128 0x9
	.uleb128 0x28
	.byte	0
	.uleb128 0x3
	.uleb128 0xe
	.uleb128 0x1c
	.uleb128 0xb
	.byte	0
	.byte	0
	.uleb128 0xa
	.uleb128 0x1
	.byte	0x1
	.uleb128 0x49
	.uleb128 0x13
	.uleb128 0x1
	.uleb128 0x13
	.byte	0
	.byte	0
	.uleb128 0xb
	.uleb128 0x21
	.byte	0
	.uleb128 0x49
	.uleb128 0x13
	.uleb128 0x2f
	.uleb128 0xb
	.byte	0
	.byte	0
	.uleb128 0xc
	.uleb128 0x13
	.byte	0x1
	.uleb128 0xb
	.uleb128 0xb
	.uleb128 0x3a
	.uleb128 0xb
	.uleb128 0x3b
	.uleb128 0x5
	.uleb128 0x39
	.uleb128 0xb
	.uleb128 0x1
	.uleb128 0x13
	.byte	0
	.byte	0
	.uleb128 0xd
	.uleb128 0xd
	.byte	0
	.uleb128 0x3
	.uleb128 0xe
	.uleb128 0x3a
	.uleb128 0xb
	.uleb128 0x3b
	.uleb128 0x5
	.uleb128 0x39
	.uleb128 0xb
	.uleb128 0x49
	.uleb128 0x13
	.uleb128 0x38
	.uleb128 0xa
	.byte	0
	.byte	0
	.uleb128 0xe
	.uleb128 0x2e
	.byte	0x1
	.uleb128 0x3f
	.uleb128 0xc
	.uleb128 0x3
	.uleb128 0xe
	.uleb128 0x3a
	.uleb128 0xb
	.uleb128 0x3b
	.uleb128 0xb
	.uleb128 0x39
	.uleb128 0xb
	.uleb128 0x27
	.uleb128 0xc
	.uleb128 0x11
	.uleb128 0x1
	.uleb128 0x12
	.uleb128 0x1
	.uleb128 0x40
	.uleb128 0x6
	.uleb128 0x2117
	.uleb128 0xc
	.uleb128 0x1
	.uleb128 0x13
	.byte	0
	.byte	0
	.uleb128 0xf
	.uleb128 0x5
	.byte	0
	.uleb128 0x3
	.uleb128 0xe
	.uleb128 0x3a
	.uleb128 0xb
	.uleb128 0x3b
	.uleb128 0xb
	.uleb128 0x39
	.uleb128 0xb
	.uleb128 0x49
	.uleb128 0x13
	.uleb128 0x2
	.uleb128 0x6
	.uleb128 0x2137
	.uleb128 0x6
	.byte	0
	.byte	0
	.uleb128 0x10
	.uleb128 0x34
	.byte	0
	.uleb128 0x3
	.uleb128 0xe
	.uleb128 0x3a
	.uleb128 0xb
	.uleb128 0x3b
	.uleb128 0xb
	.uleb128 0x39
	.uleb128 0xb
	.uleb128 0x49
	.uleb128 0x13
	.uleb128 0x1c
	.uleb128 0xd
	.byte	0
	.byte	0
	.uleb128 0x11
	.uleb128 0x34
	.byte	0
	.uleb128 0x3
	.uleb128 0xe
	.uleb128 0x3a
	.uleb128 0xb
	.uleb128 0x3b
	.uleb128 0xb
	.uleb128 0x39
	.uleb128 0xb
	.uleb128 0x49
	.uleb128 0x13
	.uleb128 0x2
	.uleb128 0x6
	.uleb128 0x2137
	.uleb128 0x6
	.byte	0
	.byte	0
	.uleb128 0x12
	.uleb128 0x1d
	.byte	0x1
	.uleb128 0x31
	.uleb128 0x13
	.uleb128 0x52
	.uleb128 0x1
	.uleb128 0x2138
	.uleb128 0xb
	.uleb128 0x11
	.uleb128 0x1
	.uleb128 0x12
	.uleb128 0x1
	.uleb128 0x58
	.uleb128 0xb
	.uleb128 0x59
	.uleb128 0xb
	.uleb128 0x57
	.uleb128 0xb
	.uleb128 0x1
	.uleb128 0x13
	.byte	0
	.byte	0
	.uleb128 0x13
	.uleb128 0x4109
	.byte	0
	.uleb128 0x11
	.uleb128 0x1
	.uleb128 0x31
	.uleb128 0x13
	.byte	0
	.byte	0
	.uleb128 0x14
	.uleb128 0x1d
	.byte	0x1
	.uleb128 0x31
	.uleb128 0x13
	.uleb128 0x52
	.uleb128 0x1
	.uleb128 0x2138
	.uleb128 0xb
	.uleb128 0x11
	.uleb128 0x1
	.uleb128 0x12
	.uleb128 0x1
	.uleb128 0x58
	.uleb128 0xb
	.uleb128 0x59
	.uleb128 0xb
	.uleb128 0x57
	.uleb128 0xb
	.byte	0
	.byte	0
	.uleb128 0x15
	.uleb128 0x5
	.byte	0
	.uleb128 0x31
	.uleb128 0x13
	.uleb128 0x2
	.uleb128 0x6
	.uleb128 0x2137
	.uleb128 0x6
	.byte	0
	.byte	0
	.uleb128 0x16
	.uleb128 0x4109
	.byte	0
	.uleb128 0x11
	.uleb128 0x1
	.uleb128 0x2115
	.uleb128 0xc
	.uleb128 0x31
	.uleb128 0x13
	.byte	0
	.byte	0
	.uleb128 0x17
	.uleb128 0xf
	.byte	0
	.uleb128 0xb
	.uleb128 0xb
	.uleb128 0x49
	.uleb128 0x13
	.byte	0
	.byte	0
	.uleb128 0x18
	.uleb128 0x2e
	.byte	0x1
	.uleb128 0x3f
	.uleb128 0xc
	.uleb128 0x3
	.uleb128 0xe
	.uleb128 0x3a
	.uleb128 0xb
	.uleb128 0x3b
	.uleb128 0xb
	.uleb128 0x39
	.uleb128 0xb
	.uleb128 0x27
	.uleb128 0xc
	.uleb128 0x49
	.uleb128 0x13
	.uleb128 0x11
	.uleb128 0x1
	.uleb128 0x12
	.uleb128 0x1
	.uleb128 0x40
	.uleb128 0x6
	.uleb128 0x2117
	.uleb128 0xc
	.uleb128 0x1
	.uleb128 0x13
	.byte	0
	.byte	0
	.uleb128 0x19
	.uleb128 0xb
	.byte	0x1
	.uleb128 0x55
	.uleb128 0x6
	.byte	0
	.byte	0
	.uleb128 0x1a
	.uleb128 0x1d
	.byte	0x1
	.uleb128 0x31
	.uleb128 0x13
	.uleb128 0x52
	.uleb128 0x1
	.uleb128 0x2138
	.uleb128 0xb
	.uleb128 0x55
	.uleb128 0x6
	.uleb128 0x58
	.uleb128 0xb
	.uleb128 0x59
	.uleb128 0xb
	.uleb128 0x57
	.uleb128 0xb
	.uleb128 0x1
	.uleb128 0x13
	.byte	0
	.byte	0
	.uleb128 0x1b
	.uleb128 0x34
	.byte	0
	.uleb128 0x31
	.uleb128 0x13
	.uleb128 0x2
	.uleb128 0x6
	.uleb128 0x2137
	.uleb128 0x6
	.byte	0
	.byte	0
	.uleb128 0x1c
	.uleb128 0x34
	.byte	0
	.uleb128 0x31
	.uleb128 0x13
	.uleb128 0x1c
	.uleb128 0xd
	.byte	0
	.byte	0
	.uleb128 0x1d
	.uleb128 0x1d
	.byte	0
	.uleb128 0x31
	.uleb128 0x13
	.uleb128 0x52
	.uleb128 0x1
	.uleb128 0x2138
	.uleb128 0xb
	.uleb128 0x11
	.uleb128 0x1
	.uleb128 0x12
	.uleb128 0x1
	.uleb128 0x58
	.uleb128 0xb
	.uleb128 0x59
	.uleb128 0xb
	.uleb128 0x57
	.uleb128 0xb
	.byte	0
	.byte	0
	.uleb128 0x1e
	.uleb128 0x2e
	.byte	0x1
	.uleb128 0x3f
	.uleb128 0xc
	.uleb128 0x3
	.uleb128 0xe
	.uleb128 0x3a
	.uleb128 0xb
	.uleb128 0x3b
	.uleb128 0xb
	.uleb128 0x39
	.uleb128 0xb
	.uleb128 0x27
	.uleb128 0xc
	.uleb128 0x49
	.uleb128 0x13
	.uleb128 0x20
	.uleb128 0xb
	.uleb128 0x1
	.uleb128 0x13
	.byte	0
	.byte	0
	.uleb128 0x1f
	.uleb128 0x5
	.byte	0
	.uleb128 0x3
	.uleb128 0xe
	.uleb128 0x3a
	.uleb128 0xb
	.uleb128 0x3b
	.uleb128 0xb
	.uleb128 0x39
	.uleb128 0xb
	.uleb128 0x49
	.uleb128 0x13
	.byte	0
	.byte	0
	.uleb128 0x20
	.uleb128 0x34
	.byte	0
	.uleb128 0x3
	.uleb128 0xe
	.uleb128 0x3a
	.uleb128 0xb
	.uleb128 0x3b
	.uleb128 0xb
	.uleb128 0x39
	.uleb128 0xb
	.uleb128 0x49
	.uleb128 0x13
	.byte	0
	.byte	0
	.uleb128 0x21
	.uleb128 0x2e
	.byte	0x1
	.uleb128 0x3f
	.uleb128 0xc
	.uleb128 0x3
	.uleb128 0xe
	.uleb128 0x3a
	.uleb128 0xb
	.uleb128 0x3b
	.uleb128 0xb
	.uleb128 0x39
	.uleb128 0xb
	.uleb128 0x27
	.uleb128 0xc
	.uleb128 0x20
	.uleb128 0xb
	.uleb128 0x1
	.uleb128 0x13
	.byte	0
	.byte	0
	.uleb128 0x22
	.uleb128 0x2e
	.byte	0
	.uleb128 0x3f
	.uleb128 0xc
	.uleb128 0x3
	.uleb128 0xe
	.uleb128 0x3a
	.uleb128 0xb
	.uleb128 0x3b
	.uleb128 0xb
	.uleb128 0x39
	.uleb128 0xb
	.uleb128 0x27
	.uleb128 0xc
	.uleb128 0x49
	.uleb128 0x13
	.uleb128 0x20
	.uleb128 0xb
	.byte	0
	.byte	0
	.uleb128 0x23
	.uleb128 0x2e
	.byte	0x1
	.uleb128 0x3f
	.uleb128 0xc
	.uleb128 0x3
	.uleb128 0xe
	.uleb128 0x3a
	.uleb128 0xb
	.uleb128 0x3b
	.uleb128 0xb
	.uleb128 0x39
	.uleb128 0xb
	.uleb128 0x27
	.uleb128 0xc
	.uleb128 0x11
	.uleb128 0x1
	.uleb128 0x12
	.uleb128 0x1
	.uleb128 0x40
	.uleb128 0xa
	.uleb128 0x2117
	.uleb128 0xc
	.uleb128 0x1
	.uleb128 0x13
	.byte	0
	.byte	0
	.uleb128 0x24
	.uleb128 0x2e
	.byte	0x1
	.uleb128 0x3f
	.uleb128 0xc
	.uleb128 0x3
	.uleb128 0xe
	.uleb128 0x3a
	.uleb128 0xb
	.uleb128 0x3b
	.uleb128 0xb
	.uleb128 0x39
	.uleb128 0xb
	.uleb128 0x27
	.uleb128 0xc
	.uleb128 0x49
	.uleb128 0x13
	.uleb128 0x11
	.uleb128 0x1
	.uleb128 0x12
	.uleb128 0x1
	.uleb128 0x40
	.uleb128 0xa
	.uleb128 0x2117
	.uleb128 0xc
	.uleb128 0x1
	.uleb128 0x13
	.byte	0
	.byte	0
	.uleb128 0x25
	.uleb128 0xb
	.byte	0x1
	.uleb128 0x11
	.uleb128 0x1
	.uleb128 0x12
	.uleb128 0x1
	.byte	0
	.byte	0
	.uleb128 0x26
	.uleb128 0x2e
	.byte	0x1
	.uleb128 0x3
	.uleb128 0xe
	.uleb128 0x3a
	.uleb128 0xb
	.uleb128 0x3b
	.uleb128 0xb
	.uleb128 0x39
	.uleb128 0xb
	.uleb128 0x27
	.uleb128 0xc
	.uleb128 0x49
	.uleb128 0x13
	.uleb128 0x20
	.uleb128 0xb
	.uleb128 0x1
	.uleb128 0x13
	.byte	0
	.byte	0
	.uleb128 0x27
	.uleb128 0x2e
	.byte	0x1
	.uleb128 0x3
	.uleb128 0xe
	.uleb128 0x3a
	.uleb128 0xb
	.uleb128 0x3b
	.uleb128 0x5
	.uleb128 0x39
	.uleb128 0xb
	.uleb128 0x27
	.uleb128 0xc
	.uleb128 0x49
	.uleb128 0x13
	.uleb128 0x20
	.uleb128 0xb
	.uleb128 0x1
	.uleb128 0x13
	.byte	0
	.byte	0
	.uleb128 0x28
	.uleb128 0x34
	.byte	0
	.uleb128 0x3
	.uleb128 0xe
	.uleb128 0x3a
	.uleb128 0xb
	.uleb128 0x3b
	.uleb128 0x5
	.uleb128 0x39
	.uleb128 0xb
	.uleb128 0x49
	.uleb128 0x13
	.byte	0
	.byte	0
	.uleb128 0x29
	.uleb128 0x2e
	.byte	0
	.uleb128 0x3
	.uleb128 0xe
	.uleb128 0x3a
	.uleb128 0xb
	.uleb128 0x3b
	.uleb128 0x5
	.uleb128 0x39
	.uleb128 0xb
	.uleb128 0x27
	.uleb128 0xc
	.uleb128 0x20
	.uleb128 0xb
	.byte	0
	.byte	0
	.uleb128 0x2a
	.uleb128 0x2e
	.byte	0x1
	.uleb128 0x31
	.uleb128 0x13
	.uleb128 0x11
	.uleb128 0x1
	.uleb128 0x12
	.uleb128 0x1
	.uleb128 0x40
	.uleb128 0xa
	.uleb128 0x2117
	.uleb128 0xc
	.uleb128 0x1
	.uleb128 0x13
	.byte	0
	.byte	0
	.uleb128 0x2b
	.uleb128 0x2e
	.byte	0x1
	.uleb128 0x31
	.uleb128 0x13
	.uleb128 0x11
	.uleb128 0x1
	.uleb128 0x12
	.uleb128 0x1
	.uleb128 0x40
	.uleb128 0x6
	.uleb128 0x2117
	.uleb128 0xc
	.uleb128 0x1
	.uleb128 0x13
	.byte	0
	.byte	0
	.uleb128 0x2c
	.uleb128 0x2e
	.byte	0
	.uleb128 0x3f
	.uleb128 0xc
	.uleb128 0x3c
	.uleb128 0xc
	.uleb128 0x2007
	.uleb128 0xe
	.uleb128 0x3
	.uleb128 0xe
	.uleb128 0x3a
	.uleb128 0xb
	.uleb128 0x3b
	.uleb128 0xb
	.uleb128 0x39
	.uleb128 0xb
	.byte	0
	.byte	0
	.byte	0
	.section	.debug_loc,info
.Ldebug_loc0:
.LLST38:
	.4byte	.LFB147
	.4byte	.LCFI9
	.2byte	0x2
	.byte	0x7d
	.sleb128 0
	.4byte	.LCFI9
	.4byte	.LCFI10
	.2byte	0x2
	.byte	0x7d
	.sleb128 8
	.4byte	.LCFI10
	.4byte	.LFE147
	.2byte	0x2
	.byte	0x7d
	.sleb128 0
	.4byte	0
	.4byte	0
.LVUS39:
	.uleb128 0
	.uleb128 .LVU224
	.uleb128 .LVU224
	.uleb128 0
.LLST39:
	.4byte	.LVL59
	.4byte	.LVL61-1
	.2byte	0x1
	.byte	0x50
	.4byte	.LVL61-1
	.4byte	.LFE147
	.2byte	0x4
	.byte	0xf3
	.uleb128 0x1
	.byte	0x50
	.byte	0x9f
	.4byte	0
	.4byte	0
.LVUS40:
	.uleb128 .LVU224
	.uleb128 .LVU237
.LLST40:
	.4byte	.LVL61
	.4byte	.LVL64-1
	.2byte	0x1
	.byte	0x50
	.4byte	0
	.4byte	0
.LVUS41:
	.uleb128 .LVU235
	.uleb128 .LVU237
.LLST41:
	.4byte	.LVL63
	.4byte	.LVL64-1
	.2byte	0x1
	.byte	0x50
	.4byte	0
	.4byte	0
.LLST34:
	.4byte	.LFB146
	.4byte	.LCFI7
	.2byte	0x2
	.byte	0x7d
	.sleb128 0
	.4byte	.LCFI7
	.4byte	.LCFI8
	.2byte	0x2
	.byte	0x7d
	.sleb128 8
	.4byte	.LCFI8
	.4byte	.LFE146
	.2byte	0x2
	.byte	0x7d
	.sleb128 0
	.4byte	0
	.4byte	0
.LVUS35:
	.uleb128 0
	.uleb128 .LVU201
	.uleb128 .LVU201
	.uleb128 0
.LLST35:
	.4byte	.LVL53
	.4byte	.LVL55-1
	.2byte	0x1
	.byte	0x50
	.4byte	.LVL55-1
	.4byte	.LFE146
	.2byte	0x4
	.byte	0xf3
	.uleb128 0x1
	.byte	0x50
	.byte	0x9f
	.4byte	0
	.4byte	0
.LVUS36:
	.uleb128 .LVU201
	.uleb128 .LVU214
.LLST36:
	.4byte	.LVL55
	.4byte	.LVL58-1
	.2byte	0x1
	.byte	0x50
	.4byte	0
	.4byte	0
.LVUS37:
	.uleb128 .LVU212
	.uleb128 .LVU214
.LLST37:
	.4byte	.LVL57
	.4byte	.LVL58-1
	.2byte	0x1
	.byte	0x50
	.4byte	0
	.4byte	0
.LLST26:
	.4byte	.LFB145
	.4byte	.LCFI6
	.2byte	0x2
	.byte	0x7d
	.sleb128 0
	.4byte	.LCFI6
	.4byte	.LFE145
	.2byte	0x2
	.byte	0x7d
	.sleb128 8
	.4byte	0
	.4byte	0
.LVUS27:
	.uleb128 0
	.uleb128 .LVU150
	.uleb128 .LVU150
	.uleb128 .LVU151
	.uleb128 .LVU151
	.uleb128 .LVU154
	.uleb128 .LVU154
	.uleb128 0
.LLST27:
	.4byte	.LVL35
	.4byte	.LVL37
	.2byte	0x1
	.byte	0x50
	.4byte	.LVL37
	.4byte	.LVL38
	.2byte	0x4
	.byte	0xf3
	.uleb128 0x1
	.byte	0x50
	.byte	0x9f
	.4byte	.LVL38
	.4byte	.LVL39-1
	.2byte	0x1
	.byte	0x50
	.4byte	.LVL39-1
	.4byte	.LFE145
	.2byte	0x4
	.byte	0xf3
	.uleb128 0x1
	.byte	0x50
	.byte	0x9f
	.4byte	0
	.4byte	0
.LVUS28:
	.uleb128 .LVU143
	.uleb128 .LVU148
	.uleb128 .LVU148
	.uleb128 .LVU151
	.uleb128 .LVU151
	.uleb128 .LVU177
	.uleb128 .LVU177
	.uleb128 .LVU180
	.uleb128 .LVU180
	.uleb128 0
.LLST28:
	.4byte	.LVL35
	.4byte	.LVL36
	.2byte	0x2
	.byte	0x30
	.byte	0x9f
	.4byte	.LVL36
	.4byte	.LVL38
	.2byte	0x1
	.byte	0x54
	.4byte	.LVL38
	.4byte	.LVL43
	.2byte	0x2
	.byte	0x30
	.byte	0x9f
	.4byte	.LVL43
	.4byte	.LVL44
	.2byte	0x1
	.byte	0x54
	.4byte	.LVL44
	.4byte	.LFE145
	.2byte	0x2
	.byte	0x30
	.byte	0x9f
	.4byte	0
	.4byte	0
.LVUS29:
	.uleb128 .LVU152
	.uleb128 .LVU172
	.uleb128 .LVU180
	.uleb128 .LVU182
	.uleb128 .LVU182
	.uleb128 .LVU184
	.uleb128 .LVU184
	.uleb128 .LVU186
	.uleb128 .LVU186
	.uleb128 .LVU188
	.uleb128 .LVU188
	.uleb128 .LVU190
	.uleb128 .LVU190
	.uleb128 0
.LLST29:
	.4byte	.LVL38
	.4byte	.LVL42
	.2byte	0x2
	.byte	0x30
	.byte	0x9f
	.4byte	.LVL44
	.4byte	.LVL45
	.2byte	0x2
	.byte	0x30
	.byte	0x9f
	.4byte	.LVL45
	.4byte	.LVL47
	.2byte	0x1
	.byte	0x53
	.4byte	.LVL47
	.4byte	.LVL48
	.2byte	0x2
	.byte	0x30
	.byte	0x9f
	.4byte	.LVL48
	.4byte	.LVL50
	.2byte	0x1
	.byte	0x53
	.4byte	.LVL50
	.4byte	.LVL51
	.2byte	0x2
	.byte	0x30
	.byte	0x9f
	.4byte	.LVL51
	.4byte	.LFE145
	.2byte	0x1
	.byte	0x53
	.4byte	0
	.4byte	0
.LVUS30:
	.uleb128 .LVU157
	.uleb128 .LVU172
	.uleb128 .LVU172
	.uleb128 .LVU175
	.uleb128 .LVU180
	.uleb128 .LVU182
	.uleb128 .LVU182
	.uleb128 .LVU184
	.uleb128 .LVU184
	.uleb128 .LVU186
	.uleb128 .LVU186
	.uleb128 .LVU188
	.uleb128 .LVU188
	.uleb128 .LVU190
	.uleb128 .LVU190
	.uleb128 0
.LLST30:
	.4byte	.LVL40
	.4byte	.LVL42
	.2byte	0x6
	.byte	0x73
	.sleb128 0
	.byte	0x8
	.byte	0xff
	.byte	0x1a
	.byte	0x9f
	.4byte	.LVL42
	.4byte	.LVL43-1
	.2byte	0x9
	.byte	0x72
	.sleb128 0
	.byte	0x6
	.byte	0x35
	.byte	0x25
	.byte	0x8
	.byte	0xff
	.byte	0x1a
	.byte	0x9f
	.4byte	.LVL44
	.4byte	.LVL45
	.2byte	0x6
	.byte	0x73
	.sleb128 0
	.byte	0x8
	.byte	0xff
	.byte	0x1a
	.byte	0x9f
	.4byte	.LVL45
	.4byte	.LVL47
	.2byte	0x9
	.byte	0x72
	.sleb128 0
	.byte	0x6
	.byte	0x35
	.byte	0x25
	.byte	0x8
	.byte	0xff
	.byte	0x1a
	.byte	0x9f
	.4byte	.LVL47
	.4byte	.LVL48
	.2byte	0x6
	.byte	0x73
	.sleb128 0
	.byte	0x8
	.byte	0xff
	.byte	0x1a
	.byte	0x9f
	.4byte	.LVL48
	.4byte	.LVL50
	.2byte	0x9
	.byte	0x72
	.sleb128 0
	.byte	0x6
	.byte	0x35
	.byte	0x25
	.byte	0x8
	.byte	0xff
	.byte	0x1a
	.byte	0x9f
	.4byte	.LVL50
	.4byte	.LVL51
	.2byte	0x6
	.byte	0x73
	.sleb128 0
	.byte	0x8
	.byte	0xff
	.byte	0x1a
	.byte	0x9f
	.4byte	.LVL51
	.4byte	.LFE145
	.2byte	0x9
	.byte	0x72
	.sleb128 0
	.byte	0x6
	.byte	0x35
	.byte	0x25
	.byte	0x8
	.byte	0xff
	.byte	0x1a
	.byte	0x9f
	.4byte	0
	.4byte	0
.LVUS31:
	.uleb128 .LVU162
	.uleb128 .LVU172
	.uleb128 .LVU172
	.uleb128 .LVU175
	.uleb128 .LVU180
	.uleb128 .LVU183
	.uleb128 .LVU183
	.uleb128 .LVU184
	.uleb128 .LVU184
	.uleb128 .LVU187
	.uleb128 .LVU187
	.uleb128 .LVU188
	.uleb128 .LVU188
	.uleb128 .LVU191
	.uleb128 .LVU191
	.uleb128 0
.LLST31:
	.4byte	.LVL41
	.4byte	.LVL42
	.2byte	0x1
	.byte	0x54
	.4byte	.LVL42
	.4byte	.LVL43-1
	.2byte	0xc
	.byte	0x72
	.sleb128 0
	.byte	0x6
	.byte	0x72
	.sleb128 0
	.byte	0x6
	.byte	0x35
	.byte	0x25
	.byte	0x35
	.byte	0x24
	.byte	0x1c
	.byte	0x9f
	.4byte	.LVL44
	.4byte	.LVL46
	.2byte	0x1
	.byte	0x54
	.4byte	.LVL46
	.4byte	.LVL47
	.2byte	0xc
	.byte	0x72
	.sleb128 0
	.byte	0x6
	.byte	0x72
	.sleb128 0
	.byte	0x6
	.byte	0x35
	.byte	0x25
	.byte	0x35
	.byte	0x24
	.byte	0x1c
	.byte	0x9f
	.4byte	.LVL47
	.4byte	.LVL49
	.2byte	0x1
	.byte	0x54
	.4byte	.LVL49
	.4byte	.LVL50
	.2byte	0xc
	.byte	0x72
	.sleb128 0
	.byte	0x6
	.byte	0x72
	.sleb128 0
	.byte	0x6
	.byte	0x35
	.byte	0x25
	.byte	0x35
	.byte	0x24
	.byte	0x1c
	.byte	0x9f
	.4byte	.LVL50
	.4byte	.LVL52
	.2byte	0x1
	.byte	0x54
	.4byte	.LVL52
	.4byte	.LFE145
	.2byte	0xc
	.byte	0x72
	.sleb128 0
	.byte	0x6
	.byte	0x72
	.sleb128 0
	.byte	0x6
	.byte	0x35
	.byte	0x25
	.byte	0x35
	.byte	0x24
	.byte	0x1c
	.byte	0x9f
	.4byte	0
	.4byte	0
.LVUS32:
	.uleb128 .LVU168
	.uleb128 .LVU175
	.uleb128 .LVU180
	.uleb128 0
.LLST32:
	.4byte	.LVL41
	.4byte	.LVL43-1
	.2byte	0x1
	.byte	0x50
	.4byte	.LVL44
	.4byte	.LFE145
	.2byte	0x1
	.byte	0x50
	.4byte	0
	.4byte	0
.LVUS33:
	.uleb128 .LVU173
	.uleb128 .LVU175
.LLST33:
	.4byte	.LVL42
	.4byte	.LVL43-1
	.2byte	0x1
	.byte	0x50
	.4byte	0
	.4byte	0
.LLST21:
	.4byte	.LFB144
	.4byte	.LCFI4
	.2byte	0x2
	.byte	0x7d
	.sleb128 0
	.4byte	.LCFI4
	.4byte	.LCFI5
	.2byte	0x2
	.byte	0x7d
	.sleb128 8
	.4byte	.LCFI5
	.4byte	.LFE144
	.2byte	0x2
	.byte	0x7d
	.sleb128 0
	.4byte	0
	.4byte	0
.LVUS22:
	.uleb128 0
	.uleb128 .LVU127
	.uleb128 .LVU127
	.uleb128 0
.LLST22:
	.4byte	.LVL29
	.4byte	.LVL31-1
	.2byte	0x1
	.byte	0x50
	.4byte	.LVL31-1
	.4byte	.LFE144
	.2byte	0x4
	.byte	0xf3
	.uleb128 0x1
	.byte	0x50
	.byte	0x9f
	.4byte	0
	.4byte	0
.LVUS23:
	.uleb128 0
	.uleb128 .LVU127
	.uleb128 .LVU127
	.uleb128 0
.LLST23:
	.4byte	.LVL29
	.4byte	.LVL31-1
	.2byte	0x1
	.byte	0x51
	.4byte	.LVL31-1
	.4byte	.LFE144
	.2byte	0x4
	.byte	0xf3
	.uleb128 0x1
	.byte	0x51
	.byte	0x9f
	.4byte	0
	.4byte	0
.LVUS24:
	.uleb128 .LVU127
	.uleb128 .LVU140
.LLST24:
	.4byte	.LVL31
	.4byte	.LVL34-1
	.2byte	0x1
	.byte	0x50
	.4byte	0
	.4byte	0
.LVUS25:
	.uleb128 .LVU138
	.uleb128 .LVU140
.LLST25:
	.4byte	.LVL33
	.4byte	.LVL34-1
	.2byte	0x1
	.byte	0x50
	.4byte	0
	.4byte	0
.LLST12:
	.4byte	.LFB143
	.4byte	.LCFI3
	.2byte	0x2
	.byte	0x7d
	.sleb128 0
	.4byte	.LCFI3
	.4byte	.LFE143
	.2byte	0x2
	.byte	0x7d
	.sleb128 16
	.4byte	0
	.4byte	0
.LVUS13:
	.uleb128 0
	.uleb128 .LVU80
	.uleb128 .LVU80
	.uleb128 0
.LLST13:
	.4byte	.LVL20
	.4byte	.LVL22-1
	.2byte	0x1
	.byte	0x50
	.4byte	.LVL22-1
	.4byte	.LFE143
	.2byte	0x4
	.byte	0xf3
	.uleb128 0x1
	.byte	0x50
	.byte	0x9f
	.4byte	0
	.4byte	0
.LVUS14:
	.uleb128 .LVU92
	.uleb128 0
.LLST14:
	.4byte	.LVL25
	.4byte	.LFE143
	.2byte	0x1
	.byte	0x56
	.4byte	0
	.4byte	0
.LVUS15:
	.uleb128 .LVU99
	.uleb128 .LVU114
.LLST15:
	.4byte	.LVL26
	.4byte	.LVL28-1
	.2byte	0x1
	.byte	0x50
	.4byte	0
	.4byte	0
.LVUS16:
	.uleb128 .LVU70
	.uleb128 .LVU84
.LLST16:
	.4byte	.LVL21
	.4byte	.LVL23
	.2byte	0x1
	.byte	0x55
	.4byte	0
	.4byte	0
.LVUS17:
	.uleb128 .LVU72
	.uleb128 .LVU87
	.uleb128 .LVU87
	.uleb128 .LVU92
.LLST17:
	.4byte	.LVL21
	.4byte	.LVL24
	.2byte	0x2
	.byte	0x30
	.byte	0x9f
	.4byte	.LVL24
	.4byte	.LVL25
	.2byte	0x1
	.byte	0x56
	.4byte	0
	.4byte	0
.LVUS18:
	.uleb128 .LVU80
	.uleb128 .LVU90
.LLST18:
	.4byte	.LVL22
	.4byte	.LVL25-1
	.2byte	0x1
	.byte	0x50
	.4byte	0
	.4byte	0
.LVUS19:
	.uleb128 .LVU88
	.uleb128 .LVU90
.LLST19:
	.4byte	.LVL24
	.4byte	.LVL25-1
	.2byte	0x1
	.byte	0x50
	.4byte	0
	.4byte	0
.LVUS20:
	.uleb128 .LVU112
	.uleb128 .LVU114
.LLST20:
	.4byte	.LVL27
	.4byte	.LVL28-1
	.2byte	0x1
	.byte	0x50
	.4byte	0
	.4byte	0
.LLST8:
	.4byte	.LFB142
	.4byte	.LCFI1
	.2byte	0x2
	.byte	0x7d
	.sleb128 0
	.4byte	.LCFI1
	.4byte	.LCFI2
	.2byte	0x2
	.byte	0x7d
	.sleb128 8
	.4byte	.LCFI2
	.4byte	.LFE142
	.2byte	0x2
	.byte	0x7d
	.sleb128 0
	.4byte	0
	.4byte	0
.LVUS9:
	.uleb128 0
	.uleb128 .LVU52
	.uleb128 .LVU52
	.uleb128 0
.LLST9:
	.4byte	.LVL14
	.4byte	.LVL16-1
	.2byte	0x1
	.byte	0x50
	.4byte	.LVL16-1
	.4byte	.LFE142
	.2byte	0x4
	.byte	0xf3
	.uleb128 0x1
	.byte	0x50
	.byte	0x9f
	.4byte	0
	.4byte	0
.LVUS10:
	.uleb128 .LVU52
	.uleb128 .LVU65
.LLST10:
	.4byte	.LVL16
	.4byte	.LVL19-1
	.2byte	0x1
	.byte	0x50
	.4byte	0
	.4byte	0
.LVUS11:
	.uleb128 .LVU63
	.uleb128 .LVU65
.LLST11:
	.4byte	.LVL18
	.4byte	.LVL19-1
	.2byte	0x1
	.byte	0x50
	.4byte	0
	.4byte	0
.LVUS0:
	.uleb128 .LVU2
	.uleb128 .LVU7
	.uleb128 .LVU7
	.uleb128 .LVU10
	.uleb128 .LVU10
	.uleb128 .LVU11
.LLST0:
	.4byte	.LVL0
	.4byte	.LVL1
	.2byte	0x2
	.byte	0x31
	.byte	0x9f
	.4byte	.LVL1
	.4byte	.LVL2
	.2byte	0x8
	.byte	0x70
	.sleb128 0
	.byte	0x8
	.byte	0x80
	.byte	0x1a
	.byte	0x30
	.byte	0x29
	.byte	0x9f
	.4byte	.LVL2
	.4byte	.LVL3
	.2byte	0x9
	.byte	0x70
	.sleb128 0
	.byte	0x20
	.byte	0x8
	.byte	0x80
	.byte	0x1a
	.byte	0x30
	.byte	0x29
	.byte	0x9f
	.4byte	0
	.4byte	0
.LVUS1:
	.uleb128 .LVU6
	.uleb128 .LVU7
.LLST1:
	.4byte	.LVL1
	.4byte	.LVL1
	.2byte	0x1
	.byte	0x50
	.4byte	0
	.4byte	0
.LVUS2:
	.uleb128 0
	.uleb128 .LVU19
	.uleb128 .LVU19
	.uleb128 0
.LLST2:
	.4byte	.LVL6
	.4byte	.LVL7-1
	.2byte	0x1
	.byte	0x50
	.4byte	.LVL7-1
	.4byte	.LFE140
	.2byte	0x4
	.byte	0xf3
	.uleb128 0x1
	.byte	0x50
	.byte	0x9f
	.4byte	0
	.4byte	0
.LLST3:
	.4byte	.LFB141
	.4byte	.LCFI0
	.2byte	0x2
	.byte	0x7d
	.sleb128 0
	.4byte	.LCFI0
	.4byte	.LFE141
	.2byte	0x2
	.byte	0x7d
	.sleb128 8
	.4byte	0
	.4byte	0
.LVUS4:
	.uleb128 0
	.uleb128 .LVU30
	.uleb128 .LVU30
	.uleb128 0
.LLST4:
	.4byte	.LVL8
	.4byte	.LVL10-1
	.2byte	0x1
	.byte	0x50
	.4byte	.LVL10-1
	.4byte	.LFE141
	.2byte	0x4
	.byte	0xf3
	.uleb128 0x1
	.byte	0x50
	.byte	0x9f
	.4byte	0
	.4byte	0
.LVUS5:
	.uleb128 .LVU22
	.uleb128 .LVU37
	.uleb128 .LVU37
	.uleb128 0
.LLST5:
	.4byte	.LVL8
	.4byte	.LVL12
	.2byte	0x2
	.byte	0x30
	.byte	0x9f
	.4byte	.LVL12
	.4byte	.LFE141
	.2byte	0x1
	.byte	0x54
	.4byte	0
	.4byte	0
.LVUS6:
	.uleb128 .LVU30
	.uleb128 .LVU40
.LLST6:
	.4byte	.LVL10
	.4byte	.LVL13-1
	.2byte	0x1
	.byte	0x50
	.4byte	0
	.4byte	0
.LVUS7:
	.uleb128 .LVU38
	.uleb128 .LVU40
.LLST7:
	.4byte	.LVL12
	.4byte	.LVL13-1
	.2byte	0x1
	.byte	0x50
	.4byte	0
	.4byte	0
	.section	.debug_aranges,info
	.4byte	0x6c
	.2byte	0x2
	.4byte	.Ldebug_info0
	.byte	0x4
	.byte	0
	.2byte	0
	.2byte	0
	.4byte	.LFB137
	.4byte	.LFE137-.LFB137
	.4byte	.LFB138
	.4byte	.LFE138-.LFB138
	.4byte	.LFB139
	.4byte	.LFE139-.LFB139
	.4byte	.LFB140
	.4byte	.LFE140-.LFB140
	.4byte	.LFB141
	.4byte	.LFE141-.LFB141
	.4byte	.LFB142
	.4byte	.LFE142-.LFB142
	.4byte	.LFB143
	.4byte	.LFE143-.LFB143
	.4byte	.LFB144
	.4byte	.LFE144-.LFB144
	.4byte	.LFB145
	.4byte	.LFE145-.LFB145
	.4byte	.LFB146
	.4byte	.LFE146-.LFB146
	.4byte	.LFB147
	.4byte	.LFE147-.LFB147
	.4byte	0
	.4byte	0
	.section	.debug_ranges,info
.Ldebug_ranges0:
	.4byte	.LBB84
	.4byte	.LBE84
	.4byte	.LBB93
	.4byte	.LBE93
	.4byte	0
	.4byte	0
	.4byte	.LBB86
	.4byte	.LBE86
	.4byte	.LBB89
	.4byte	.LBE89
	.4byte	0
	.4byte	0
	.4byte	.LBB102
	.4byte	.LBE102
	.4byte	.LBB107
	.4byte	.LBE107
	.4byte	.LBB108
	.4byte	.LBE108
	.4byte	0
	.4byte	0
	.4byte	.LBB109
	.4byte	.LBE109
	.4byte	.LBB116
	.4byte	.LBE116
	.4byte	.LBB117
	.4byte	.LBE117
	.4byte	0
	.4byte	0
	.4byte	.LBB110
	.4byte	.LBE110
	.4byte	.LBB113
	.4byte	.LBE113
	.4byte	0
	.4byte	0
	.4byte	.LFB137
	.4byte	.LFE137
	.4byte	.LFB138
	.4byte	.LFE138
	.4byte	.LFB139
	.4byte	.LFE139
	.4byte	.LFB140
	.4byte	.LFE140
	.4byte	.LFB141
	.4byte	.LFE141
	.4byte	.LFB142
	.4byte	.LFE142
	.4byte	.LFB143
	.4byte	.LFE143
	.4byte	.LFB144
	.4byte	.LFE144
	.4byte	.LFB145
	.4byte	.LFE145
	.4byte	.LFB146
	.4byte	.LFE146
	.4byte	.LFB147
	.4byte	.LFE147
	.4byte	0
	.4byte	0
	.section	.debug_line,info
.Ldebug_line0:
	.section	.debug_str,info
.LASF76:
	.ascii	"PIOD_IRQn\000"
.LASF37:
	.ascii	"UART2_IRQn\000"
.LASF100:
	.ascii	"AIC_EOICR\000"
.LASF92:
	.ascii	"AIC_ISR\000"
.LASF149:
	.ascii	"SYS_INT_Disable\000"
.LASF86:
	.ascii	"AIC_SSR\000"
.LASF56:
	.ascii	"TRNG_IRQn\000"
.LASF111:
	.ascii	"aic_registers_t\000"
.LASF141:
	.ascii	"AIC_INT_IrqRestore\000"
.LASF128:
	.ascii	"SYS_INT_SourceStatusGet\000"
.LASF98:
	.ascii	"AIC_IMR\000"
.LASF4:
	.ascii	"long int\000"
.LASF55:
	.ascii	"ISC_IRQn\000"
.LASF121:
	.ascii	"retval\000"
.LASF109:
	.ascii	"AIC_WPMR\000"
.LASF65:
	.ascii	"MCAN0_INT0_IRQn\000"
.LASF11:
	.ascii	"long long unsigned int\000"
.LASF124:
	.ascii	"bitSelection\000"
.LASF147:
	.ascii	"SYS_INT_SourceIsEnabled\000"
.LASF119:
	.ascii	"aicPtr\000"
.LASF148:
	.ascii	"SYS_INT_Restore\000"
.LASF16:
	.ascii	"GMAC_IRQn\000"
.LASF63:
	.ascii	"I2SC0_IRQn\000"
.LASF30:
	.ascii	"FLEXCOM0_IRQn\000"
.LASF38:
	.ascii	"UART3_IRQn\000"
.LASF54:
	.ascii	"LCDC_IRQn\000"
.LASF120:
	.ascii	"processorStatus\000"
.LASF5:
	.ascii	"long long int\000"
.LASF2:
	.ascii	"signed char\000"
.LASF136:
	.ascii	"__get_CPSR\000"
.LASF133:
	.ascii	"SYS_INT_Enable\000"
.LASF72:
	.ascii	"GMAC_Q1_IRQn\000"
.LASF69:
	.ascii	"L2CC_IRQn\000"
.LASF89:
	.ascii	"Reserved1\000"
.LASF93:
	.ascii	"Reserved2\000"
.LASF106:
	.ascii	"Reserved3\000"
.LASF24:
	.ascii	"MPDDRC_IRQn\000"
.LASF123:
	.ascii	"regSelection\000"
.LASF41:
	.ascii	"TWIHS1_IRQn\000"
.LASF81:
	.ascii	"RTC_IRQn\000"
.LASF132:
	.ascii	"state\000"
.LASF140:
	.ascii	"AIC_INT_IrqDisable\000"
.LASF78:
	.ascii	"SDMMC1_TIMER_IRQn\000"
.LASF62:
	.ascii	"QSPI1_IRQn\000"
.LASF70:
	.ascii	"MCAN0_INT1_IRQn\000"
.LASF94:
	.ascii	"AIC_IPR0\000"
.LASF95:
	.ascii	"AIC_IPR1\000"
.LASF96:
	.ascii	"AIC_IPR2\000"
.LASF97:
	.ascii	"AIC_IPR3\000"
.LASF50:
	.ascii	"UHPHS_IRQn\000"
.LASF0:
	.ascii	"double\000"
.LASF20:
	.ascii	"AES_IRQn\000"
.LASF64:
	.ascii	"I2SC1_IRQn\000"
.LASF39:
	.ascii	"UART4_IRQn\000"
.LASF87:
	.ascii	"AIC_SMR\000"
.LASF73:
	.ascii	"GMAC_Q2_IRQn\000"
.LASF122:
	.ascii	"regValue\000"
.LASF102:
	.ascii	"AIC_IECR\000"
.LASF44:
	.ascii	"SPI0_IRQn\000"
.LASF52:
	.ascii	"SSC0_IRQn\000"
.LASF113:
	.ascii	"INT_SOURCE\000"
.LASF68:
	.ascii	"CLASSD_IRQn\000"
.LASF135:
	.ascii	"laicInstanceGet\000"
.LASF80:
	.ascii	"RSTC_IRQn\000"
.LASF29:
	.ascii	"PIOA_IRQn\000"
.LASF34:
	.ascii	"FLEXCOM4_IRQn\000"
.LASF10:
	.ascii	"long unsigned int\000"
.LASF12:
	.ascii	"SAIC_IRQn\000"
.LASF129:
	.ascii	"SYS_INT_SourceDisable\000"
.LASF108:
	.ascii	"Reserved4\000"
.LASF131:
	.ascii	"SYS_INT_SourceEnable\000"
.LASF7:
	.ascii	"short unsigned int\000"
.LASF90:
	.ascii	"AIC_IVR\000"
.LASF45:
	.ascii	"SPI1_IRQn\000"
.LASF53:
	.ascii	"SSC1_IRQn\000"
.LASF19:
	.ascii	"ICM_IRQn\000"
.LASF88:
	.ascii	"AIC_SVR\000"
.LASF82:
	.ascii	"ACC_IRQn\000"
.LASF138:
	.ascii	"__DSB\000"
.LASF59:
	.ascii	"SFC_IRQn\000"
.LASF143:
	.ascii	"GNU C17 8.3.1 -mfpu=neon-vfpv4 -mconfig-data-file=C"
	.ascii	":/Program Files/Microchip/MPLABX/v6.25/packs/Microc"
	.ascii	"hip/SAMA5D2_DFP/1.12.233/xc32/ATSAMA5D29/configurat"
	.ascii	"ion.data -marm -mprocessor=ATSAMA5D29 -mdfp=C:/Prog"
	.ascii	"ram Files/Microchip/MPLABX/v6.25/packs/Microchip/SA"
	.ascii	"MA5D2_DFP/1.12.233 -mcpu=cortex-a5 -mfloat-abi=hard"
	.ascii	" -mfpu=neon-vfpv4 -march=armv7-a+mp+sec+neon-vfpv4 "
	.ascii	"-g -O3 -ffunction-sections -fdata-sections -ftoplev"
	.ascii	"el-reorder -fno-common -fno-lto\000"
.LASF35:
	.ascii	"UART0_IRQn\000"
.LASF103:
	.ascii	"AIC_IDCR\000"
.LASF46:
	.ascii	"TC0_IRQn\000"
.LASF146:
	.ascii	"IRQn\000"
.LASF42:
	.ascii	"SDMMC0_IRQn\000"
.LASF14:
	.ascii	"PIT_IRQn\000"
.LASF126:
	.ascii	"source\000"
.LASF125:
	.ascii	"SYS_INT_SourceRestore\000"
.LASF66:
	.ascii	"MCAN1_INT0_IRQn\000"
.LASF48:
	.ascii	"PWM_IRQn\000"
.LASF139:
	.ascii	"__ISB\000"
.LASF67:
	.ascii	"PTC_IRQn\000"
.LASF57:
	.ascii	"PDMIC_IRQn\000"
.LASF36:
	.ascii	"UART1_IRQn\000"
.LASF47:
	.ascii	"TC1_IRQn\000"
.LASF51:
	.ascii	"UDPHS_IRQn\000"
.LASF145:
	.ascii	"C:\\\\Workspace\\\\TechSupport\\\\Mantra\\\\uart_ec"
	.ascii	"ho_interrupt_swapna\\\\uart_echo_interrupt_swapna\\"
	.ascii	"\\uart_echo_interrupt\\\\firmware\\\\sama5d29_curio"
	.ascii	"sity.X\000"
.LASF115:
	.ascii	"_Bool\000"
.LASF6:
	.ascii	"unsigned char\000"
.LASF116:
	.ascii	"SYS_INT_SourceStatusClear\000"
.LASF142:
	.ascii	"AIC_INT_IrqEnable\000"
.LASF104:
	.ascii	"AIC_ICCR\000"
.LASF107:
	.ascii	"AIC_DCR\000"
.LASF17:
	.ascii	"XDMAC0_IRQn\000"
.LASF101:
	.ascii	"AIC_SPU\000"
.LASF3:
	.ascii	"short int\000"
.LASF31:
	.ascii	"FLEXCOM1_IRQn\000"
.LASF22:
	.ascii	"TDES_IRQn\000"
.LASF13:
	.ascii	"PMU_IRQn\000"
.LASF26:
	.ascii	"MATRIX0_IRQn\000"
.LASF99:
	.ascii	"AIC_CISR\000"
.LASF85:
	.ascii	"IRQn_Type\000"
.LASF83:
	.ascii	"RXLP_IRQn\000"
.LASF9:
	.ascii	"uint32_t\000"
.LASF114:
	.ascii	"long double\000"
.LASF112:
	.ascii	"char\000"
.LASF74:
	.ascii	"PIOB_IRQn\000"
.LASF1:
	.ascii	"unsigned int\000"
.LASF61:
	.ascii	"QSPI0_IRQn\000"
.LASF27:
	.ascii	"SECUMOD_IRQn\000"
.LASF18:
	.ascii	"XDMAC1_IRQn\000"
.LASF130:
	.ascii	"previousValue\000"
.LASF21:
	.ascii	"AESB_IRQn\000"
.LASF32:
	.ascii	"FLEXCOM2_IRQn\000"
.LASF91:
	.ascii	"AIC_FVR\000"
.LASF15:
	.ascii	"WDT_IRQn\000"
.LASF25:
	.ascii	"MATRIX1_IRQn\000"
.LASF77:
	.ascii	"SDMMC0_TIMER_IRQn\000"
.LASF58:
	.ascii	"AIC_IRQn\000"
.LASF40:
	.ascii	"TWIHS0_IRQn\000"
.LASF110:
	.ascii	"AIC_WPSR\000"
.LASF127:
	.ascii	"status\000"
.LASF75:
	.ascii	"PIOC_IRQn\000"
.LASF105:
	.ascii	"AIC_ISCR\000"
.LASF117:
	.ascii	"SYS_INT_SourceStatusSet\000"
.LASF8:
	.ascii	"uint8_t\000"
.LASF43:
	.ascii	"SDMMC1_IRQn\000"
.LASF33:
	.ascii	"FLEXCOM3_IRQn\000"
.LASF134:
	.ascii	"SYS_INT_IsEnabled\000"
.LASF28:
	.ascii	"HSMC_IRQn\000"
.LASF23:
	.ascii	"SHA_IRQn\000"
.LASF84:
	.ascii	"PERIPH_MAX_IRQn\000"
.LASF71:
	.ascii	"MCAN1_INT1_IRQn\000"
.LASF49:
	.ascii	"ADC_IRQn\000"
.LASF79:
	.ascii	"PMC_IRQn\000"
.LASF60:
	.ascii	"SECURAM_IRQn\000"
.LASF137:
	.ascii	"result\000"
.LASF144:
	.ascii	"../src/config/sama5d29_curiosity/system/int/src/sys"
	.ascii	"_int.c\000"
.LASF118:
	.ascii	"aSrcSelection\000"
	.ident	"GCC: (Microchip XC32 Compiler v4.60) 8.3.1"
