	.cpu cortex-a5
	.eabi_attribute 28, 1	@ Tag_ABI_VFP_args
	.eabi_attribute 20, 1	@ Tag_ABI_FP_denormal
	.eabi_attribute 21, 1	@ Tag_ABI_FP_exceptions
	.eabi_attribute 23, 3	@ Tag_ABI_FP_number_model
	.eabi_attribute 24, 1	@ Tag_ABI_align8_needed
	.eabi_attribute 25, 1	@ Tag_ABI_align8_preserved
	.eabi_attribute 26, 1	@ Tag_ABI_enum_size
	.eabi_attribute 30, 2	@ Tag_ABI_optimization_goals
	.eabi_attribute 34, 1	@ Tag_CPU_unaligned_access
	.eabi_attribute 18, 4	@ Tag_ABI_PCS_wchar_t
	.file	"xc32_monitor.c"
@ GNU C17 (Microchip XC32 Compiler v4.60) version 8.3.1 (pic32c)
@	compiled by GNU C version 9.3-win32 20200320, GMP version 6.1.0, MPFR version 3.1.4, MPC version 1.0.3, isl version none
@ GGC heuristics: --param ggc-min-expand=100 --param ggc-min-heapsize=131072
@ options passed:  -fpreprocessed xc32_monitor.i -D__SAMA5D29__
@ -mfpu=neon-vfpv4 -fverbose-asm
@ -mconfig-data-file=C:/Program Files/Microchip/MPLABX/v6.25/packs/Microchip/SAMA5D2_DFP/1.12.233/xc32/ATSAMA5D29/configuration.data
@ -isystem c:/program files/microchip/xc32/v4.60/bin/bin/../../pic32c/include/CMSIS/Core_A/Include
@ -D__XC32_INCLUDE_MCC
@ -isystem c:/program files/microchip/xc32/v4.60/bin/bin/../../pic32c/include_mcc
@ -marm -mprocessor=ATSAMA5D29
@ -mdfp=C:/Program Files/Microchip/MPLABX/v6.25/packs/Microchip/SAMA5D2_DFP/1.12.233
@ -mcpu=cortex-a5 -mfloat-abi=hard -mfpu=neon-vfpv4
@ -march=armv7-a+mp+sec+neon-vfpv4
@ -auxbase-strip build/sama5d29_curiosity/production/_ext/1533293977/xc32_monitor.o
@ -g -O3 -Werror -Wall -ffunction-sections -fdata-sections
@ -ftoplevel-reorder -fno-common -fno-lto
@ options enabled:  -faggressive-loop-optimizations -falign-jumps
@ -falign-labels -falign-loops -fauto-inc-dec -fbranch-count-reg
@ -fcaller-saves -fchkp-check-incomplete-type -fchkp-check-read
@ -fchkp-check-write -fchkp-instrument-calls -fchkp-narrow-bounds
@ -fchkp-optimize -fchkp-store-bounds -fchkp-use-static-bounds
@ -fchkp-use-static-const-bounds -fchkp-use-wrappers -fcode-hoisting
@ -fcombine-stack-adjustments -fcompare-elim -fcprop-registers
@ -fcrossjumping -fcse-follow-jumps -fdata-sections -fdebug-types-section
@ -fdefer-pop -fdelete-null-pointer-checks -fdevirtualize
@ -fdevirtualize-speculatively -fdwarf2-cfi-asm -fearly-inlining
@ -feliminate-unused-debug-symbols -feliminate-unused-debug-types
@ -fexpensive-optimizations -fforward-propagate -ffp-int-builtin-inexact
@ -ffunction-cse -ffunction-sections -fgcse -fgcse-after-reload -fgcse-lm
@ -fgnu-runtime -fgnu-unique -fguess-branch-probability
@ -fhoist-adjacent-loads -fident -fif-conversion -fif-conversion2
@ -findirect-inlining -finline -finline-atomics -finline-functions
@ -finline-functions-called-once -finline-small-functions -fipa-bit-cp
@ -fipa-cp -fipa-cp-clone -fipa-icf -fipa-icf-functions -fipa-icf-variables
@ -fipa-profile -fipa-pure-const -fipa-ra -fipa-reference -fipa-sra
@ -fipa-vrp -fira-hoist-pressure -fira-share-save-slots
@ -fira-share-spill-slots -fisolate-erroneous-paths-dereference -fivopts
@ -fkeep-static-consts -fleading-underscore -flifetime-dse
@ -floop-unroll-and-jam -flra-remat -flto-odr-type-merging -fmath-errno
@ -fmerge-constants -fmerge-debug-strings -fmove-loop-invariants
@ -fomit-frame-pointer -foptimize-sibling-calls -foptimize-strlen
@ -fpartial-inlining -fpeel-loops -fpeephole -fpeephole2 -fplt
@ -fpredictive-commoning -fprefetch-loop-arrays -freg-struct-return
@ -freorder-blocks -freorder-functions -frerun-cse-after-loop
@ -fsched-critical-path-heuristic -fsched-dep-count-heuristic
@ -fsched-group-heuristic -fsched-interblock -fsched-last-insn-heuristic
@ -fsched-pressure -fsched-rank-heuristic -fsched-spec
@ -fsched-spec-insn-heuristic -fsched-stalled-insns-dep -fschedule-insns
@ -fschedule-insns2 -fsection-anchors -fsemantic-interposition
@ -fshow-column -fshrink-wrap -fshrink-wrap-separate -fsigned-zeros
@ -fsplit-ivs-in-unroller -fsplit-loops -fsplit-paths -fsplit-wide-types
@ -fssa-backprop -fssa-phiopt -fstdarg-opt -fstore-merging
@ -fstrict-aliasing -fstrict-volatile-bitfields -fsync-libcalls
@ -fthread-jumps -ftoplevel-reorder -ftrapping-math -ftree-bit-ccp
@ -ftree-builtin-call-dce -ftree-ccp -ftree-ch -ftree-coalesce-vars
@ -ftree-copy-prop -ftree-cselim -ftree-dce -ftree-dominator-opts
@ -ftree-dse -ftree-forwprop -ftree-fre -ftree-loop-distribute-patterns
@ -ftree-loop-if-convert -ftree-loop-im -ftree-loop-ivcanon
@ -ftree-loop-optimize -ftree-loop-vectorize -ftree-parallelize-loops=
@ -ftree-partial-pre -ftree-phiprop -ftree-pre -ftree-pta -ftree-reassoc
@ -ftree-scev-cprop -ftree-sink -ftree-slp-vectorize -ftree-slsr -ftree-sra
@ -ftree-switch-conversion -ftree-tail-merge -ftree-ter -ftree-vrp
@ -funit-at-a-time -funswitch-loops -fvar-tracking
@ -fvar-tracking-assignments -fverbose-asm -fzero-initialized-in-bss
@ -madj-exiting-edge-prob -marm -mauto-indexing -mbe32 -mlittle-endian
@ -mloop-rename-registers -mpic-data-is-text-relative -msched-prolog
@ -munaligned-access -mvectorize-with-neon-quad -mvectors-in-tcm

	.section	.text,code
.Ltext0:
	.cfi_sections	.debug_frame
	.section	.text.read,code
	.align	2
	.global	read
	.arch armv7-a
	.arch_extension mp
	.arch_extension sec
	.syntax unified
	.arm
	.fpu neon-vfpv4
	.type	read, %function
read:
.LVL0:
.LFB159:
	.file 1 "../src/config/sama5d29_curiosity/stdio/xc32_monitor.c"
	.loc 1 48 1 view -0
	.cfi_startproc
	@ args = 0, pretend = 0, frame = 0
	@ frame_needed = 0, uses_anonymous_args = 0
@ ../src/config/sama5d29_curiosity/stdio/xc32_monitor.c:51:     if ((handle == 0)  && (len > 0U))
	.loc 1 51 8 is_stmt 0 view .LVU1
	cmp	r0, #0	@ handle,
	.loc 1 49 5 is_stmt 1 view .LVU2
.LVL1:
	.loc 1 50 4 view .LVU3
	.loc 1 51 5 view .LVU4
@ ../src/config/sama5d29_curiosity/stdio/xc32_monitor.c:51:     if ((handle == 0)  && (len > 0U))
	.loc 1 51 8 is_stmt 0 view .LVU5
	bne	.L4		@,
@ ../src/config/sama5d29_curiosity/stdio/xc32_monitor.c:51:     if ((handle == 0)  && (len > 0U))
	.loc 1 51 23 discriminator 1 view .LVU6
	cmp	r2, #0	@ len,
@ ../src/config/sama5d29_curiosity/stdio/xc32_monitor.c:48: {
	.loc 1 48 1 discriminator 1 view .LVU7
	push	{r4, lr}	@
.LCFI0:
	.cfi_def_cfa_offset 8
	.cfi_offset 4, -8
	.cfi_offset 14, -4
	mov	r4, r1	@ buffer, buffer
@ ../src/config/sama5d29_curiosity/stdio/xc32_monitor.c:51:     if ((handle == 0)  && (len > 0U))
	.loc 1 51 23 discriminator 1 view .LVU8
	beq	.L5		@,
.LVL2:
.L3:
	.loc 1 53 9 is_stmt 1 discriminator 1 view .LVU9
	.loc 1 55 13 discriminator 1 view .LVU10
@ ../src/config/sama5d29_curiosity/stdio/xc32_monitor.c:55:             success = UART0_Read(buffer, 1);
	.loc 1 55 23 is_stmt 0 discriminator 1 view .LVU11
	mov	r1, #1	@,
	mov	r0, r4	@, buffer
	bl	UART0_Read		@
.LVL3:
@ ../src/config/sama5d29_curiosity/stdio/xc32_monitor.c:56:         }while( !success);
	.loc 1 56 9 discriminator 1 view .LVU12
	cmp	r0, #0	@,
	beq	.L3		@,
@ ../src/config/sama5d29_curiosity/stdio/xc32_monitor.c:57:         nChars = 1;
	.loc 1 57 16 view .LVU13
	mov	r0, #1	@ <retval>,
.LVL4:
	.loc 1 57 16 view .LVU14
	pop	{r4, pc}	@
.LVL5:
.L4:
.LCFI1:
	.cfi_def_cfa_offset 0
	.cfi_restore 4
	.cfi_restore 14
@ ../src/config/sama5d29_curiosity/stdio/xc32_monitor.c:49:     int nChars = 0;
	.loc 1 49 9 view .LVU15
	mov	r0, #0	@ <retval>,
.LVL6:
@ ../src/config/sama5d29_curiosity/stdio/xc32_monitor.c:60: }
	.loc 1 60 1 view .LVU16
	bx	lr	@
.LVL7:
.L5:
.LCFI2:
	.cfi_def_cfa_offset 8
	.cfi_offset 4, -8
	.cfi_offset 14, -4
@ ../src/config/sama5d29_curiosity/stdio/xc32_monitor.c:49:     int nChars = 0;
	.loc 1 49 9 view .LVU17
	mov	r0, r2	@ <retval>, len
.LVL8:
	.loc 1 59 5 is_stmt 1 view .LVU18
@ ../src/config/sama5d29_curiosity/stdio/xc32_monitor.c:60: }
	.loc 1 60 1 is_stmt 0 view .LVU19
	pop	{r4, pc}	@
	.cfi_endproc
.LFE159:
	.size	read, .-read
	.section	.text.write,code
	.align	2
	.global	write
	.syntax unified
	.arm
	.fpu neon-vfpv4
	.type	write, %function
write:
.LVL9:
.LFB160:
	.loc 1 63 1 is_stmt 1 view -0
	.cfi_startproc
	@ args = 0, pretend = 0, frame = 0
	@ frame_needed = 0, uses_anonymous_args = 0
	.loc 1 64 3 view .LVU21
	.loc 1 65 4 view .LVU22
@ ../src/config/sama5d29_curiosity/stdio/xc32_monitor.c:65:    if (handle == 1)
	.loc 1 65 7 is_stmt 0 view .LVU23
	cmp	r0, #1	@ handle,
@ ../src/config/sama5d29_curiosity/stdio/xc32_monitor.c:63: {
	.loc 1 63 1 view .LVU24
	push	{r4, r5, r6, lr}	@
.LCFI3:
	.cfi_def_cfa_offset 16
	.cfi_offset 4, -16
	.cfi_offset 5, -12
	.cfi_offset 6, -8
	.cfi_offset 14, -4
@ ../src/config/sama5d29_curiosity/stdio/xc32_monitor.c:63: {
	.loc 1 63 1 view .LVU25
	mov	r4, r2	@ count, count
@ ../src/config/sama5d29_curiosity/stdio/xc32_monitor.c:65:    if (handle == 1)
	.loc 1 65 7 view .LVU26
	beq	.L19		@,
	.loc 1 72 4 is_stmt 1 view .LVU27
@ ../src/config/sama5d29_curiosity/stdio/xc32_monitor.c:73: }
	.loc 1 73 1 is_stmt 0 view .LVU28
	mov	r0, r4	@, count
.LVL10:
	.loc 1 73 1 view .LVU29
	pop	{r4, r5, r6, pc}	@
.LVL11:
.L19:
	.loc 1 73 1 view .LVU30
	mov	r5, r1	@ buffer, buffer
.LVL12:
.L15:
	.loc 1 67 8 is_stmt 1 discriminator 1 view .LVU31
	.loc 1 69 12 discriminator 1 view .LVU32
@ ../src/config/sama5d29_curiosity/stdio/xc32_monitor.c:69:            success = UART0_Write(buffer, count);
	.loc 1 69 22 is_stmt 0 discriminator 1 view .LVU33
	mov	r1, r4	@, count
	mov	r0, r5	@, buffer
	bl	UART0_Write		@
.LVL13:
@ ../src/config/sama5d29_curiosity/stdio/xc32_monitor.c:70:        }while( !success);
	.loc 1 70 8 discriminator 1 view .LVU34
	cmp	r0, #0	@,
	beq	.L15		@,
	.loc 1 72 4 is_stmt 1 view .LVU35
@ ../src/config/sama5d29_curiosity/stdio/xc32_monitor.c:73: }
	.loc 1 73 1 is_stmt 0 view .LVU36
	mov	r0, r4	@, count
.LVL14:
	.loc 1 73 1 view .LVU37
	pop	{r4, r5, r6, pc}	@
	.cfi_endproc
.LFE160:
	.size	write, .-write
	.section	.text,code
.Letext0:
	.file 2 "../src/config/sama5d29_curiosity/peripheral/uart/plib_uart0.h"
	.file 3 "c:\\program files\\microchip\\xc32\\v4.60\\pic32c\\include\\musl\\bits\\alltypes.h"